(lp1
(dp2
S'tree_str'
p3
S'a1(a1(a1(a1(ARG0,a1(a1(ARG2,ARG0),a1(a1(ARG0,ARG2),ARG2))),a1(a1(ARG0,a1(a1(a1(a1(ARG1,ARG2),ARG0),a1(a1(ARG0,ARG2),ARG1)),a1(a1(ARG0,ARG0),a1(ARG0,ARG0)))),ARG0)),a1(a1(a1(a1(ARG1,ARG2),ARG0),a1(a1(ARG1,a1(a1(a1(ARG2,ARG1),ARG1),ARG1)),a1(ARG0,ARG1))),ARG1)),a1(a1(ARG1,ARG1),a1(ARG0,a1(a1(a1(ARG1,ARG1),a1(a1(ARG1,ARG2),a1(ARG0,a1(ARG0,ARG0)))),a1(a1(a1(ARG2,ARG2),a1(ARG1,ARG2)),a1(a1(ARG1,ARG2),a1(ARG0,ARG0)))))))'
p4
sS'tree_len'
p5
I93
sS'archive_size'
p6
I16945
sS'number_of_operators'
p7
I46
sS'alg_name'
p8
S'small-LTI'
p9
sS'archive_tree_deapth'
p10
I3
sS'logbook'
p11
ccopy_reg
_reconstructor
p12
(ctreeimprove.utilities
Logbook
p13
c__builtin__
list
p14
(lp15
(dp16
S'status'
p17
NsS'iteration'
p18
I0
sS'count_wrongs'
p19
I6
sS'picked_node'
p20
NsS'len_master_tree'
p21
I1
sS'total_wrongs'
p22
I6
sa(dp23
g17
S'worst'
p24
sg18
I1
sg19
I8
sg20
I0
sg21
I11
sg22
I70
sa(dp25
g17
S'perfect'
p26
sg18
I2
sg19
I4
sg20
I4
sg21
I21
sg22
I20
sa(dp27
g17
S'better'
p28
sg18
I3
sg19
I4
sg20
I9
sg21
I25
sg22
I76
sa(dp29
g17
g26
sg18
I4
sg19
I4
sg20
I14
sg21
I33
sg22
I63
sa(dp30
g17
g26
sg18
I5
sg19
I3
sg20
I10
sg21
I35
sg22
I40
sa(dp31
g17
g26
sg18
I6
sg19
I2
sg20
I11
sg21
I43
sg22
I21
sa(dp32
g17
g26
sg18
I7
sg19
I1
sg20
I16
sg21
I53
sg22
I3
sa(dp33
g17
g24
sg18
I8
sg19
I2
sg20
I7
sg21
I43
sg22
I21
sa(dp34
g17
g26
sg18
I9
sg19
I1
sg20
I40
sg21
I53
sg22
I3
sa(dp35
g17
g24
sg18
I10
sg19
I2
sg20
I36
sg21
I43
sg22
I21
sa(dp36
g17
g28
sg18
I11
sg19
I2
sg20
I40
sg21
I53
sg22
I49
sa(dp37
g17
g26
sg18
I12
sg19
I2
sg20
I12
sg21
I53
sg22
I24
sa(dp38
g17
g26
sg18
I13
sg19
I2
sg20
I32
sg21
I59
sg22
I31
sa(dp39
g17
g26
sg18
I14
sg19
I1
sg20
I46
sg21
I59
sg22
I3
sa(dp40
g17
g24
sg18
I15
sg19
I3
sg20
I21
sg21
I43
sg22
I56
sa(dp41
g17
g26
sg18
I16
sg19
I2
sg20
I27
sg21
I43
sg22
I21
sa(dp42
g17
g26
sg18
I17
sg19
I1
sg20
I39
sg21
I53
sg22
I3
sa(dp43
g17
g24
sg18
I18
sg19
I2
sg20
I35
sg21
I43
sg22
I21
sa(dp44
g17
g28
sg18
I19
sg19
I2
sg20
I40
sg21
I53
sg22
I49
sa(dp45
g17
g26
sg18
I20
sg19
I2
sg20
I34
sg21
I53
sg22
I24
sa(dp46
g17
g26
sg18
I21
sg19
I2
sg20
I40
sg21
I53
sg22
I31
sa(dp47
g17
g26
sg18
I22
sg19
I1
sg20
I28
sg21
I53
sg22
I3
sa(dp48
g17
g24
sg18
I23
sg19
I2
sg20
I29
sg21
I43
sg22
I21
sa(dp49
g17
g28
sg18
I24
sg19
I2
sg20
I40
sg21
I53
sg22
I22
sa(dp50
g17
g26
sg18
I25
sg19
I1
sg20
I41
sg21
I53
sg22
I3
sa(dp51
g17
g24
sg18
I26
sg19
I2
sg20
I37
sg21
I61
sg22
I30
sa(dp52
g17
g26
sg18
I27
sg19
I1
sg20
I51
sg21
I67
sg22
I10
sa(dp53
g17
g26
sg18
I28
sg19
I1
sg20
I56
sg21
I81
sg22
I9
sa(dp54
g17
g26
sg18
I29
sg19
I1
sg20
I58
sg21
I89
sg22
I22
sa(dp55
g17
g26
sg18
I30
sg19
I0
sg20
I73
sg21
I93
sg22
I0
satRp56
(dp57
S'log_header'
p58
I01
sS'header'
p59
(lp60
g18
ag21
ag19
ag22
ag20
ag17
asS'columns_len'
p61
NsS'buffindex'
p62
I0
sS'chapters'
p63
ccollections
defaultdict
p64
(g13
tRp65
sbsS'max_archive_size'
p66
NsS'solution_found_flag'
p67
I01
sS'time_taken'
p68
F318.59848093986511
sS'benchmark_name'
p69
S'D_A1'
p70
sa(dp71
S'tree_str'
p72
S'a1(a1(a1(a1(ARG0,a1(a1(ARG2,ARG0),a1(a1(ARG0,ARG2),ARG2))),a1(a1(ARG0,a1(a1(a1(a1(ARG1,ARG2),ARG0),a1(a1(ARG0,ARG2),ARG1)),a1(a1(ARG0,ARG0),a1(ARG0,ARG0)))),ARG0)),a1(a1(a1(a1(ARG1,ARG2),ARG0),a1(a1(a1(a1(ARG1,a1(ARG2,ARG2)),ARG2),ARG2),a1(ARG0,ARG1))),ARG1)),a1(a1(ARG1,ARG1),a1(ARG0,a1(a1(a1(ARG1,ARG1),a1(a1(ARG1,ARG2),a1(ARG0,a1(ARG0,ARG0)))),a1(a1(a1(ARG2,ARG2),a1(ARG1,ARG2)),a1(a1(ARG1,ARG2),a1(ARG0,ARG0)))))))'
p73
sS'tree_len'
p74
I93
sS'archive_size'
p75
I16945
sS'number_of_operators'
p76
I46
sS'alg_name'
p77
S'small-LTI'
p78
sS'archive_tree_deapth'
p79
I3
sS'logbook'
p80
g12
(g13
g14
(lp81
(dp82
S'status'
p83
NsS'iteration'
p84
I0
sS'count_wrongs'
p85
I6
sS'picked_node'
p86
NsS'len_master_tree'
p87
I1
sS'total_wrongs'
p88
I6
sa(dp89
g83
S'worst'
p90
sg84
I1
sg85
I8
sg86
I0
sg87
I11
sg88
I70
sa(dp91
g83
S'perfect'
p92
sg84
I2
sg85
I4
sg86
I4
sg87
I21
sg88
I20
sa(dp93
g83
S'better'
p94
sg84
I3
sg85
I4
sg86
I9
sg87
I25
sg88
I76
sa(dp95
g83
g92
sg84
I4
sg85
I4
sg86
I14
sg87
I33
sg88
I63
sa(dp96
g83
g92
sg84
I5
sg85
I3
sg86
I10
sg87
I35
sg88
I40
sa(dp97
g83
g92
sg84
I6
sg85
I2
sg86
I11
sg87
I43
sg88
I21
sa(dp98
g83
g92
sg84
I7
sg85
I1
sg86
I16
sg87
I53
sg88
I3
sa(dp99
g83
g90
sg84
I8
sg85
I2
sg86
I7
sg87
I43
sg88
I21
sa(dp100
g83
g92
sg84
I9
sg85
I1
sg86
I40
sg87
I53
sg88
I3
sa(dp101
g83
g90
sg84
I10
sg85
I2
sg86
I36
sg87
I43
sg88
I21
sa(dp102
g83
g94
sg84
I11
sg85
I2
sg86
I40
sg87
I53
sg88
I22
sa(dp103
g83
g92
sg84
I12
sg85
I1
sg86
I41
sg87
I53
sg88
I3
sa(dp104
g83
g90
sg84
I13
sg85
I2
sg86
I37
sg87
I61
sg88
I30
sa(dp105
g83
g92
sg84
I14
sg85
I1
sg86
I50
sg87
I67
sg88
I10
sa(dp106
g83
g92
sg84
I15
sg85
I1
sg86
I56
sg87
I81
sg88
I9
sa(dp107
g83
g92
sg84
I16
sg85
I1
sg86
I58
sg87
I89
sg88
I22
sa(dp108
g83
g92
sg84
I17
sg85
I0
sg86
I73
sg87
I93
sg88
I0
satRp109
(dp110
g58
I01
sg59
(lp111
g84
ag87
ag85
ag88
ag86
ag83
asg61
Nsg62
I0
sg63
g64
(g13
tRp112
sbsS'max_archive_size'
p113
NsS'solution_found_flag'
p114
I01
sS'time_taken'
p115
F294.18638706207275
sS'benchmark_name'
p116
S'D_A1'
p117
sa(dp118
S'tree_str'
p119
S'a1(a1(a1(a1(ARG0,a1(a1(a1(ARG2,ARG2),a1(ARG2,ARG2)),a1(a1(ARG0,ARG0),a1(ARG0,ARG0)))),a1(a1(ARG0,a1(a1(a1(ARG0,ARG0),a1(ARG2,ARG0)),a1(a1(ARG0,ARG0),a1(a1(ARG2,a1(ARG2,ARG1)),a1(ARG2,a1(ARG1,ARG0)))))),ARG0)),a1(a1(ARG1,a1(a1(ARG2,a1(ARG0,a1(a1(a1(ARG1,ARG0),ARG0),ARG2))),a1(a1(ARG2,ARG2),a1(ARG0,a1(ARG0,ARG2))))),ARG1)),a1(a1(ARG1,ARG1),a1(ARG0,a1(a1(a1(ARG1,ARG1),a1(a1(ARG1,ARG2),a1(ARG0,a1(ARG0,ARG0)))),a1(a1(a1(ARG2,ARG2),a1(ARG1,ARG2)),a1(a1(ARG1,ARG2),a1(ARG0,ARG0)))))))'
p120
sS'tree_len'
p121
I107
sS'archive_size'
p122
I16945
sS'number_of_operators'
p123
I53
sS'alg_name'
p124
S'small-LTI'
p125
sS'archive_tree_deapth'
p126
I3
sS'logbook'
p127
g12
(g13
g14
(lp128
(dp129
S'status'
p130
NsS'iteration'
p131
I0
sS'count_wrongs'
p132
I6
sS'picked_node'
p133
NsS'len_master_tree'
p134
I1
sS'total_wrongs'
p135
I6
sa(dp136
g130
S'worst'
p137
sg131
I1
sg132
I8
sg133
I0
sg134
I11
sg135
I70
sa(dp138
g130
S'perfect'
p139
sg131
I2
sg132
I4
sg133
I4
sg134
I21
sg135
I20
sa(dp140
g130
S'better'
p141
sg131
I3
sg132
I4
sg133
I9
sg134
I25
sg135
I76
sa(dp142
g130
g139
sg131
I4
sg132
I4
sg133
I14
sg134
I33
sg135
I63
sa(dp143
g130
g139
sg131
I5
sg132
I3
sg133
I10
sg134
I35
sg135
I40
sa(dp144
g130
g139
sg131
I6
sg132
I2
sg133
I11
sg134
I43
sg135
I21
sa(dp145
g130
g139
sg131
I7
sg132
I1
sg133
I16
sg134
I53
sg135
I3
sa(dp146
g130
g137
sg131
I8
sg132
I2
sg133
I7
sg134
I43
sg135
I21
sa(dp147
g130
g139
sg131
I9
sg132
I1
sg133
I40
sg134
I53
sg135
I3
sa(dp148
g130
g137
sg131
I10
sg132
I2
sg133
I36
sg134
I43
sg135
I21
sa(dp149
g130
g141
sg131
I11
sg132
I2
sg133
I42
sg134
I53
sg135
I24
sa(dp150
g130
g139
sg131
I12
sg132
I1
sg133
I52
sg134
I55
sg135
I3
sa(dp151
g130
g137
sg131
I13
sg132
I3
sg133
I37
sg134
I63
sg135
I51
sa(dp152
g130
g139
sg131
I14
sg132
I3
sg133
I52
sg134
I67
sg135
I48
sa(dp153
g130
g139
sg131
I15
sg132
I1
sg133
I42
sg134
I71
sg135
I10
sa(dp154
g130
g139
sg131
I16
sg132
I1
sg133
I53
sg134
I85
sg135
I9
sa(dp155
g130
g139
sg131
I17
sg132
I1
sg133
I55
sg134
I99
sg135
I22
sa(dp156
g130
g139
sg131
I18
sg132
I0
sg133
I71
sg134
I107
sg135
I0
satRp157
(dp158
g58
I01
sg59
(lp159
g131
ag134
ag132
ag135
ag133
ag130
asg61
Nsg62
I0
sg63
g64
(g13
tRp160
sbsS'max_archive_size'
p161
NsS'solution_found_flag'
p162
I01
sS'time_taken'
p163
F282.89483499526978
sS'benchmark_name'
p164
S'D_A1'
p165
sa(dp166
S'tree_str'
p167
S'a1(a1(a1(a1(ARG0,a1(a1(ARG2,ARG0),a1(a1(ARG0,ARG2),ARG2))),a1(a1(ARG0,a1(a1(a1(a1(ARG1,ARG2),ARG0),a1(a1(ARG0,ARG2),ARG1)),a1(a1(ARG0,ARG0),a1(ARG0,ARG0)))),ARG0)),a1(a1(a1(a1(ARG1,ARG2),ARG0),a1(a1(ARG1,a1(a1(a1(ARG2,ARG1),ARG1),ARG1)),a1(ARG0,ARG1))),ARG1)),a1(a1(ARG1,ARG1),a1(ARG0,a1(a1(a1(ARG1,ARG1),a1(a1(ARG1,ARG2),a1(ARG0,a1(ARG0,ARG0)))),a1(a1(a1(ARG2,ARG2),a1(ARG1,ARG2)),a1(a1(ARG1,ARG2),a1(ARG0,ARG0)))))))'
p168
sS'tree_len'
p169
I93
sS'archive_size'
p170
I16945
sS'number_of_operators'
p171
I46
sS'alg_name'
p172
S'small-LTI'
p173
sS'archive_tree_deapth'
p174
I3
sS'logbook'
p175
g12
(g13
g14
(lp176
(dp177
S'status'
p178
NsS'iteration'
p179
I0
sS'count_wrongs'
p180
I6
sS'picked_node'
p181
NsS'len_master_tree'
p182
I1
sS'total_wrongs'
p183
I6
sa(dp184
g178
S'worst'
p185
sg179
I1
sg180
I8
sg181
I0
sg182
I11
sg183
I70
sa(dp186
g178
S'perfect'
p187
sg179
I2
sg180
I4
sg181
I4
sg182
I21
sg183
I20
sa(dp188
g178
S'better'
p189
sg179
I3
sg180
I4
sg181
I9
sg182
I25
sg183
I76
sa(dp190
g178
g187
sg179
I4
sg180
I4
sg181
I14
sg182
I33
sg183
I63
sa(dp191
g178
g187
sg179
I5
sg180
I3
sg181
I10
sg182
I35
sg183
I40
sa(dp192
g178
g187
sg179
I6
sg180
I2
sg181
I11
sg182
I43
sg183
I21
sa(dp193
g178
g187
sg179
I7
sg180
I1
sg181
I16
sg182
I53
sg183
I3
sa(dp194
g178
g185
sg179
I8
sg180
I2
sg181
I7
sg182
I43
sg183
I21
sa(dp195
g178
g187
sg179
I9
sg180
I1
sg181
I40
sg182
I53
sg183
I3
sa(dp196
g178
g185
sg179
I10
sg180
I2
sg181
I36
sg182
I43
sg183
I21
sa(dp197
g178
g189
sg179
I11
sg180
I2
sg181
I40
sg182
I53
sg183
I49
sa(dp198
g178
g187
sg179
I12
sg180
I2
sg181
I23
sg182
I53
sg183
I24
sa(dp199
g178
g187
sg179
I13
sg180
I2
sg181
I40
sg182
I53
sg183
I31
sa(dp200
g178
g187
sg179
I14
sg180
I1
sg181
I12
sg182
I53
sg183
I3
sa(dp201
g178
g185
sg179
I15
sg180
I2
sg181
I21
sg182
I43
sg183
I21
sa(dp202
g178
g189
sg179
I16
sg180
I2
sg181
I40
sg182
I53
sg183
I22
sa(dp203
g178
g187
sg179
I17
sg180
I1
sg181
I41
sg182
I53
sg183
I3
sa(dp204
g178
g185
sg179
I18
sg180
I2
sg181
I37
sg182
I61
sg183
I30
sa(dp205
g178
g187
sg179
I19
sg180
I1
sg181
I51
sg182
I67
sg183
I10
sa(dp206
g178
g187
sg179
I20
sg180
I1
sg181
I56
sg182
I81
sg183
I9
sa(dp207
g178
g187
sg179
I21
sg180
I1
sg181
I58
sg182
I89
sg183
I22
sa(dp208
g178
g187
sg179
I22
sg180
I0
sg181
I73
sg182
I93
sg183
I0
satRp209
(dp210
g58
I01
sg59
(lp211
g179
ag182
ag180
ag183
ag181
ag178
asg61
Nsg62
I0
sg63
g64
(g13
tRp212
sbsS'max_archive_size'
p213
NsS'solution_found_flag'
p214
I01
sS'time_taken'
p215
F311.94999980926514
sS'benchmark_name'
p216
S'D_A1'
p217
sa(dp218
S'tree_str'
p219
S'a1(a1(a1(a1(ARG0,a1(a1(ARG2,ARG0),a1(a1(ARG0,ARG2),ARG2))),a1(a1(ARG0,a1(a1(a1(a1(ARG1,ARG2),ARG0),a1(a1(ARG0,ARG2),ARG1)),a1(a1(ARG0,ARG0),a1(ARG0,ARG0)))),ARG0)),a1(a1(a1(a1(ARG1,ARG2),ARG0),a1(a1(a1(a1(ARG1,a1(ARG2,ARG2)),ARG2),ARG2),a1(ARG0,ARG1))),ARG1)),a1(a1(ARG1,ARG1),a1(ARG0,a1(a1(a1(ARG1,ARG1),a1(a1(ARG1,ARG2),a1(ARG0,a1(ARG0,ARG0)))),a1(a1(a1(ARG2,ARG2),a1(ARG1,ARG2)),a1(a1(ARG1,ARG2),a1(ARG0,ARG0)))))))'
p220
sS'tree_len'
p221
I93
sS'archive_size'
p222
I16945
sS'number_of_operators'
p223
I46
sS'alg_name'
p224
S'small-LTI'
p225
sS'archive_tree_deapth'
p226
I3
sS'logbook'
p227
g12
(g13
g14
(lp228
(dp229
S'status'
p230
NsS'iteration'
p231
I0
sS'count_wrongs'
p232
I6
sS'picked_node'
p233
NsS'len_master_tree'
p234
I1
sS'total_wrongs'
p235
I6
sa(dp236
g230
S'worst'
p237
sg231
I1
sg232
I8
sg233
I0
sg234
I11
sg235
I70
sa(dp238
g230
S'perfect'
p239
sg231
I2
sg232
I4
sg233
I4
sg234
I21
sg235
I20
sa(dp240
g230
S'better'
p241
sg231
I3
sg232
I4
sg233
I9
sg234
I25
sg235
I76
sa(dp242
g230
g239
sg231
I4
sg232
I4
sg233
I14
sg234
I33
sg235
I63
sa(dp243
g230
g239
sg231
I5
sg232
I3
sg233
I10
sg234
I35
sg235
I40
sa(dp244
g230
g239
sg231
I6
sg232
I2
sg233
I11
sg234
I43
sg235
I21
sa(dp245
g230
g239
sg231
I7
sg232
I1
sg233
I16
sg234
I53
sg235
I3
sa(dp246
g230
g237
sg231
I8
sg232
I2
sg233
I7
sg234
I43
sg235
I21
sa(dp247
g230
g239
sg231
I9
sg232
I1
sg233
I40
sg234
I53
sg235
I3
sa(dp248
g230
g237
sg231
I10
sg232
I2
sg233
I36
sg234
I43
sg235
I21
sa(dp249
g230
g241
sg231
I11
sg232
I2
sg233
I40
sg234
I53
sg235
I49
sa(dp250
g230
g239
sg231
I12
sg232
I2
sg233
I20
sg234
I53
sg235
I24
sa(dp251
g230
g239
sg231
I13
sg232
I2
sg233
I33
sg234
I53
sg235
I31
sa(dp252
g230
g239
sg231
I14
sg232
I1
sg233
I33
sg234
I53
sg235
I3
sa(dp253
g230
g237
sg231
I15
sg232
I2
sg233
I29
sg234
I43
sg235
I21
sa(dp254
g230
g241
sg231
I16
sg232
I2
sg233
I40
sg234
I53
sg235
I22
sa(dp255
g230
g239
sg231
I17
sg232
I1
sg233
I41
sg234
I53
sg235
I3
sa(dp256
g230
g237
sg231
I18
sg232
I2
sg233
I37
sg234
I61
sg235
I30
sa(dp257
g230
g239
sg231
I19
sg232
I1
sg233
I50
sg234
I67
sg235
I10
sa(dp258
g230
g239
sg231
I20
sg232
I1
sg233
I56
sg234
I81
sg235
I9
sa(dp259
g230
g239
sg231
I21
sg232
I1
sg233
I58
sg234
I89
sg235
I22
sa(dp260
g230
g239
sg231
I22
sg232
I0
sg233
I73
sg234
I93
sg235
I0
satRp261
(dp262
g58
I01
sg59
(lp263
g231
ag234
ag232
ag235
ag233
ag230
asg61
Nsg62
I0
sg63
g64
(g13
tRp264
sbsS'max_archive_size'
p265
NsS'solution_found_flag'
p266
I01
sS'time_taken'
p267
F294.17550015449524
sS'benchmark_name'
p268
S'D_A1'
p269
sa(dp270
S'tree_str'
p271
S'a1(a1(a1(a1(ARG0,a1(a1(ARG2,ARG0),a1(a1(ARG0,ARG2),ARG2))),a1(a1(ARG0,a1(a1(a1(a1(ARG1,ARG2),ARG0),a1(a1(ARG0,ARG2),ARG1)),a1(a1(ARG0,ARG0),a1(ARG0,ARG0)))),ARG0)),a1(a1(a1(a1(ARG1,ARG2),ARG0),a1(a1(ARG1,a1(a1(a1(ARG2,ARG1),ARG1),ARG1)),a1(ARG0,ARG1))),ARG1)),a1(a1(ARG1,ARG1),a1(ARG0,a1(a1(a1(ARG1,ARG1),a1(a1(ARG1,ARG2),a1(ARG0,a1(ARG0,ARG0)))),a1(a1(a1(ARG2,ARG2),a1(ARG1,ARG2)),a1(a1(ARG1,ARG2),a1(ARG0,ARG0)))))))'
p272
sS'tree_len'
p273
I93
sS'archive_size'
p274
I16945
sS'number_of_operators'
p275
I46
sS'alg_name'
p276
S'small-LTI'
p277
sS'archive_tree_deapth'
p278
I3
sS'logbook'
p279
g12
(g13
g14
(lp280
(dp281
S'status'
p282
NsS'iteration'
p283
I0
sS'count_wrongs'
p284
I6
sS'picked_node'
p285
NsS'len_master_tree'
p286
I1
sS'total_wrongs'
p287
I6
sa(dp288
g282
S'worst'
p289
sg283
I1
sg284
I8
sg285
I0
sg286
I11
sg287
I70
sa(dp290
g282
S'perfect'
p291
sg283
I2
sg284
I4
sg285
I4
sg286
I21
sg287
I20
sa(dp292
g282
S'better'
p293
sg283
I3
sg284
I4
sg285
I9
sg286
I25
sg287
I76
sa(dp294
g282
g291
sg283
I4
sg284
I4
sg285
I14
sg286
I33
sg287
I63
sa(dp295
g282
g291
sg283
I5
sg284
I3
sg285
I10
sg286
I35
sg287
I40
sa(dp296
g282
g291
sg283
I6
sg284
I2
sg285
I11
sg286
I43
sg287
I21
sa(dp297
g282
g291
sg283
I7
sg284
I1
sg285
I16
sg286
I53
sg287
I3
sa(dp298
g282
g289
sg283
I8
sg284
I2
sg285
I7
sg286
I43
sg287
I21
sa(dp299
g282
g291
sg283
I9
sg284
I1
sg285
I40
sg286
I53
sg287
I3
sa(dp300
g282
g289
sg283
I10
sg284
I2
sg285
I36
sg286
I43
sg287
I21
sa(dp301
g282
g293
sg283
I11
sg284
I2
sg285
I40
sg286
I53
sg287
I49
sa(dp302
g282
g291
sg283
I12
sg284
I2
sg285
I12
sg286
I53
sg287
I24
sa(dp303
g282
g291
sg283
I13
sg284
I2
sg285
I26
sg286
I53
sg287
I31
sa(dp304
g282
g291
sg283
I14
sg284
I1
sg285
I40
sg286
I53
sg287
I3
sa(dp305
g282
g289
sg283
I15
sg284
I2
sg285
I21
sg286
I43
sg287
I21
sa(dp306
g282
g293
sg283
I16
sg284
I2
sg285
I40
sg286
I53
sg287
I22
sa(dp307
g282
g291
sg283
I17
sg284
I1
sg285
I41
sg286
I53
sg287
I3
sa(dp308
g282
g289
sg283
I18
sg284
I2
sg285
I37
sg286
I61
sg287
I30
sa(dp309
g282
g291
sg283
I19
sg284
I1
sg285
I51
sg286
I67
sg287
I10
sa(dp310
g282
g291
sg283
I20
sg284
I1
sg285
I56
sg286
I81
sg287
I9
sa(dp311
g282
g291
sg283
I21
sg284
I1
sg285
I58
sg286
I89
sg287
I22
sa(dp312
g282
g291
sg283
I22
sg284
I0
sg285
I73
sg286
I93
sg287
I0
satRp313
(dp314
g58
I01
sg59
(lp315
g283
ag286
ag284
ag287
ag285
ag282
asg61
Nsg62
I0
sg63
g64
(g13
tRp316
sbsS'max_archive_size'
p317
NsS'solution_found_flag'
p318
I01
sS'time_taken'
p319
F309.41235709190369
sS'benchmark_name'
p320
S'D_A1'
p321
sa(dp322
S'tree_str'
p323
S'a1(a1(a1(a1(ARG0,a1(a1(ARG2,ARG0),a1(a1(ARG0,ARG2),ARG2))),a1(a1(ARG0,a1(a1(a1(a1(ARG1,ARG2),ARG0),a1(a1(ARG0,ARG2),ARG1)),a1(a1(ARG0,ARG0),a1(ARG0,ARG0)))),ARG0)),a1(a1(a1(a1(ARG1,ARG2),ARG0),a1(a1(ARG1,a1(a1(a1(ARG2,ARG1),ARG1),ARG1)),a1(ARG0,ARG1))),ARG1)),a1(a1(ARG1,ARG1),a1(ARG0,a1(a1(a1(ARG1,ARG1),a1(a1(ARG1,ARG2),a1(ARG0,a1(ARG0,ARG0)))),a1(a1(a1(ARG2,ARG2),a1(ARG1,ARG2)),a1(a1(ARG1,ARG2),a1(ARG0,ARG0)))))))'
p324
sS'tree_len'
p325
I93
sS'archive_size'
p326
I16945
sS'number_of_operators'
p327
I46
sS'alg_name'
p328
S'small-LTI'
p329
sS'archive_tree_deapth'
p330
I3
sS'logbook'
p331
g12
(g13
g14
(lp332
(dp333
S'status'
p334
NsS'iteration'
p335
I0
sS'count_wrongs'
p336
I6
sS'picked_node'
p337
NsS'len_master_tree'
p338
I1
sS'total_wrongs'
p339
I6
sa(dp340
g334
S'worst'
p341
sg335
I1
sg336
I8
sg337
I0
sg338
I11
sg339
I70
sa(dp342
g334
S'perfect'
p343
sg335
I2
sg336
I4
sg337
I4
sg338
I21
sg339
I20
sa(dp344
g334
S'better'
p345
sg335
I3
sg336
I4
sg337
I9
sg338
I25
sg339
I76
sa(dp346
g334
g343
sg335
I4
sg336
I4
sg337
I14
sg338
I33
sg339
I63
sa(dp347
g334
g343
sg335
I5
sg336
I3
sg337
I10
sg338
I35
sg339
I40
sa(dp348
g334
g343
sg335
I6
sg336
I2
sg337
I11
sg338
I43
sg339
I21
sa(dp349
g334
g343
sg335
I7
sg336
I1
sg337
I16
sg338
I53
sg339
I3
sa(dp350
g334
g341
sg335
I8
sg336
I2
sg337
I7
sg338
I43
sg339
I21
sa(dp351
g334
g343
sg335
I9
sg336
I1
sg337
I40
sg338
I53
sg339
I3
sa(dp352
g334
g341
sg335
I10
sg336
I2
sg337
I36
sg338
I43
sg339
I21
sa(dp353
g334
g345
sg335
I11
sg336
I2
sg337
I40
sg338
I53
sg339
I49
sa(dp354
g334
g343
sg335
I12
sg336
I2
sg337
I12
sg338
I53
sg339
I24
sa(dp355
g334
g343
sg335
I13
sg336
I2
sg337
I26
sg338
I53
sg339
I31
sa(dp356
g334
g343
sg335
I14
sg336
I1
sg337
I39
sg338
I53
sg339
I3
sa(dp357
g334
g341
sg335
I15
sg336
I2
sg337
I21
sg338
I43
sg339
I21
sa(dp358
g334
g345
sg335
I16
sg336
I2
sg337
I40
sg338
I53
sg339
I49
sa(dp359
g334
g343
sg335
I17
sg336
I1
sg337
I41
sg338
I53
sg339
I3
sa(dp360
g334
g341
sg335
I18
sg336
I2
sg337
I37
sg338
I61
sg339
I30
sa(dp361
g334
g343
sg335
I19
sg336
I1
sg337
I51
sg338
I67
sg339
I10
sa(dp362
g334
g343
sg335
I20
sg336
I1
sg337
I56
sg338
I81
sg339
I9
sa(dp363
g334
g343
sg335
I21
sg336
I1
sg337
I58
sg338
I89
sg339
I22
sa(dp364
g334
g343
sg335
I22
sg336
I0
sg337
I73
sg338
I93
sg339
I0
satRp365
(dp366
g58
I01
sg59
(lp367
g335
ag338
ag336
ag339
ag337
ag334
asg61
Nsg62
I0
sg63
g64
(g13
tRp368
sbsS'max_archive_size'
p369
NsS'solution_found_flag'
p370
I01
sS'time_taken'
p371
F296.41526484489441
sS'benchmark_name'
p372
S'D_A1'
p373
sa(dp374
S'tree_str'
p375
S'a1(a1(a1(a1(ARG0,a1(a1(a1(ARG2,ARG2),a1(ARG2,ARG2)),a1(a1(ARG0,ARG0),a1(ARG0,ARG0)))),a1(a1(ARG0,a1(a1(a1(ARG0,ARG0),a1(ARG2,ARG0)),a1(a1(ARG0,ARG0),a1(a1(ARG2,a1(ARG2,ARG1)),a1(ARG2,a1(ARG1,ARG0)))))),ARG0)),a1(a1(ARG1,a1(a1(a1(a1(ARG0,ARG1),a1(ARG1,ARG2)),ARG2),a1(ARG2,a1(ARG0,ARG2)))),ARG1)),a1(a1(ARG1,ARG1),a1(ARG0,a1(a1(a1(ARG1,ARG1),a1(a1(ARG1,ARG2),a1(ARG0,a1(ARG0,ARG0)))),a1(a1(a1(ARG2,ARG2),a1(ARG1,ARG2)),a1(a1(ARG1,ARG2),a1(ARG0,ARG0)))))))'
p376
sS'tree_len'
p377
I101
sS'archive_size'
p378
I16945
sS'number_of_operators'
p379
I50
sS'alg_name'
p380
S'small-LTI'
p381
sS'archive_tree_deapth'
p382
I3
sS'logbook'
p383
g12
(g13
g14
(lp384
(dp385
S'status'
p386
NsS'iteration'
p387
I0
sS'count_wrongs'
p388
I6
sS'picked_node'
p389
NsS'len_master_tree'
p390
I1
sS'total_wrongs'
p391
I6
sa(dp392
g386
S'worst'
p393
sg387
I1
sg388
I8
sg389
I0
sg390
I11
sg391
I70
sa(dp394
g386
S'perfect'
p395
sg387
I2
sg388
I4
sg389
I4
sg390
I21
sg391
I20
sa(dp396
g386
S'better'
p397
sg387
I3
sg388
I4
sg389
I9
sg390
I25
sg391
I76
sa(dp398
g386
g395
sg387
I4
sg388
I4
sg389
I14
sg390
I33
sg391
I63
sa(dp399
g386
g395
sg387
I5
sg388
I3
sg389
I10
sg390
I35
sg391
I40
sa(dp400
g386
g395
sg387
I6
sg388
I2
sg389
I11
sg390
I43
sg391
I21
sa(dp401
g386
g395
sg387
I7
sg388
I1
sg389
I16
sg390
I53
sg391
I3
sa(dp402
g386
g393
sg387
I8
sg388
I2
sg389
I7
sg390
I43
sg391
I21
sa(dp403
g386
g395
sg387
I9
sg388
I1
sg389
I40
sg390
I53
sg391
I3
sa(dp404
g386
g393
sg387
I10
sg388
I2
sg389
I36
sg390
I43
sg391
I21
sa(dp405
g386
g397
sg387
I11
sg388
I2
sg389
I42
sg390
I53
sg391
I25
sa(dp406
g386
g395
sg387
I12
sg388
I1
sg389
I48
sg390
I55
sg391
I3
sa(dp407
g386
g393
sg387
I13
sg388
I2
sg389
I37
sg390
I63
sg391
I31
sa(dp408
g386
g395
sg387
I14
sg388
I1
sg389
I47
sg390
I65
sg391
I10
sa(dp409
g386
g395
sg387
I15
sg388
I1
sg389
I52
sg390
I79
sg391
I9
sa(dp410
g386
g395
sg387
I16
sg388
I1
sg389
I54
sg390
I93
sg391
I22
sa(dp411
g386
g395
sg387
I17
sg388
I0
sg389
I65
sg390
I101
sg391
I0
satRp412
(dp413
g58
I01
sg59
(lp414
g387
ag390
ag388
ag391
ag389
ag386
asg61
Nsg62
I0
sg63
g64
(g13
tRp415
sbsS'max_archive_size'
p416
NsS'solution_found_flag'
p417
I01
sS'time_taken'
p418
F276.37659597396851
sS'benchmark_name'
p419
S'D_A1'
p420
sa(dp421
S'tree_str'
p422
S'a1(a1(a1(a1(ARG0,a1(a1(ARG2,ARG0),a1(a1(ARG0,ARG2),ARG2))),a1(a1(a1(a1(ARG0,ARG2),ARG0),a1(a1(ARG2,ARG0),ARG1)),ARG0)),a1(a1(a1(a1(ARG1,ARG2),ARG0),a1(a1(ARG0,ARG0),a1(ARG1,ARG2))),ARG1)),a1(a1(ARG1,ARG1),a1(a1(a1(a1(ARG1,ARG1),a1(ARG1,ARG1)),a1(a1(ARG0,ARG0),a1(ARG1,ARG1))),a1(a1(a1(ARG1,ARG1),a1(a1(ARG1,ARG2),a1(ARG0,a1(ARG0,ARG0)))),a1(a1(a1(ARG2,ARG2),a1(ARG1,ARG2)),a1(a1(ARG0,ARG2),a1(ARG0,ARG1)))))))'
p423
sS'tree_len'
p424
I91
sS'archive_size'
p425
I16945
sS'number_of_operators'
p426
I45
sS'alg_name'
p427
S'small-LTI'
p428
sS'archive_tree_deapth'
p429
I3
sS'logbook'
p430
g12
(g13
g14
(lp431
(dp432
S'status'
p433
NsS'iteration'
p434
I0
sS'count_wrongs'
p435
I6
sS'picked_node'
p436
NsS'len_master_tree'
p437
I1
sS'total_wrongs'
p438
I6
sa(dp439
g433
S'worst'
p440
sg434
I1
sg435
I8
sg436
I0
sg437
I11
sg438
I70
sa(dp441
g433
S'perfect'
p442
sg434
I2
sg435
I4
sg436
I4
sg437
I21
sg438
I20
sa(dp443
g433
S'better'
p444
sg434
I3
sg435
I4
sg436
I9
sg437
I25
sg438
I76
sa(dp445
g433
g442
sg434
I4
sg435
I4
sg436
I14
sg437
I33
sg438
I63
sa(dp446
g433
g442
sg434
I5
sg435
I3
sg436
I10
sg437
I35
sg438
I40
sa(dp447
g433
g442
sg434
I6
sg435
I2
sg436
I11
sg437
I43
sg438
I21
sa(dp448
g433
g442
sg434
I7
sg435
I1
sg436
I16
sg437
I53
sg438
I3
sa(dp449
g433
g440
sg434
I8
sg435
I2
sg436
I7
sg437
I43
sg438
I21
sa(dp450
g433
g442
sg434
I9
sg435
I1
sg436
I40
sg437
I53
sg438
I3
sa(dp451
g433
g440
sg434
I10
sg435
I2
sg436
I36
sg437
I43
sg438
I21
sa(dp452
g433
g444
sg434
I11
sg435
I2
sg436
I40
sg437
I53
sg438
I49
sa(dp453
g433
g442
sg434
I12
sg435
I2
sg436
I12
sg437
I53
sg438
I24
sa(dp454
g433
g442
sg434
I13
sg435
I2
sg436
I32
sg437
I59
sg438
I31
sa(dp455
g433
g442
sg434
I14
sg435
I1
sg436
I46
sg437
I59
sg438
I3
sa(dp456
g433
g440
sg434
I15
sg435
I3
sg436
I21
sg437
I43
sg438
I56
sa(dp457
g433
g442
sg434
I16
sg435
I2
sg436
I25
sg437
I43
sg438
I21
sa(dp458
g433
g442
sg434
I17
sg435
I1
sg436
I39
sg437
I53
sg438
I3
sa(dp459
g433
g440
sg434
I18
sg435
I2
sg436
I35
sg437
I43
sg438
I21
sa(dp460
g433
g442
sg434
I19
sg435
I1
sg436
I3
sg437
I57
sg438
I8
sa(dp461
g433
g442
sg434
I20
sg435
I1
sg436
I39
sg437
I67
sg438
I3
sa(dp462
g433
g440
sg434
I21
sg435
I2
sg436
I36
sg437
I75
sg438
I30
sa(dp463
g433
g442
sg434
I22
sg435
I1
sg436
I53
sg437
I75
sg438
I10
sa(dp464
g433
g442
sg434
I23
sg435
I1
sg436
I58
sg437
I89
sg438
I9
sa(dp465
g433
g442
sg434
I24
sg435
I1
sg436
I60
sg437
I97
sg438
I22
sa(dp466
g433
g442
sg434
I25
sg435
I0
sg436
I56
sg437
I91
sg438
I0
satRp467
(dp468
g58
I01
sg59
(lp469
g434
ag437
ag435
ag438
ag436
ag433
asg61
Nsg62
I0
sg63
g64
(g13
tRp470
sbsS'max_archive_size'
p471
NsS'solution_found_flag'
p472
I01
sS'time_taken'
p473
F319.10544395446777
sS'benchmark_name'
p474
S'D_A1'
p475
sa(dp476
S'tree_str'
p477
S'a1(a1(a1(a1(ARG0,a1(a1(ARG2,ARG0),a1(a1(ARG0,ARG2),ARG2))),a1(a1(ARG0,a1(a1(a1(a1(ARG1,ARG2),ARG0),a1(a1(ARG0,ARG2),ARG1)),a1(a1(ARG0,ARG0),a1(ARG0,ARG0)))),ARG0)),a1(a1(a1(a1(ARG1,ARG2),ARG0),a1(a1(a1(a1(ARG1,a1(ARG2,ARG2)),ARG2),ARG2),a1(ARG0,ARG1))),ARG1)),a1(a1(ARG1,ARG1),a1(ARG0,a1(a1(a1(ARG1,ARG1),a1(a1(ARG1,ARG2),a1(ARG0,a1(ARG0,ARG0)))),a1(a1(a1(ARG2,ARG2),a1(ARG1,ARG2)),a1(a1(ARG1,ARG2),a1(ARG0,ARG0)))))))'
p478
sS'tree_len'
p479
I93
sS'archive_size'
p480
I16945
sS'number_of_operators'
p481
I46
sS'alg_name'
p482
S'small-LTI'
p483
sS'archive_tree_deapth'
p484
I3
sS'logbook'
p485
g12
(g13
g14
(lp486
(dp487
S'status'
p488
NsS'iteration'
p489
I0
sS'count_wrongs'
p490
I6
sS'picked_node'
p491
NsS'len_master_tree'
p492
I1
sS'total_wrongs'
p493
I6
sa(dp494
g488
S'worst'
p495
sg489
I1
sg490
I8
sg491
I0
sg492
I11
sg493
I70
sa(dp496
g488
S'perfect'
p497
sg489
I2
sg490
I4
sg491
I4
sg492
I21
sg493
I20
sa(dp498
g488
S'better'
p499
sg489
I3
sg490
I4
sg491
I9
sg492
I25
sg493
I76
sa(dp500
g488
g497
sg489
I4
sg490
I4
sg491
I14
sg492
I33
sg493
I63
sa(dp501
g488
g497
sg489
I5
sg490
I3
sg491
I10
sg492
I35
sg493
I40
sa(dp502
g488
g497
sg489
I6
sg490
I2
sg491
I11
sg492
I43
sg493
I21
sa(dp503
g488
g497
sg489
I7
sg490
I1
sg491
I16
sg492
I53
sg493
I3
sa(dp504
g488
g495
sg489
I8
sg490
I2
sg491
I7
sg492
I43
sg493
I21
sa(dp505
g488
g497
sg489
I9
sg490
I1
sg491
I40
sg492
I53
sg493
I3
sa(dp506
g488
g495
sg489
I10
sg490
I2
sg491
I36
sg492
I43
sg493
I21
sa(dp507
g488
g499
sg489
I11
sg490
I2
sg491
I40
sg492
I53
sg493
I49
sa(dp508
g488
g497
sg489
I12
sg490
I2
sg491
I20
sg492
I53
sg493
I24
sa(dp509
g488
g497
sg489
I13
sg490
I2
sg491
I33
sg492
I53
sg493
I31
sa(dp510
g488
g497
sg489
I14
sg490
I1
sg491
I33
sg492
I53
sg493
I3
sa(dp511
g488
g495
sg489
I15
sg490
I2
sg491
I29
sg492
I43
sg493
I21
sa(dp512
g488
g499
sg489
I16
sg490
I2
sg491
I40
sg492
I53
sg493
I49
sa(dp513
g488
g497
sg489
I17
sg490
I2
sg491
I30
sg492
I53
sg493
I24
sa(dp514
g488
g497
sg489
I18
sg490
I2
sg491
I37
sg492
I53
sg493
I31
sa(dp515
g488
g497
sg489
I19
sg490
I1
sg491
I12
sg492
I53
sg493
I3
sa(dp516
g488
g495
sg489
I20
sg490
I2
sg491
I21
sg492
I43
sg493
I21
sa(dp517
g488
g499
sg489
I21
sg490
I2
sg491
I40
sg492
I53
sg493
I22
sa(dp518
g488
g497
sg489
I22
sg490
I1
sg491
I41
sg492
I53
sg493
I3
sa(dp519
g488
g495
sg489
I23
sg490
I2
sg491
I37
sg492
I61
sg493
I30
sa(dp520
g488
g497
sg489
I24
sg490
I1
sg491
I50
sg492
I67
sg493
I10
sa(dp521
g488
g497
sg489
I25
sg490
I1
sg491
I56
sg492
I81
sg493
I9
sa(dp522
g488
g497
sg489
I26
sg490
I1
sg491
I58
sg492
I89
sg493
I22
sa(dp523
g488
g497
sg489
I27
sg490
I0
sg491
I73
sg492
I93
sg493
I0
satRp524
(dp525
g58
I01
sg59
(lp526
g489
ag492
ag490
ag493
ag491
ag488
asg61
Nsg62
I0
sg63
g64
(g13
tRp527
sbsS'max_archive_size'
p528
NsS'solution_found_flag'
p529
I01
sS'time_taken'
p530
F325.58432602882385
sS'benchmark_name'
p531
S'D_A1'
p532
sa(dp533
S'tree_str'
p534
S'a1(a1(a1(a1(ARG0,a1(a1(a1(ARG2,ARG2),a1(ARG2,ARG2)),a1(a1(ARG0,ARG0),a1(ARG0,ARG0)))),a1(a1(ARG0,a1(a1(a1(ARG0,ARG0),a1(ARG2,ARG0)),a1(a1(ARG0,ARG0),a1(a1(ARG2,a1(ARG2,ARG1)),a1(ARG2,a1(ARG1,ARG0)))))),ARG0)),a1(a1(ARG1,a1(a1(a1(a1(ARG0,ARG1),a1(ARG1,ARG2)),ARG2),a1(ARG2,a1(ARG0,ARG2)))),ARG1)),a1(a1(ARG1,ARG1),a1(ARG0,a1(a1(a1(ARG1,ARG1),a1(a1(ARG1,ARG2),a1(ARG0,a1(ARG0,ARG0)))),a1(a1(a1(ARG2,ARG2),a1(ARG1,ARG2)),a1(a1(ARG1,ARG2),a1(ARG0,ARG0)))))))'
p535
sS'tree_len'
p536
I101
sS'archive_size'
p537
I16945
sS'number_of_operators'
p538
I50
sS'alg_name'
p539
S'small-LTI'
p540
sS'archive_tree_deapth'
p541
I3
sS'logbook'
p542
g12
(g13
g14
(lp543
(dp544
S'status'
p545
NsS'iteration'
p546
I0
sS'count_wrongs'
p547
I6
sS'picked_node'
p548
NsS'len_master_tree'
p549
I1
sS'total_wrongs'
p550
I6
sa(dp551
g545
S'worst'
p552
sg546
I1
sg547
I8
sg548
I0
sg549
I11
sg550
I70
sa(dp553
g545
S'perfect'
p554
sg546
I2
sg547
I4
sg548
I4
sg549
I21
sg550
I20
sa(dp555
g545
S'better'
p556
sg546
I3
sg547
I4
sg548
I9
sg549
I25
sg550
I76
sa(dp557
g545
g554
sg546
I4
sg547
I4
sg548
I14
sg549
I33
sg550
I63
sa(dp558
g545
g554
sg546
I5
sg547
I3
sg548
I10
sg549
I35
sg550
I40
sa(dp559
g545
g554
sg546
I6
sg547
I2
sg548
I11
sg549
I43
sg550
I21
sa(dp560
g545
g554
sg546
I7
sg547
I1
sg548
I16
sg549
I53
sg550
I3
sa(dp561
g545
g552
sg546
I8
sg547
I2
sg548
I7
sg549
I43
sg550
I21
sa(dp562
g545
g554
sg546
I9
sg547
I1
sg548
I40
sg549
I53
sg550
I3
sa(dp563
g545
g552
sg546
I10
sg547
I2
sg548
I36
sg549
I43
sg550
I21
sa(dp564
g545
g556
sg546
I11
sg547
I2
sg548
I42
sg549
I53
sg550
I25
sa(dp565
g545
g554
sg546
I12
sg547
I1
sg548
I48
sg549
I55
sg550
I3
sa(dp566
g545
g552
sg546
I13
sg547
I2
sg548
I37
sg549
I63
sg550
I31
sa(dp567
g545
g554
sg546
I14
sg547
I1
sg548
I47
sg549
I65
sg550
I10
sa(dp568
g545
g554
sg546
I15
sg547
I1
sg548
I52
sg549
I79
sg550
I9
sa(dp569
g545
g554
sg546
I16
sg547
I1
sg548
I54
sg549
I93
sg550
I22
sa(dp570
g545
g554
sg546
I17
sg547
I0
sg548
I65
sg549
I101
sg550
I0
satRp571
(dp572
g58
I01
sg59
(lp573
g546
ag549
ag547
ag550
ag548
ag545
asg61
Nsg62
I0
sg63
g64
(g13
tRp574
sbsS'max_archive_size'
p575
NsS'solution_found_flag'
p576
I01
sS'time_taken'
p577
F272.77604913711548
sS'benchmark_name'
p578
S'D_A1'
p579
sa(dp580
S'tree_str'
p581
S'a1(a1(a1(a1(ARG0,a1(a1(ARG2,ARG0),a1(a1(ARG0,ARG2),ARG2))),a1(a1(ARG0,a1(a1(a1(a1(ARG1,ARG2),ARG0),a1(a1(ARG0,ARG2),ARG1)),a1(a1(ARG0,ARG0),a1(ARG0,ARG0)))),ARG0)),a1(a1(a1(a1(ARG1,ARG2),ARG0),a1(a1(ARG1,a1(a1(a1(ARG2,ARG1),ARG1),ARG1)),a1(ARG0,ARG1))),ARG1)),a1(a1(ARG1,ARG1),a1(ARG0,a1(a1(a1(ARG1,ARG1),a1(a1(ARG1,ARG2),a1(ARG0,a1(ARG0,ARG0)))),a1(a1(a1(ARG2,ARG2),a1(ARG1,ARG2)),a1(a1(ARG1,ARG2),a1(ARG0,ARG0)))))))'
p582
sS'tree_len'
p583
I93
sS'archive_size'
p584
I16945
sS'number_of_operators'
p585
I46
sS'alg_name'
p586
S'small-LTI'
p587
sS'archive_tree_deapth'
p588
I3
sS'logbook'
p589
g12
(g13
g14
(lp590
(dp591
S'status'
p592
NsS'iteration'
p593
I0
sS'count_wrongs'
p594
I6
sS'picked_node'
p595
NsS'len_master_tree'
p596
I1
sS'total_wrongs'
p597
I6
sa(dp598
g592
S'worst'
p599
sg593
I1
sg594
I8
sg595
I0
sg596
I11
sg597
I70
sa(dp600
g592
S'perfect'
p601
sg593
I2
sg594
I4
sg595
I4
sg596
I21
sg597
I20
sa(dp602
g592
S'better'
p603
sg593
I3
sg594
I4
sg595
I9
sg596
I25
sg597
I76
sa(dp604
g592
g601
sg593
I4
sg594
I4
sg595
I14
sg596
I33
sg597
I63
sa(dp605
g592
g601
sg593
I5
sg594
I3
sg595
I10
sg596
I35
sg597
I40
sa(dp606
g592
g601
sg593
I6
sg594
I2
sg595
I11
sg596
I43
sg597
I21
sa(dp607
g592
g601
sg593
I7
sg594
I1
sg595
I16
sg596
I53
sg597
I3
sa(dp608
g592
g599
sg593
I8
sg594
I2
sg595
I7
sg596
I43
sg597
I21
sa(dp609
g592
g601
sg593
I9
sg594
I1
sg595
I40
sg596
I53
sg597
I3
sa(dp610
g592
g599
sg593
I10
sg594
I2
sg595
I36
sg596
I43
sg597
I21
sa(dp611
g592
g603
sg593
I11
sg594
I2
sg595
I40
sg596
I53
sg597
I49
sa(dp612
g592
g601
sg593
I12
sg594
I2
sg595
I21
sg596
I53
sg597
I24
sa(dp613
g592
g601
sg593
I13
sg594
I2
sg595
I38
sg596
I53
sg597
I31
sa(dp614
g592
g601
sg593
I14
sg594
I1
sg595
I20
sg596
I53
sg597
I3
sa(dp615
g592
g599
sg593
I15
sg594
I2
sg595
I29
sg596
I43
sg597
I21
sa(dp616
g592
g603
sg593
I16
sg594
I2
sg595
I40
sg596
I53
sg597
I22
sa(dp617
g592
g601
sg593
I17
sg594
I1
sg595
I41
sg596
I53
sg597
I3
sa(dp618
g592
g599
sg593
I18
sg594
I2
sg595
I37
sg596
I61
sg597
I30
sa(dp619
g592
g601
sg593
I19
sg594
I1
sg595
I51
sg596
I67
sg597
I10
sa(dp620
g592
g601
sg593
I20
sg594
I1
sg595
I56
sg596
I81
sg597
I9
sa(dp621
g592
g601
sg593
I21
sg594
I1
sg595
I58
sg596
I89
sg597
I22
sa(dp622
g592
g601
sg593
I22
sg594
I0
sg595
I73
sg596
I93
sg597
I0
satRp623
(dp624
g58
I01
sg59
(lp625
g593
ag596
ag594
ag597
ag595
ag592
asg61
Nsg62
I0
sg63
g64
(g13
tRp626
sbsS'max_archive_size'
p627
NsS'solution_found_flag'
p628
I01
sS'time_taken'
p629
F290.61155104637146
sS'benchmark_name'
p630
S'D_A1'
p631
sa(dp632
S'tree_str'
p633
S'a1(a1(a1(a1(ARG0,a1(a1(ARG2,ARG0),a1(a1(ARG0,ARG2),ARG2))),a1(a1(ARG0,a1(a1(a1(a1(ARG1,ARG2),ARG0),a1(a1(ARG0,ARG2),ARG1)),a1(a1(ARG0,ARG0),a1(ARG0,ARG0)))),ARG0)),a1(a1(a1(a1(ARG1,ARG2),ARG0),a1(a1(ARG1,a1(a1(a1(ARG2,ARG1),ARG1),ARG1)),a1(ARG0,ARG1))),ARG1)),a1(a1(ARG1,ARG1),a1(ARG0,a1(a1(a1(ARG1,ARG1),a1(a1(ARG1,ARG2),a1(ARG0,a1(ARG0,ARG0)))),a1(a1(a1(ARG2,ARG2),a1(ARG1,ARG2)),a1(a1(ARG1,ARG2),a1(ARG0,ARG0)))))))'
p634
sS'tree_len'
p635
I93
sS'archive_size'
p636
I16945
sS'number_of_operators'
p637
I46
sS'alg_name'
p638
S'small-LTI'
p639
sS'archive_tree_deapth'
p640
I3
sS'logbook'
p641
g12
(g13
g14
(lp642
(dp643
S'status'
p644
NsS'iteration'
p645
I0
sS'count_wrongs'
p646
I6
sS'picked_node'
p647
NsS'len_master_tree'
p648
I1
sS'total_wrongs'
p649
I6
sa(dp650
g644
S'worst'
p651
sg645
I1
sg646
I8
sg647
I0
sg648
I11
sg649
I70
sa(dp652
g644
S'perfect'
p653
sg645
I2
sg646
I4
sg647
I4
sg648
I21
sg649
I20
sa(dp654
g644
S'better'
p655
sg645
I3
sg646
I4
sg647
I9
sg648
I25
sg649
I76
sa(dp656
g644
g653
sg645
I4
sg646
I4
sg647
I14
sg648
I33
sg649
I63
sa(dp657
g644
g653
sg645
I5
sg646
I3
sg647
I10
sg648
I35
sg649
I40
sa(dp658
g644
g653
sg645
I6
sg646
I2
sg647
I11
sg648
I43
sg649
I21
sa(dp659
g644
g653
sg645
I7
sg646
I1
sg647
I16
sg648
I53
sg649
I3
sa(dp660
g644
g651
sg645
I8
sg646
I2
sg647
I7
sg648
I43
sg649
I21
sa(dp661
g644
g653
sg645
I9
sg646
I1
sg647
I40
sg648
I53
sg649
I3
sa(dp662
g644
g651
sg645
I10
sg646
I2
sg647
I36
sg648
I43
sg649
I21
sa(dp663
g644
g655
sg645
I11
sg646
I2
sg647
I40
sg648
I53
sg649
I49
sa(dp664
g644
g653
sg645
I12
sg646
I2
sg647
I21
sg648
I53
sg649
I24
sa(dp665
g644
g653
sg645
I13
sg646
I2
sg647
I37
sg648
I53
sg649
I31
sa(dp666
g644
g653
sg645
I14
sg646
I1
sg647
I37
sg648
I53
sg649
I3
sa(dp667
g644
g651
sg645
I15
sg646
I2
sg647
I33
sg648
I43
sg649
I21
sa(dp668
g644
g655
sg645
I16
sg646
I2
sg647
I40
sg648
I53
sg649
I49
sa(dp669
g644
g653
sg645
I17
sg646
I1
sg647
I41
sg648
I53
sg649
I3
sa(dp670
g644
g651
sg645
I18
sg646
I2
sg647
I37
sg648
I61
sg649
I30
sa(dp671
g644
g653
sg645
I19
sg646
I1
sg647
I51
sg648
I67
sg649
I10
sa(dp672
g644
g653
sg645
I20
sg646
I1
sg647
I56
sg648
I81
sg649
I9
sa(dp673
g644
g653
sg645
I21
sg646
I1
sg647
I58
sg648
I89
sg649
I22
sa(dp674
g644
g653
sg645
I22
sg646
I0
sg647
I73
sg648
I93
sg649
I0
satRp675
(dp676
g58
I01
sg59
(lp677
g645
ag648
ag646
ag649
ag647
ag644
asg61
Nsg62
I0
sg63
g64
(g13
tRp678
sbsS'max_archive_size'
p679
NsS'solution_found_flag'
p680
I01
sS'time_taken'
p681
F292.90702295303345
sS'benchmark_name'
p682
S'D_A1'
p683
sa(dp684
S'tree_str'
p685
S'a1(a1(a1(a1(ARG0,a1(a1(ARG2,ARG0),a1(a1(ARG0,ARG2),ARG2))),a1(a1(ARG0,a1(a1(a1(a1(ARG1,ARG2),ARG0),a1(a1(ARG0,ARG2),ARG1)),a1(a1(ARG0,ARG0),a1(ARG0,ARG0)))),ARG0)),a1(a1(a1(a1(ARG1,ARG2),ARG0),a1(a1(a1(a1(ARG1,a1(ARG2,ARG2)),ARG2),ARG2),a1(ARG0,ARG1))),ARG1)),a1(a1(ARG1,ARG1),a1(ARG0,a1(a1(a1(ARG1,ARG1),a1(a1(ARG1,ARG2),a1(ARG0,a1(ARG0,ARG0)))),a1(a1(a1(ARG2,ARG2),a1(ARG1,ARG2)),a1(a1(ARG1,ARG2),a1(ARG0,ARG0)))))))'
p686
sS'tree_len'
p687
I93
sS'archive_size'
p688
I16945
sS'number_of_operators'
p689
I46
sS'alg_name'
p690
S'small-LTI'
p691
sS'archive_tree_deapth'
p692
I3
sS'logbook'
p693
g12
(g13
g14
(lp694
(dp695
S'status'
p696
NsS'iteration'
p697
I0
sS'count_wrongs'
p698
I6
sS'picked_node'
p699
NsS'len_master_tree'
p700
I1
sS'total_wrongs'
p701
I6
sa(dp702
g696
S'worst'
p703
sg697
I1
sg698
I8
sg699
I0
sg700
I11
sg701
I70
sa(dp704
g696
S'perfect'
p705
sg697
I2
sg698
I4
sg699
I4
sg700
I21
sg701
I20
sa(dp706
g696
S'better'
p707
sg697
I3
sg698
I4
sg699
I9
sg700
I25
sg701
I76
sa(dp708
g696
g705
sg697
I4
sg698
I4
sg699
I14
sg700
I33
sg701
I63
sa(dp709
g696
g705
sg697
I5
sg698
I3
sg699
I10
sg700
I35
sg701
I40
sa(dp710
g696
g705
sg697
I6
sg698
I2
sg699
I11
sg700
I43
sg701
I21
sa(dp711
g696
g705
sg697
I7
sg698
I1
sg699
I16
sg700
I53
sg701
I3
sa(dp712
g696
g703
sg697
I8
sg698
I2
sg699
I7
sg700
I43
sg701
I21
sa(dp713
g696
g705
sg697
I9
sg698
I1
sg699
I40
sg700
I53
sg701
I3
sa(dp714
g696
g703
sg697
I10
sg698
I2
sg699
I36
sg700
I43
sg701
I21
sa(dp715
g696
g707
sg697
I11
sg698
I2
sg699
I40
sg700
I53
sg701
I49
sa(dp716
g696
g705
sg697
I12
sg698
I2
sg699
I21
sg700
I53
sg701
I24
sa(dp717
g696
g705
sg697
I13
sg698
I2
sg699
I38
sg700
I53
sg701
I31
sa(dp718
g696
g705
sg697
I14
sg698
I1
sg699
I45
sg700
I53
sg701
I3
sa(dp719
g696
g703
sg697
I15
sg698
I2
sg699
I33
sg700
I43
sg701
I21
sa(dp720
g696
g707
sg697
I16
sg698
I2
sg699
I40
sg700
I53
sg701
I22
sa(dp721
g696
g705
sg697
I17
sg698
I1
sg699
I41
sg700
I53
sg701
I3
sa(dp722
g696
g703
sg697
I18
sg698
I2
sg699
I37
sg700
I61
sg701
I30
sa(dp723
g696
g705
sg697
I19
sg698
I1
sg699
I50
sg700
I67
sg701
I10
sa(dp724
g696
g705
sg697
I20
sg698
I1
sg699
I56
sg700
I81
sg701
I9
sa(dp725
g696
g705
sg697
I21
sg698
I1
sg699
I58
sg700
I89
sg701
I22
sa(dp726
g696
g705
sg697
I22
sg698
I0
sg699
I73
sg700
I93
sg701
I0
satRp727
(dp728
g58
I01
sg59
(lp729
g697
ag700
ag698
ag701
ag699
ag696
asg61
Nsg62
I0
sg63
g64
(g13
tRp730
sbsS'max_archive_size'
p731
NsS'solution_found_flag'
p732
I01
sS'time_taken'
p733
F314.66995906829834
sS'benchmark_name'
p734
S'D_A1'
p735
sa(dp736
S'tree_str'
p737
S'a1(a1(a1(a1(ARG0,a1(a1(a1(ARG2,ARG2),a1(ARG2,ARG2)),a1(a1(ARG0,ARG0),a1(ARG0,ARG0)))),a1(a1(ARG0,a1(a1(a1(ARG0,ARG0),a1(ARG2,ARG0)),a1(a1(ARG0,ARG0),a1(a1(ARG2,a1(ARG2,ARG1)),a1(ARG2,a1(ARG1,ARG0)))))),ARG0)),a1(a1(ARG1,a1(a1(a1(a1(ARG0,ARG1),a1(ARG1,ARG2)),ARG2),a1(ARG2,a1(ARG0,ARG2)))),ARG1)),a1(a1(ARG1,ARG1),a1(ARG0,a1(a1(a1(ARG1,ARG1),a1(a1(ARG1,ARG2),a1(ARG0,a1(ARG0,ARG0)))),a1(a1(a1(ARG2,ARG2),a1(ARG1,ARG2)),a1(a1(ARG1,ARG2),a1(ARG0,ARG0)))))))'
p738
sS'tree_len'
p739
I101
sS'archive_size'
p740
I16945
sS'number_of_operators'
p741
I50
sS'alg_name'
p742
S'small-LTI'
p743
sS'archive_tree_deapth'
p744
I3
sS'logbook'
p745
g12
(g13
g14
(lp746
(dp747
S'status'
p748
NsS'iteration'
p749
I0
sS'count_wrongs'
p750
I6
sS'picked_node'
p751
NsS'len_master_tree'
p752
I1
sS'total_wrongs'
p753
I6
sa(dp754
g748
S'worst'
p755
sg749
I1
sg750
I8
sg751
I0
sg752
I11
sg753
I70
sa(dp756
g748
S'perfect'
p757
sg749
I2
sg750
I4
sg751
I4
sg752
I21
sg753
I20
sa(dp758
g748
S'better'
p759
sg749
I3
sg750
I4
sg751
I9
sg752
I25
sg753
I76
sa(dp760
g748
g757
sg749
I4
sg750
I4
sg751
I14
sg752
I33
sg753
I63
sa(dp761
g748
g757
sg749
I5
sg750
I3
sg751
I10
sg752
I35
sg753
I40
sa(dp762
g748
g757
sg749
I6
sg750
I2
sg751
I11
sg752
I43
sg753
I21
sa(dp763
g748
g757
sg749
I7
sg750
I1
sg751
I16
sg752
I53
sg753
I3
sa(dp764
g748
g755
sg749
I8
sg750
I2
sg751
I7
sg752
I43
sg753
I21
sa(dp765
g748
g757
sg749
I9
sg750
I1
sg751
I40
sg752
I53
sg753
I3
sa(dp766
g748
g755
sg749
I10
sg750
I2
sg751
I36
sg752
I43
sg753
I21
sa(dp767
g748
g759
sg749
I11
sg750
I2
sg751
I42
sg752
I53
sg753
I25
sa(dp768
g748
g757
sg749
I12
sg750
I1
sg751
I48
sg752
I55
sg753
I3
sa(dp769
g748
g755
sg749
I13
sg750
I2
sg751
I37
sg752
I63
sg753
I31
sa(dp770
g748
g757
sg749
I14
sg750
I1
sg751
I47
sg752
I65
sg753
I10
sa(dp771
g748
g757
sg749
I15
sg750
I1
sg751
I52
sg752
I79
sg753
I9
sa(dp772
g748
g757
sg749
I16
sg750
I1
sg751
I54
sg752
I93
sg753
I22
sa(dp773
g748
g757
sg749
I17
sg750
I0
sg751
I65
sg752
I101
sg753
I0
satRp774
(dp775
g58
I01
sg59
(lp776
g749
ag752
ag750
ag753
ag751
ag748
asg61
Nsg62
I0
sg63
g64
(g13
tRp777
sbsS'max_archive_size'
p778
NsS'solution_found_flag'
p779
I01
sS'time_taken'
p780
F272.28133296966553
sS'benchmark_name'
p781
S'D_A1'
p782
sa(dp783
S'tree_str'
p784
S'a1(a1(a1(a1(ARG0,a1(a1(a1(ARG2,ARG2),a1(ARG2,ARG2)),a1(a1(ARG0,ARG0),a1(ARG0,ARG0)))),a1(a1(ARG0,a1(a1(a1(ARG0,ARG0),a1(a1(a1(ARG0,ARG2),ARG1),a1(ARG0,a1(ARG0,ARG1)))),a1(a1(ARG0,ARG0),a1(ARG0,ARG0)))),ARG0)),a1(a1(ARG1,a1(a1(ARG2,a1(a1(ARG0,ARG1),ARG0)),a1(a1(a1(ARG2,ARG1),ARG0),a1(ARG0,ARG1)))),ARG1)),a1(a1(ARG1,ARG1),a1(ARG0,a1(a1(a1(ARG1,ARG1),a1(a1(ARG1,ARG2),a1(ARG0,a1(ARG0,ARG0)))),a1(a1(a1(ARG2,ARG2),a1(ARG1,ARG2)),a1(a1(ARG1,ARG2),a1(ARG0,ARG0)))))))'
p785
sS'tree_len'
p786
I103
sS'archive_size'
p787
I16945
sS'number_of_operators'
p788
I51
sS'alg_name'
p789
S'small-LTI'
p790
sS'archive_tree_deapth'
p791
I3
sS'logbook'
p792
g12
(g13
g14
(lp793
(dp794
S'status'
p795
NsS'iteration'
p796
I0
sS'count_wrongs'
p797
I6
sS'picked_node'
p798
NsS'len_master_tree'
p799
I1
sS'total_wrongs'
p800
I6
sa(dp801
g795
S'worst'
p802
sg796
I1
sg797
I8
sg798
I0
sg799
I11
sg800
I70
sa(dp803
g795
S'perfect'
p804
sg796
I2
sg797
I4
sg798
I4
sg799
I21
sg800
I20
sa(dp805
g795
S'better'
p806
sg796
I3
sg797
I4
sg798
I9
sg799
I25
sg800
I76
sa(dp807
g795
g804
sg796
I4
sg797
I4
sg798
I14
sg799
I33
sg800
I63
sa(dp808
g795
g804
sg796
I5
sg797
I3
sg798
I10
sg799
I35
sg800
I40
sa(dp809
g795
g804
sg796
I6
sg797
I2
sg798
I11
sg799
I43
sg800
I21
sa(dp810
g795
g804
sg796
I7
sg797
I1
sg798
I16
sg799
I53
sg800
I3
sa(dp811
g795
g802
sg796
I8
sg797
I2
sg798
I7
sg799
I43
sg800
I21
sa(dp812
g795
g804
sg796
I9
sg797
I1
sg798
I40
sg799
I53
sg800
I3
sa(dp813
g795
g802
sg796
I10
sg797
I2
sg798
I36
sg799
I43
sg800
I21
sa(dp814
g795
g806
sg796
I11
sg797
I2
sg798
I40
sg799
I53
sg800
I49
sa(dp815
g795
g804
sg796
I12
sg797
I2
sg798
I20
sg799
I53
sg800
I24
sa(dp816
g795
g804
sg796
I13
sg797
I2
sg798
I34
sg799
I53
sg800
I31
sa(dp817
g795
g804
sg796
I14
sg797
I1
sg798
I39
sg799
I53
sg800
I3
sa(dp818
g795
g802
sg796
I15
sg797
I2
sg798
I29
sg799
I43
sg800
I21
sa(dp819
g795
g806
sg796
I16
sg797
I2
sg798
I42
sg799
I53
sg800
I24
sa(dp820
g795
g804
sg796
I17
sg797
I1
sg798
I50
sg799
I55
sg800
I3
sa(dp821
g795
g802
sg796
I18
sg797
I2
sg798
I37
sg799
I63
sg800
I31
sa(dp822
g795
g804
sg796
I19
sg797
I1
sg798
I42
sg799
I67
sg800
I10
sa(dp823
g795
g804
sg796
I20
sg797
I1
sg798
I54
sg799
I81
sg800
I9
sa(dp824
g795
g804
sg796
I21
sg797
I1
sg798
I56
sg799
I95
sg800
I22
sa(dp825
g795
g804
sg796
I22
sg797
I0
sg798
I74
sg799
I103
sg800
I0
satRp826
(dp827
g58
I01
sg59
(lp828
g796
ag799
ag797
ag800
ag798
ag795
asg61
Nsg62
I0
sg63
g64
(g13
tRp829
sbsS'max_archive_size'
p830
NsS'solution_found_flag'
p831
I01
sS'time_taken'
p832
F308.90338015556335
sS'benchmark_name'
p833
S'D_A1'
p834
sa(dp835
S'tree_str'
p836
S'a1(a1(a1(a1(ARG0,a1(a1(ARG2,ARG0),a1(a1(ARG0,ARG2),ARG2))),a1(a1(ARG0,a1(a1(a1(a1(ARG1,ARG2),ARG0),a1(a1(ARG0,ARG2),ARG1)),a1(a1(ARG0,ARG0),a1(ARG0,ARG0)))),ARG0)),a1(a1(a1(a1(ARG1,ARG2),ARG0),a1(a1(a1(a1(ARG1,a1(ARG2,ARG2)),ARG2),ARG2),a1(ARG0,ARG1))),ARG1)),a1(a1(ARG1,ARG1),a1(ARG0,a1(a1(a1(ARG1,ARG1),a1(a1(ARG1,ARG2),a1(ARG0,a1(ARG0,ARG0)))),a1(a1(a1(ARG2,ARG2),a1(ARG1,ARG2)),a1(a1(ARG1,ARG2),a1(ARG0,ARG0)))))))'
p837
sS'tree_len'
p838
I93
sS'archive_size'
p839
I16945
sS'number_of_operators'
p840
I46
sS'alg_name'
p841
S'small-LTI'
p842
sS'archive_tree_deapth'
p843
I3
sS'logbook'
p844
g12
(g13
g14
(lp845
(dp846
S'status'
p847
NsS'iteration'
p848
I0
sS'count_wrongs'
p849
I6
sS'picked_node'
p850
NsS'len_master_tree'
p851
I1
sS'total_wrongs'
p852
I6
sa(dp853
g847
S'worst'
p854
sg848
I1
sg849
I8
sg850
I0
sg851
I11
sg852
I70
sa(dp855
g847
S'perfect'
p856
sg848
I2
sg849
I4
sg850
I4
sg851
I21
sg852
I20
sa(dp857
g847
S'better'
p858
sg848
I3
sg849
I4
sg850
I9
sg851
I25
sg852
I76
sa(dp859
g847
g856
sg848
I4
sg849
I4
sg850
I14
sg851
I33
sg852
I63
sa(dp860
g847
g856
sg848
I5
sg849
I3
sg850
I10
sg851
I35
sg852
I40
sa(dp861
g847
g856
sg848
I6
sg849
I2
sg850
I11
sg851
I43
sg852
I21
sa(dp862
g847
g856
sg848
I7
sg849
I1
sg850
I16
sg851
I53
sg852
I3
sa(dp863
g847
g854
sg848
I8
sg849
I2
sg850
I7
sg851
I43
sg852
I21
sa(dp864
g847
g856
sg848
I9
sg849
I1
sg850
I40
sg851
I53
sg852
I3
sa(dp865
g847
g854
sg848
I10
sg849
I2
sg850
I36
sg851
I43
sg852
I21
sa(dp866
g847
g858
sg848
I11
sg849
I2
sg850
I40
sg851
I53
sg852
I22
sa(dp867
g847
g856
sg848
I12
sg849
I1
sg850
I41
sg851
I53
sg852
I3
sa(dp868
g847
g854
sg848
I13
sg849
I2
sg850
I37
sg851
I61
sg852
I30
sa(dp869
g847
g856
sg848
I14
sg849
I1
sg850
I50
sg851
I67
sg852
I10
sa(dp870
g847
g856
sg848
I15
sg849
I1
sg850
I56
sg851
I81
sg852
I9
sa(dp871
g847
g856
sg848
I16
sg849
I1
sg850
I58
sg851
I89
sg852
I22
sa(dp872
g847
g856
sg848
I17
sg849
I0
sg850
I73
sg851
I93
sg852
I0
satRp873
(dp874
g58
I01
sg59
(lp875
g848
ag851
ag849
ag852
ag850
ag847
asg61
Nsg62
I0
sg63
g64
(g13
tRp876
sbsS'max_archive_size'
p877
NsS'solution_found_flag'
p878
I01
sS'time_taken'
p879
F292.53974485397339
sS'benchmark_name'
p880
S'D_A1'
p881
sa(dp882
S'tree_str'
p883
S'a1(a1(a1(a1(ARG0,a1(a1(ARG2,ARG0),a1(a1(ARG0,ARG2),ARG2))),a1(a1(ARG0,a1(a1(a1(a1(ARG1,ARG2),ARG0),a1(a1(ARG0,ARG2),ARG1)),a1(a1(ARG0,ARG0),a1(ARG0,ARG0)))),ARG0)),a1(a1(a1(a1(ARG1,ARG2),ARG0),a1(a1(a1(a1(ARG1,a1(ARG2,ARG2)),ARG2),ARG2),a1(ARG0,ARG1))),ARG1)),a1(a1(ARG1,ARG1),a1(ARG0,a1(a1(a1(ARG1,ARG1),a1(a1(ARG1,ARG2),a1(ARG0,a1(ARG0,ARG0)))),a1(a1(a1(ARG2,ARG2),a1(ARG1,ARG2)),a1(a1(ARG1,ARG2),a1(ARG0,ARG0)))))))'
p884
sS'tree_len'
p885
I93
sS'archive_size'
p886
I16945
sS'number_of_operators'
p887
I46
sS'alg_name'
p888
S'small-LTI'
p889
sS'archive_tree_deapth'
p890
I3
sS'logbook'
p891
g12
(g13
g14
(lp892
(dp893
S'status'
p894
NsS'iteration'
p895
I0
sS'count_wrongs'
p896
I6
sS'picked_node'
p897
NsS'len_master_tree'
p898
I1
sS'total_wrongs'
p899
I6
sa(dp900
g894
S'worst'
p901
sg895
I1
sg896
I8
sg897
I0
sg898
I11
sg899
I70
sa(dp902
g894
S'perfect'
p903
sg895
I2
sg896
I4
sg897
I4
sg898
I21
sg899
I20
sa(dp904
g894
S'better'
p905
sg895
I3
sg896
I4
sg897
I9
sg898
I25
sg899
I76
sa(dp906
g894
g903
sg895
I4
sg896
I4
sg897
I14
sg898
I33
sg899
I63
sa(dp907
g894
g903
sg895
I5
sg896
I3
sg897
I10
sg898
I35
sg899
I40
sa(dp908
g894
g903
sg895
I6
sg896
I2
sg897
I11
sg898
I43
sg899
I21
sa(dp909
g894
g903
sg895
I7
sg896
I1
sg897
I16
sg898
I53
sg899
I3
sa(dp910
g894
g901
sg895
I8
sg896
I2
sg897
I7
sg898
I43
sg899
I21
sa(dp911
g894
g903
sg895
I9
sg896
I1
sg897
I40
sg898
I53
sg899
I3
sa(dp912
g894
g901
sg895
I10
sg896
I2
sg897
I36
sg898
I43
sg899
I21
sa(dp913
g894
g905
sg895
I11
sg896
I2
sg897
I40
sg898
I53
sg899
I49
sa(dp914
g894
g903
sg895
I12
sg896
I2
sg897
I23
sg898
I53
sg899
I24
sa(dp915
g894
g903
sg895
I13
sg896
I2
sg897
I40
sg898
I53
sg899
I31
sa(dp916
g894
g903
sg895
I14
sg896
I1
sg897
I20
sg898
I53
sg899
I3
sa(dp917
g894
g901
sg895
I15
sg896
I2
sg897
I29
sg898
I43
sg899
I21
sa(dp918
g894
g905
sg895
I16
sg896
I2
sg897
I40
sg898
I53
sg899
I49
sa(dp919
g894
g903
sg895
I17
sg896
I2
sg897
I32
sg898
I53
sg899
I24
sa(dp920
g894
g903
sg895
I18
sg896
I2
sg897
I39
sg898
I53
sg899
I31
sa(dp921
g894
g903
sg895
I19
sg896
I1
sg897
I30
sg898
I53
sg899
I3
sa(dp922
g894
g901
sg895
I20
sg896
I2
sg897
I33
sg898
I43
sg899
I21
sa(dp923
g894
g905
sg895
I21
sg896
I2
sg897
I40
sg898
I53
sg899
I22
sa(dp924
g894
g903
sg895
I22
sg896
I1
sg897
I41
sg898
I53
sg899
I3
sa(dp925
g894
g901
sg895
I23
sg896
I2
sg897
I37
sg898
I61
sg899
I30
sa(dp926
g894
g903
sg895
I24
sg896
I1
sg897
I50
sg898
I67
sg899
I10
sa(dp927
g894
g903
sg895
I25
sg896
I1
sg897
I56
sg898
I81
sg899
I9
sa(dp928
g894
g903
sg895
I26
sg896
I1
sg897
I58
sg898
I89
sg899
I22
sa(dp929
g894
g903
sg895
I27
sg896
I0
sg897
I73
sg898
I93
sg899
I0
satRp930
(dp931
g58
I01
sg59
(lp932
g895
ag898
ag896
ag899
ag897
ag894
asg61
Nsg62
I0
sg63
g64
(g13
tRp933
sbsS'max_archive_size'
p934
NsS'solution_found_flag'
p935
I01
sS'time_taken'
p936
F304.56453800201416
sS'benchmark_name'
p937
S'D_A1'
p938
sa(dp939
S'tree_str'
p940
S'a1(a1(a1(a1(ARG0,a1(a1(ARG2,ARG0),a1(a1(ARG0,ARG2),ARG2))),a1(a1(ARG0,a1(a1(a1(a1(ARG1,ARG2),ARG0),a1(a1(ARG0,ARG2),ARG1)),a1(a1(ARG0,ARG0),a1(ARG0,ARG0)))),ARG0)),a1(a1(a1(a1(ARG1,ARG2),ARG0),a1(a1(ARG1,a1(a1(a1(ARG2,ARG1),ARG1),ARG1)),a1(ARG0,ARG1))),ARG1)),a1(a1(ARG1,ARG1),a1(ARG0,a1(a1(a1(ARG1,ARG1),a1(a1(ARG1,ARG2),a1(ARG0,a1(ARG0,ARG0)))),a1(a1(a1(ARG2,ARG2),a1(ARG1,ARG2)),a1(a1(ARG1,ARG2),a1(ARG0,ARG0)))))))'
p941
sS'tree_len'
p942
I93
sS'archive_size'
p943
I16945
sS'number_of_operators'
p944
I46
sS'alg_name'
p945
S'small-LTI'
p946
sS'archive_tree_deapth'
p947
I3
sS'logbook'
p948
g12
(g13
g14
(lp949
(dp950
S'status'
p951
NsS'iteration'
p952
I0
sS'count_wrongs'
p953
I6
sS'picked_node'
p954
NsS'len_master_tree'
p955
I1
sS'total_wrongs'
p956
I6
sa(dp957
g951
S'worst'
p958
sg952
I1
sg953
I8
sg954
I0
sg955
I11
sg956
I70
sa(dp959
g951
S'perfect'
p960
sg952
I2
sg953
I4
sg954
I4
sg955
I21
sg956
I20
sa(dp961
g951
S'better'
p962
sg952
I3
sg953
I4
sg954
I9
sg955
I25
sg956
I76
sa(dp963
g951
g960
sg952
I4
sg953
I4
sg954
I14
sg955
I33
sg956
I63
sa(dp964
g951
g960
sg952
I5
sg953
I3
sg954
I10
sg955
I35
sg956
I40
sa(dp965
g951
g960
sg952
I6
sg953
I2
sg954
I11
sg955
I43
sg956
I21
sa(dp966
g951
g960
sg952
I7
sg953
I1
sg954
I16
sg955
I53
sg956
I3
sa(dp967
g951
g958
sg952
I8
sg953
I2
sg954
I7
sg955
I43
sg956
I21
sa(dp968
g951
g960
sg952
I9
sg953
I1
sg954
I40
sg955
I53
sg956
I3
sa(dp969
g951
g958
sg952
I10
sg953
I2
sg954
I36
sg955
I43
sg956
I21
sa(dp970
g951
g962
sg952
I11
sg953
I2
sg954
I40
sg955
I53
sg956
I22
sa(dp971
g951
g960
sg952
I12
sg953
I1
sg954
I41
sg955
I53
sg956
I3
sa(dp972
g951
g958
sg952
I13
sg953
I2
sg954
I37
sg955
I61
sg956
I30
sa(dp973
g951
g960
sg952
I14
sg953
I1
sg954
I51
sg955
I67
sg956
I10
sa(dp974
g951
g960
sg952
I15
sg953
I1
sg954
I56
sg955
I81
sg956
I9
sa(dp975
g951
g960
sg952
I16
sg953
I1
sg954
I58
sg955
I89
sg956
I22
sa(dp976
g951
g960
sg952
I17
sg953
I0
sg954
I73
sg955
I93
sg956
I0
satRp977
(dp978
g58
I01
sg59
(lp979
g952
ag955
ag953
ag956
ag954
ag951
asg61
Nsg62
I0
sg63
g64
(g13
tRp980
sbsS'max_archive_size'
p981
NsS'solution_found_flag'
p982
I01
sS'time_taken'
p983
F293.92633509635925
sS'benchmark_name'
p984
S'D_A1'
p985
sa(dp986
S'tree_str'
p987
S'a1(a1(a1(a1(ARG0,a1(a1(ARG2,ARG0),a1(a1(ARG0,ARG2),ARG2))),a1(a1(ARG0,a1(a1(a1(a1(ARG1,ARG2),ARG0),a1(a1(ARG0,ARG2),ARG1)),a1(a1(ARG0,ARG0),a1(ARG0,ARG0)))),ARG0)),a1(a1(a1(a1(ARG1,ARG2),ARG0),a1(a1(ARG1,a1(a1(a1(ARG2,ARG1),ARG1),ARG1)),a1(ARG0,ARG1))),ARG1)),a1(a1(ARG1,ARG1),a1(ARG0,a1(a1(a1(ARG1,ARG1),a1(a1(ARG1,ARG2),a1(ARG0,a1(ARG0,ARG0)))),a1(a1(a1(ARG2,ARG2),a1(ARG1,ARG2)),a1(a1(ARG1,ARG2),a1(ARG0,ARG0)))))))'
p988
sS'tree_len'
p989
I93
sS'archive_size'
p990
I16945
sS'number_of_operators'
p991
I46
sS'alg_name'
p992
S'small-LTI'
p993
sS'archive_tree_deapth'
p994
I3
sS'logbook'
p995
g12
(g13
g14
(lp996
(dp997
S'status'
p998
NsS'iteration'
p999
I0
sS'count_wrongs'
p1000
I6
sS'picked_node'
p1001
NsS'len_master_tree'
p1002
I1
sS'total_wrongs'
p1003
I6
sa(dp1004
g998
S'worst'
p1005
sg999
I1
sg1000
I8
sg1001
I0
sg1002
I11
sg1003
I70
sa(dp1006
g998
S'perfect'
p1007
sg999
I2
sg1000
I4
sg1001
I4
sg1002
I21
sg1003
I20
sa(dp1008
g998
S'better'
p1009
sg999
I3
sg1000
I4
sg1001
I9
sg1002
I25
sg1003
I76
sa(dp1010
g998
g1007
sg999
I4
sg1000
I4
sg1001
I14
sg1002
I33
sg1003
I63
sa(dp1011
g998
g1007
sg999
I5
sg1000
I3
sg1001
I10
sg1002
I35
sg1003
I40
sa(dp1012
g998
g1007
sg999
I6
sg1000
I2
sg1001
I11
sg1002
I43
sg1003
I21
sa(dp1013
g998
g1007
sg999
I7
sg1000
I1
sg1001
I16
sg1002
I53
sg1003
I3
sa(dp1014
g998
g1005
sg999
I8
sg1000
I2
sg1001
I7
sg1002
I43
sg1003
I21
sa(dp1015
g998
g1007
sg999
I9
sg1000
I1
sg1001
I40
sg1002
I53
sg1003
I3
sa(dp1016
g998
g1005
sg999
I10
sg1000
I2
sg1001
I36
sg1002
I43
sg1003
I21
sa(dp1017
g998
g1009
sg999
I11
sg1000
I2
sg1001
I40
sg1002
I53
sg1003
I22
sa(dp1018
g998
g1007
sg999
I12
sg1000
I1
sg1001
I41
sg1002
I53
sg1003
I3
sa(dp1019
g998
g1005
sg999
I13
sg1000
I2
sg1001
I37
sg1002
I61
sg1003
I30
sa(dp1020
g998
g1007
sg999
I14
sg1000
I1
sg1001
I51
sg1002
I67
sg1003
I10
sa(dp1021
g998
g1007
sg999
I15
sg1000
I1
sg1001
I56
sg1002
I81
sg1003
I9
sa(dp1022
g998
g1007
sg999
I16
sg1000
I1
sg1001
I58
sg1002
I89
sg1003
I22
sa(dp1023
g998
g1007
sg999
I17
sg1000
I0
sg1001
I73
sg1002
I93
sg1003
I0
satRp1024
(dp1025
g58
I01
sg59
(lp1026
g999
ag1002
ag1000
ag1003
ag1001
ag998
asg61
Nsg62
I0
sg63
g64
(g13
tRp1027
sbsS'max_archive_size'
p1028
NsS'solution_found_flag'
p1029
I01
sS'time_taken'
p1030
F289.99942898750305
sS'benchmark_name'
p1031
S'D_A1'
p1032
sa.