(lp1
(dp2
S'tree_str'
p3
S'a2(a2(a2(ARG2,a2(a2(ARG1,a2(ARG0,ARG2)),a2(a2(ARG2,ARG0),ARG0))),a2(ARG2,ARG0)),a2(a2(a2(ARG0,ARG1),a2(a2(ARG0,ARG2),ARG1)),a2(a2(a2(ARG2,a2(ARG1,ARG2)),a2(ARG1,ARG2)),a2(ARG1,ARG0))))'
p4
sS'tree_len'
p5
I41
sS'archive_size'
p6
I19369
sS'number_of_operators'
p7
I20
sS'alg_name'
p8
S'small-LTI'
p9
sS'archive_tree_deapth'
p10
I3
sS'logbook'
p11
ccopy_reg
_reconstructor
p12
(ctreeimprove.utilities
Logbook
p13
c__builtin__
list
p14
(lp15
(dp16
S'status'
p17
NsS'iteration'
p18
I0
sS'count_wrongs'
p19
I6
sS'picked_node'
p20
NsS'len_master_tree'
p21
I1
sS'total_wrongs'
p22
I6
sa(dp23
g17
S'worst'
p24
sg18
I1
sg19
I7
sg20
I0
sg21
I11
sg22
I65
sa(dp25
g17
S'better'
p26
sg18
I2
sg19
I5
sg20
I10
sg21
I17
sg22
I31
sa(dp27
g17
S'perfect'
p28
sg18
I3
sg19
I4
sg20
I16
sg21
I23
sg22
I18
sa(dp29
g17
g26
sg18
I4
sg19
I4
sg20
I2
sg21
I31
sg22
I84
sa(dp30
g17
g28
sg18
I5
sg19
I4
sg20
I18
sg21
I31
sg22
I68
sa(dp31
g17
g28
sg18
I6
sg19
I4
sg20
I15
sg21
I33
sg22
I60
sa(dp32
g17
g28
sg18
I7
sg19
I2
sg20
I20
sg21
I41
sg22
I16
sa(dp33
g17
g28
sg18
I8
sg19
I1
sg20
I9
sg21
I37
sg22
I3
sa(dp34
g17
g24
sg18
I9
sg19
I2
sg20
I2
sg21
I45
sg22
I34
sa(dp35
g17
g28
sg18
I10
sg19
I2
sg20
I8
sg21
I37
sg22
I19
sa(dp36
g17
g28
sg18
I11
sg19
I0
sg20
I23
sg21
I41
sg22
I0
satRp37
(dp38
S'log_header'
p39
I01
sS'header'
p40
(lp41
g18
ag21
ag19
ag22
ag20
ag17
asS'columns_len'
p42
NsS'buffindex'
p43
I0
sS'chapters'
p44
ccollections
defaultdict
p45
(g13
tRp46
sbsS'max_archive_size'
p47
NsS'solution_found_flag'
p48
I01
sS'time_taken'
p49
F300.64368200302124
sS'benchmark_name'
p50
S'D_A2'
p51
sa(dp52
S'tree_str'
p53
S'a2(a2(a2(ARG2,a2(a2(ARG0,ARG1),a2(a2(a2(ARG2,ARG2),a2(ARG0,ARG1)),ARG0))),a2(ARG2,a2(a2(a2(ARG0,ARG1),a2(a2(ARG1,ARG2),ARG0)),a2(a2(ARG2,ARG0),a2(ARG0,a2(a2(ARG2,ARG1),ARG0)))))),a2(a2(a2(a2(a2(ARG1,ARG2),a2(ARG0,ARG2)),a2(a2(ARG0,ARG2),ARG2)),a2(ARG2,ARG1)),a2(a2(ARG0,a2(ARG1,ARG0)),a2(a2(a2(ARG0,a2(ARG1,ARG2)),a2(ARG0,ARG0)),ARG0))))'
p54
sS'tree_len'
p55
I75
sS'archive_size'
p56
I19369
sS'number_of_operators'
p57
I37
sS'alg_name'
p58
S'small-LTI'
p59
sS'archive_tree_deapth'
p60
I3
sS'logbook'
p61
g12
(g13
g14
(lp62
(dp63
S'status'
p64
NsS'iteration'
p65
I0
sS'count_wrongs'
p66
I6
sS'picked_node'
p67
NsS'len_master_tree'
p68
I1
sS'total_wrongs'
p69
I6
sa(dp70
g64
S'worst'
p71
sg65
I1
sg66
I7
sg67
I0
sg68
I11
sg69
I65
sa(dp72
g64
S'better'
p73
sg65
I2
sg66
I4
sg67
I7
sg68
I17
sg69
I34
sa(dp74
g64
S'perfect'
p75
sg65
I3
sg66
I4
sg67
I11
sg68
I25
sg69
I34
sa(dp76
g64
g75
sg65
I4
sg66
I4
sg67
I12
sg68
I31
sg69
I25
sa(dp77
g64
g73
sg65
I5
sg66
I4
sg67
I9
sg68
I39
sg69
I38
sa(dp78
g64
g75
sg65
I6
sg66
I4
sg67
I23
sg68
I39
sg69
I32
sa(dp79
g64
g75
sg65
I7
sg66
I3
sg67
I11
sg68
I39
sg69
I11
sa(dp80
g64
g73
sg65
I8
sg66
I3
sg67
I2
sg68
I47
sg69
I75
sa(dp81
g64
g75
sg65
I9
sg66
I2
sg67
I10
sg68
I47
sg69
I35
sa(dp82
g64
g75
sg65
I10
sg66
I1
sg67
I11
sg68
I51
sg69
I3
sa(dp83
g64
g71
sg65
I11
sg66
I2
sg67
I2
sg68
I59
sg69
I26
sa(dp84
g64
g75
sg65
I12
sg66
I2
sg67
I27
sg68
I67
sg69
I19
sa(dp85
g64
g75
sg65
I13
sg66
I0
sg67
I47
sg68
I75
sg69
I0
satRp86
(dp87
g39
I01
sg40
(lp88
g65
ag68
ag66
ag69
ag67
ag64
asg42
Nsg43
I0
sg44
g45
(g13
tRp89
sbsS'max_archive_size'
p90
NsS'solution_found_flag'
p91
I01
sS'time_taken'
p92
F308.47327399253845
sS'benchmark_name'
p93
S'D_A2'
p94
sa(dp95
S'tree_str'
p96
S'a2(a2(a2(ARG2,a2(a2(ARG1,a2(ARG0,ARG2)),a2(a2(ARG2,ARG0),ARG0))),a2(ARG2,ARG0)),a2(a2(a2(ARG0,ARG1),a2(a2(ARG0,ARG2),ARG1)),a2(a2(a2(ARG2,a2(ARG1,ARG2)),a2(ARG1,ARG2)),a2(ARG1,ARG0))))'
p97
sS'tree_len'
p98
I41
sS'archive_size'
p99
I19369
sS'number_of_operators'
p100
I20
sS'alg_name'
p101
S'small-LTI'
p102
sS'archive_tree_deapth'
p103
I3
sS'logbook'
p104
g12
(g13
g14
(lp105
(dp106
S'status'
p107
NsS'iteration'
p108
I0
sS'count_wrongs'
p109
I6
sS'picked_node'
p110
NsS'len_master_tree'
p111
I1
sS'total_wrongs'
p112
I6
sa(dp113
g107
S'worst'
p114
sg108
I1
sg109
I7
sg110
I0
sg111
I11
sg112
I65
sa(dp115
g107
S'better'
p116
sg108
I2
sg109
I5
sg110
I10
sg111
I17
sg112
I31
sa(dp117
g107
S'perfect'
p118
sg108
I3
sg109
I4
sg110
I16
sg111
I23
sg112
I18
sa(dp119
g107
g116
sg108
I4
sg109
I4
sg110
I2
sg111
I31
sg112
I84
sa(dp120
g107
g118
sg108
I5
sg109
I4
sg110
I18
sg111
I31
sg112
I68
sa(dp121
g107
g118
sg108
I6
sg109
I4
sg110
I15
sg111
I33
sg112
I60
sa(dp122
g107
g118
sg108
I7
sg109
I2
sg110
I20
sg111
I41
sg112
I16
sa(dp123
g107
g118
sg108
I8
sg109
I1
sg110
I9
sg111
I37
sg112
I3
sa(dp124
g107
g114
sg108
I9
sg109
I2
sg110
I2
sg111
I45
sg112
I34
sa(dp125
g107
g118
sg108
I10
sg109
I2
sg110
I8
sg111
I37
sg112
I19
sa(dp126
g107
g118
sg108
I11
sg109
I0
sg110
I23
sg111
I41
sg112
I0
satRp127
(dp128
g39
I01
sg40
(lp129
g108
ag111
ag109
ag112
ag110
ag107
asg42
Nsg43
I0
sg44
g45
(g13
tRp130
sbsS'max_archive_size'
p131
NsS'solution_found_flag'
p132
I01
sS'time_taken'
p133
F327.00985503196716
sS'benchmark_name'
p134
S'D_A2'
p135
sa(dp136
S'tree_str'
p137
S'a2(a2(a2(ARG2,a2(a2(a2(a2(ARG0,a2(ARG2,ARG1)),a2(ARG0,ARG0)),ARG1),a2(a2(ARG2,ARG1),ARG0))),a2(ARG2,a2(a2(a2(ARG0,ARG2),a2(a2(ARG1,ARG1),ARG1)),a2(a2(ARG0,ARG2),a2(ARG2,a2(a2(ARG1,ARG2),ARG2)))))),a2(a2(a2(ARG1,a2(a2(ARG1,a2(ARG1,ARG0)),a2(ARG0,a2(ARG2,ARG0)))),a2(a2(a2(ARG0,ARG2),ARG0),a2(ARG0,a2(ARG2,ARG2)))),a2(a2(a2(a2(ARG1,ARG2),ARG0),a2(a2(ARG1,ARG2),a2(ARG1,ARG0))),a2(ARG1,ARG0))))'
p138
sS'tree_len'
p139
I87
sS'archive_size'
p140
I19369
sS'number_of_operators'
p141
I43
sS'alg_name'
p142
S'small-LTI'
p143
sS'archive_tree_deapth'
p144
I3
sS'logbook'
p145
g12
(g13
g14
(lp146
(dp147
S'status'
p148
NsS'iteration'
p149
I0
sS'count_wrongs'
p150
I6
sS'picked_node'
p151
NsS'len_master_tree'
p152
I1
sS'total_wrongs'
p153
I6
sa(dp154
g148
S'worst'
p155
sg149
I1
sg150
I7
sg151
I0
sg152
I11
sg153
I65
sa(dp156
g148
S'better'
p157
sg149
I2
sg150
I4
sg151
I7
sg152
I17
sg153
I34
sa(dp158
g148
S'perfect'
p159
sg149
I3
sg150
I4
sg151
I11
sg152
I25
sg153
I34
sa(dp160
g148
g159
sg149
I4
sg150
I4
sg151
I12
sg152
I31
sg153
I25
sa(dp161
g148
g157
sg149
I5
sg150
I4
sg151
I9
sg152
I39
sg153
I24
sa(dp162
g148
g159
sg149
I6
sg150
I3
sg151
I37
sg152
I47
sg153
I11
sa(dp163
g148
g157
sg149
I7
sg150
I3
sg151
I2
sg152
I55
sg153
I21
sa(dp164
g148
g159
sg149
I8
sg150
I2
sg151
I52
sg152
I63
sg153
I10
sa(dp165
g148
g159
sg149
I9
sg150
I1
sg151
I47
sg152
I71
sg153
I3
sa(dp166
g148
g155
sg149
I10
sg150
I2
sg151
I2
sg152
I79
sg153
I19
sa(dp167
g148
g159
sg149
I11
sg150
I1
sg151
I77
sg152
I85
sg153
I9
sa(dp168
g148
g159
sg149
I12
sg150
I0
sg151
I74
sg152
I87
sg153
I0
satRp169
(dp170
g39
I01
sg40
(lp171
g149
ag152
ag150
ag153
ag151
ag148
asg42
Nsg43
I0
sg44
g45
(g13
tRp172
sbsS'max_archive_size'
p173
NsS'solution_found_flag'
p174
I01
sS'time_taken'
p175
F296.9662880897522
sS'benchmark_name'
p176
S'D_A2'
p177
sa(dp178
S'tree_str'
p179
S'a2(a2(a2(a2(ARG1,ARG1),a2(a2(ARG2,ARG1),a2(ARG1,ARG0))),a2(ARG2,a2(a2(a2(ARG2,ARG0),a2(ARG0,ARG2)),a2(a2(ARG0,ARG2),ARG1)))),a2(a2(a2(a2(a2(ARG2,ARG2),a2(ARG1,ARG1)),a2(ARG1,a2(ARG1,ARG0))),a2(ARG2,ARG1)),a2(a2(a2(ARG2,a2(ARG1,ARG2)),a2(ARG1,ARG2)),a2(a2(ARG0,ARG0),ARG0))))'
p180
sS'tree_len'
p181
I61
sS'archive_size'
p182
I19369
sS'number_of_operators'
p183
I30
sS'alg_name'
p184
S'small-LTI'
p185
sS'archive_tree_deapth'
p186
I3
sS'logbook'
p187
g12
(g13
g14
(lp188
(dp189
S'status'
p190
NsS'iteration'
p191
I0
sS'count_wrongs'
p192
I6
sS'picked_node'
p193
NsS'len_master_tree'
p194
I1
sS'total_wrongs'
p195
I6
sa(dp196
g190
S'worst'
p197
sg191
I1
sg192
I7
sg193
I0
sg194
I11
sg195
I65
sa(dp198
g190
S'better'
p199
sg191
I2
sg192
I4
sg193
I7
sg194
I17
sg195
I34
sa(dp200
g190
S'perfect'
p201
sg191
I3
sg192
I4
sg193
I13
sg194
I25
sg195
I33
sa(dp202
g190
g201
sg191
I4
sg192
I4
sg193
I11
sg194
I33
sg195
I25
sa(dp203
g190
g199
sg191
I5
sg192
I4
sg193
I7
sg194
I41
sg195
I43
sa(dp204
g190
g201
sg191
I6
sg192
I4
sg193
I22
sg194
I41
sg195
I35
sa(dp205
g190
g201
sg191
I7
sg192
I3
sg193
I16
sg194
I41
sg195
I11
sa(dp206
g190
g199
sg191
I8
sg192
I2
sg193
I2
sg194
I49
sg195
I23
sa(dp207
g190
g201
sg191
I9
sg192
I1
sg193
I44
sg194
I57
sg195
I3
sa(dp208
g190
g197
sg191
I10
sg192
I2
sg193
I2
sg194
I63
sg195
I60
sa(dp209
g190
g201
sg191
I11
sg192
I1
sg193
I5
sg194
I53
sg195
I17
sa(dp210
g190
g201
sg191
I12
sg192
I0
sg193
I34
sg194
I61
sg195
I0
satRp211
(dp212
g39
I01
sg40
(lp213
g191
ag194
ag192
ag195
ag193
ag190
asg42
Nsg43
I0
sg44
g45
(g13
tRp214
sbsS'max_archive_size'
p215
NsS'solution_found_flag'
p216
I01
sS'time_taken'
p217
F332.85862302780151
sS'benchmark_name'
p218
S'D_A2'
p219
sa(dp220
S'tree_str'
p221
S'a2(a2(a2(ARG2,a2(a2(ARG1,a2(ARG0,ARG2)),a2(a2(a2(ARG0,ARG0),ARG0),ARG0))),a2(ARG2,ARG0)),a2(a2(a2(a2(a2(ARG2,ARG2),a2(ARG1,ARG1)),a2(ARG1,a2(ARG1,ARG0))),a2(ARG2,ARG1)),a2(a2(a2(ARG2,ARG1),ARG1),a2(a2(ARG0,ARG0),ARG0))))'
p222
sS'tree_len'
p223
I49
sS'archive_size'
p224
I19369
sS'number_of_operators'
p225
I24
sS'alg_name'
p226
S'small-LTI'
p227
sS'archive_tree_deapth'
p228
I3
sS'logbook'
p229
g12
(g13
g14
(lp230
(dp231
S'status'
p232
NsS'iteration'
p233
I0
sS'count_wrongs'
p234
I6
sS'picked_node'
p235
NsS'len_master_tree'
p236
I1
sS'total_wrongs'
p237
I6
sa(dp238
g232
S'worst'
p239
sg233
I1
sg234
I7
sg235
I0
sg236
I11
sg237
I65
sa(dp240
g232
S'better'
p241
sg233
I2
sg234
I5
sg235
I10
sg236
I17
sg237
I32
sa(dp242
g232
S'perfect'
p243
sg233
I3
sg234
I4
sg235
I14
sg236
I23
sg237
I18
sa(dp244
g232
g241
sg233
I4
sg234
I4
sg235
I2
sg236
I31
sg237
I84
sa(dp245
g232
g243
sg233
I5
sg234
I4
sg235
I18
sg236
I31
sg237
I68
sa(dp246
g232
g243
sg233
I6
sg234
I4
sg235
I15
sg236
I33
sg237
I60
sa(dp247
g232
g243
sg233
I7
sg234
I2
sg235
I19
sg236
I41
sg237
I16
sa(dp248
g232
g243
sg233
I8
sg234
I1
sg235
I9
sg236
I37
sg237
I3
sa(dp249
g232
g239
sg233
I9
sg234
I2
sg235
I2
sg236
I43
sg237
I41
sa(dp250
g232
g243
sg233
I10
sg234
I1
sg235
I29
sg236
I45
sg237
I15
sa(dp251
g232
g243
sg233
I11
sg234
I0
sg235
I36
sg236
I49
sg237
I0
satRp252
(dp253
g39
I01
sg40
(lp254
g233
ag236
ag234
ag237
ag235
ag232
asg42
Nsg43
I0
sg44
g45
(g13
tRp255
sbsS'max_archive_size'
p256
NsS'solution_found_flag'
p257
I01
sS'time_taken'
p258
F305.02599692344666
sS'benchmark_name'
p259
S'D_A2'
p260
sa(dp261
S'tree_str'
p262
S'a2(a2(a2(a2(ARG1,ARG1),a2(a2(ARG2,ARG1),a2(ARG1,ARG0))),a2(ARG2,a2(a2(a2(ARG2,ARG0),a2(ARG0,ARG2)),a2(a2(ARG0,ARG2),ARG1)))),a2(a2(a2(a2(a2(ARG2,ARG2),a2(ARG1,ARG1)),a2(ARG1,a2(ARG1,ARG0))),a2(ARG2,ARG1)),a2(a2(a2(ARG2,a2(ARG1,ARG2)),a2(ARG1,ARG2)),a2(a2(ARG0,ARG0),ARG0))))'
p263
sS'tree_len'
p264
I61
sS'archive_size'
p265
I19369
sS'number_of_operators'
p266
I30
sS'alg_name'
p267
S'small-LTI'
p268
sS'archive_tree_deapth'
p269
I3
sS'logbook'
p270
g12
(g13
g14
(lp271
(dp272
S'status'
p273
NsS'iteration'
p274
I0
sS'count_wrongs'
p275
I6
sS'picked_node'
p276
NsS'len_master_tree'
p277
I1
sS'total_wrongs'
p278
I6
sa(dp279
g273
S'worst'
p280
sg274
I1
sg275
I7
sg276
I0
sg277
I11
sg278
I65
sa(dp281
g273
S'better'
p282
sg274
I2
sg275
I4
sg276
I7
sg277
I17
sg278
I34
sa(dp283
g273
S'perfect'
p284
sg274
I3
sg275
I4
sg276
I13
sg277
I25
sg278
I33
sa(dp285
g273
g284
sg274
I4
sg275
I4
sg276
I11
sg277
I33
sg278
I25
sa(dp286
g273
g282
sg274
I5
sg275
I4
sg276
I7
sg277
I41
sg278
I43
sa(dp287
g273
g284
sg274
I6
sg275
I4
sg276
I24
sg277
I41
sg278
I35
sa(dp288
g273
g284
sg274
I7
sg275
I3
sg276
I17
sg277
I41
sg278
I11
sa(dp289
g273
g282
sg274
I8
sg275
I2
sg276
I2
sg277
I49
sg278
I23
sa(dp290
g273
g284
sg274
I9
sg275
I1
sg276
I45
sg277
I57
sg278
I11
sa(dp291
g273
g284
sg274
I10
sg275
I1
sg276
I44
sg277
I57
sg278
I3
sa(dp292
g273
g280
sg274
I11
sg275
I2
sg276
I2
sg277
I63
sg278
I60
sa(dp293
g273
g284
sg274
I12
sg275
I1
sg276
I5
sg277
I53
sg278
I17
sa(dp294
g273
g284
sg274
I13
sg275
I0
sg276
I34
sg277
I61
sg278
I0
satRp295
(dp296
g39
I01
sg40
(lp297
g274
ag277
ag275
ag278
ag276
ag273
asg42
Nsg43
I0
sg44
g45
(g13
tRp298
sbsS'max_archive_size'
p299
NsS'solution_found_flag'
p300
I01
sS'time_taken'
p301
F335.98495411872864
sS'benchmark_name'
p302
S'D_A2'
p303
sa(dp304
S'tree_str'
p305
S'a2(a2(a2(ARG2,a2(a2(ARG1,a2(ARG0,ARG2)),a2(a2(ARG2,ARG0),ARG0))),a2(ARG2,ARG0)),a2(a2(a2(ARG0,ARG1),a2(a2(ARG0,ARG2),ARG1)),a2(a2(a2(ARG2,a2(ARG1,ARG2)),a2(ARG1,ARG2)),a2(ARG1,ARG0))))'
p306
sS'tree_len'
p307
I41
sS'archive_size'
p308
I19369
sS'number_of_operators'
p309
I20
sS'alg_name'
p310
S'small-LTI'
p311
sS'archive_tree_deapth'
p312
I3
sS'logbook'
p313
g12
(g13
g14
(lp314
(dp315
S'status'
p316
NsS'iteration'
p317
I0
sS'count_wrongs'
p318
I6
sS'picked_node'
p319
NsS'len_master_tree'
p320
I1
sS'total_wrongs'
p321
I6
sa(dp322
g316
S'worst'
p323
sg317
I1
sg318
I7
sg319
I0
sg320
I11
sg321
I65
sa(dp324
g316
S'better'
p325
sg317
I2
sg318
I5
sg319
I10
sg320
I17
sg321
I31
sa(dp326
g316
S'perfect'
p327
sg317
I3
sg318
I4
sg319
I16
sg320
I23
sg321
I18
sa(dp328
g316
g325
sg317
I4
sg318
I4
sg319
I2
sg320
I31
sg321
I84
sa(dp329
g316
g327
sg317
I5
sg318
I4
sg319
I18
sg320
I31
sg321
I68
sa(dp330
g316
g327
sg317
I6
sg318
I4
sg319
I15
sg320
I33
sg321
I60
sa(dp331
g316
g327
sg317
I7
sg318
I2
sg319
I20
sg320
I41
sg321
I16
sa(dp332
g316
g327
sg317
I8
sg318
I1
sg319
I9
sg320
I37
sg321
I3
sa(dp333
g316
g323
sg317
I9
sg318
I2
sg319
I2
sg320
I45
sg321
I34
sa(dp334
g316
g327
sg317
I10
sg318
I2
sg319
I8
sg320
I37
sg321
I19
sa(dp335
g316
g327
sg317
I11
sg318
I0
sg319
I23
sg320
I41
sg321
I0
satRp336
(dp337
g39
I01
sg40
(lp338
g317
ag320
ag318
ag321
ag319
ag316
asg42
Nsg43
I0
sg44
g45
(g13
tRp339
sbsS'max_archive_size'
p340
NsS'solution_found_flag'
p341
I01
sS'time_taken'
p342
F303.03315997123718
sS'benchmark_name'
p343
S'D_A2'
p344
sa(dp345
S'tree_str'
p346
S'a2(a2(a2(a2(ARG1,ARG1),a2(a2(ARG2,ARG1),a2(ARG1,a2(a2(ARG0,ARG1),a2(a2(ARG0,ARG0),ARG0))))),a2(ARG2,a2(a2(ARG2,a2(ARG0,ARG0)),a2(a2(ARG2,ARG0),ARG1)))),a2(a2(a2(a2(a2(ARG1,ARG0),a2(ARG1,ARG2)),a2(a2(ARG0,ARG2),a2(ARG2,ARG0))),a2(ARG2,ARG1)),a2(a2(a2(ARG0,a2(ARG2,ARG1)),a2(ARG0,ARG2)),a2(ARG1,ARG0))))'
p347
sS'tree_len'
p348
I67
sS'archive_size'
p349
I19369
sS'number_of_operators'
p350
I33
sS'alg_name'
p351
S'small-LTI'
p352
sS'archive_tree_deapth'
p353
I3
sS'logbook'
p354
g12
(g13
g14
(lp355
(dp356
S'status'
p357
NsS'iteration'
p358
I0
sS'count_wrongs'
p359
I6
sS'picked_node'
p360
NsS'len_master_tree'
p361
I1
sS'total_wrongs'
p362
I6
sa(dp363
g357
S'worst'
p364
sg358
I1
sg359
I7
sg360
I0
sg361
I11
sg362
I65
sa(dp365
g357
S'better'
p366
sg358
I2
sg359
I4
sg360
I7
sg361
I17
sg362
I34
sa(dp367
g357
S'perfect'
p368
sg358
I3
sg359
I4
sg360
I13
sg361
I25
sg362
I33
sa(dp369
g357
g368
sg358
I4
sg359
I4
sg360
I11
sg361
I33
sg362
I25
sa(dp370
g357
g366
sg358
I5
sg359
I4
sg360
I7
sg361
I41
sg362
I43
sa(dp371
g357
g368
sg358
I6
sg359
I4
sg360
I21
sg361
I41
sg362
I35
sa(dp372
g357
g368
sg358
I7
sg359
I3
sg360
I17
sg361
I41
sg362
I11
sa(dp373
g357
g366
sg358
I8
sg359
I3
sg360
I2
sg361
I49
sg362
I79
sa(dp374
g357
g368
sg358
I9
sg359
I2
sg360
I13
sg361
I49
sg362
I38
sa(dp375
g357
g368
sg358
I10
sg359
I2
sg360
I34
sg361
I53
sg362
I28
sa(dp376
g357
g368
sg358
I11
sg359
I2
sg360
I22
sg361
I61
sg362
I26
sa(dp377
g357
g368
sg358
I12
sg359
I1
sg360
I45
sg361
I69
sg362
I3
sa(dp378
g357
g364
sg358
I13
sg359
I2
sg360
I2
sg361
I77
sg362
I29
sa(dp379
g357
g368
sg358
I14
sg359
I2
sg360
I40
sg361
I79
sg362
I19
sa(dp380
g357
g366
sg358
I15
sg359
I1
sg360
I59
sg361
I83
sg362
I49
sa(dp381
g357
g368
sg358
I16
sg359
I1
sg360
I27
sg361
I79
sg362
I36
sa(dp382
g357
g368
sg358
I17
sg359
I1
sg360
I46
sg361
I79
sg362
I46
sa(dp383
g357
g368
sg358
I18
sg359
I0
sg360
I5
sg361
I67
sg362
I0
satRp384
(dp385
g39
I01
sg40
(lp386
g358
ag361
ag359
ag362
ag360
ag357
asg42
Nsg43
I0
sg44
g45
(g13
tRp387
sbsS'max_archive_size'
p388
NsS'solution_found_flag'
p389
I01
sS'time_taken'
p390
F366.51023483276367
sS'benchmark_name'
p391
S'D_A2'
p392
sa(dp393
S'tree_str'
p394
S'a2(a2(a2(ARG2,a2(a2(ARG1,ARG1),a2(a2(ARG1,ARG1),ARG0))),a2(ARG2,a2(a2(a2(ARG0,ARG2),a2(a2(ARG1,ARG1),ARG1)),a2(a2(ARG0,a2(ARG1,ARG0)),a2(ARG0,a2(a2(ARG2,ARG1),ARG0)))))),a2(a2(a2(a2(a2(ARG2,ARG2),a2(ARG1,ARG1)),a2(ARG1,a2(ARG1,ARG0))),a2(ARG2,ARG1)),a2(a2(a2(ARG0,ARG0),a2(ARG0,ARG2)),a2(a2(ARG0,ARG0),a2(ARG2,ARG2)))))'
p395
sS'tree_len'
p396
I71
sS'archive_size'
p397
I19369
sS'number_of_operators'
p398
I35
sS'alg_name'
p399
S'small-LTI'
p400
sS'archive_tree_deapth'
p401
I3
sS'logbook'
p402
g12
(g13
g14
(lp403
(dp404
S'status'
p405
NsS'iteration'
p406
I0
sS'count_wrongs'
p407
I6
sS'picked_node'
p408
NsS'len_master_tree'
p409
I1
sS'total_wrongs'
p410
I6
sa(dp411
g405
S'worst'
p412
sg406
I1
sg407
I7
sg408
I0
sg409
I11
sg410
I65
sa(dp413
g405
S'better'
p414
sg406
I2
sg407
I4
sg408
I7
sg409
I17
sg410
I34
sa(dp415
g405
S'perfect'
p416
sg406
I3
sg407
I4
sg408
I11
sg409
I25
sg410
I34
sa(dp417
g405
g416
sg406
I4
sg407
I4
sg408
I12
sg409
I31
sg410
I25
sa(dp418
g405
g414
sg406
I5
sg407
I4
sg408
I9
sg409
I39
sg410
I38
sa(dp419
g405
g416
sg406
I6
sg407
I4
sg408
I23
sg409
I39
sg410
I32
sa(dp420
g405
g416
sg406
I7
sg407
I3
sg408
I11
sg409
I41
sg410
I11
sa(dp421
g405
g414
sg406
I8
sg407
I2
sg408
I2
sg409
I49
sg410
I23
sa(dp422
g405
g416
sg406
I9
sg407
I1
sg408
I44
sg409
I57
sg410
I3
sa(dp423
g405
g416
sg406
I10
sg407
I0
sg408
I2
sg409
I71
sg410
I0
satRp424
(dp425
g39
I01
sg40
(lp426
g406
ag409
ag407
ag410
ag408
ag405
asg42
Nsg43
I0
sg44
g45
(g13
tRp427
sbsS'max_archive_size'
p428
NsS'solution_found_flag'
p429
I01
sS'time_taken'
p430
F324.70313501358032
sS'benchmark_name'
p431
S'D_A2'
p432
sa(dp433
S'tree_str'
p434
S'a2(a2(a2(a2(ARG1,ARG1),a2(a2(ARG2,ARG1),a2(ARG1,ARG0))),a2(ARG2,a2(a2(a2(ARG1,ARG2),a2(ARG2,a2(ARG0,ARG2))),a2(a2(ARG0,ARG2),a2(a2(ARG2,a2(ARG1,ARG0)),a2(ARG0,ARG2)))))),a2(a2(a2(ARG1,a2(ARG2,a2(a2(a2(a2(ARG0,ARG1),ARG2),ARG1),a2(a2(ARG0,ARG1),ARG0)))),a2(a2(ARG0,ARG0),a2(a2(ARG0,a2(a2(ARG1,ARG0),a2(ARG0,ARG2))),a2(ARG2,ARG2)))),a2(ARG0,a2(ARG0,a2(a2(ARG1,a2(ARG1,ARG2)),a2(ARG0,ARG0))))))'
p435
sS'tree_len'
p436
I87
sS'archive_size'
p437
I19369
sS'number_of_operators'
p438
I43
sS'alg_name'
p439
S'small-LTI'
p440
sS'archive_tree_deapth'
p441
I3
sS'logbook'
p442
g12
(g13
g14
(lp443
(dp444
S'status'
p445
NsS'iteration'
p446
I0
sS'count_wrongs'
p447
I6
sS'picked_node'
p448
NsS'len_master_tree'
p449
I1
sS'total_wrongs'
p450
I6
sa(dp451
g445
S'worst'
p452
sg446
I1
sg447
I7
sg448
I0
sg449
I11
sg450
I65
sa(dp453
g445
S'better'
p454
sg446
I2
sg447
I4
sg448
I7
sg449
I17
sg450
I34
sa(dp455
g445
S'perfect'
p456
sg446
I3
sg447
I4
sg448
I11
sg449
I25
sg450
I34
sa(dp457
g445
g456
sg446
I4
sg447
I4
sg448
I12
sg449
I31
sg450
I25
sa(dp458
g445
g454
sg446
I5
sg447
I4
sg448
I7
sg449
I39
sg450
I42
sa(dp459
g445
g456
sg446
I6
sg447
I4
sg448
I12
sg449
I39
sg450
I34
sa(dp460
g445
g456
sg446
I7
sg447
I3
sg448
I12
sg449
I41
sg450
I11
sa(dp461
g445
g454
sg446
I8
sg447
I3
sg448
I2
sg449
I49
sg450
I21
sa(dp462
g445
g456
sg446
I9
sg447
I2
sg448
I48
sg449
I57
sg450
I10
sa(dp463
g445
g456
sg446
I10
sg447
I1
sg448
I41
sg449
I65
sg450
I3
sa(dp464
g445
g452
sg446
I11
sg447
I2
sg448
I2
sg449
I69
sg450
I28
sa(dp465
g445
g456
sg446
I12
sg447
I2
sg448
I50
sg449
I73
sg450
I24
sa(dp466
g445
g456
sg446
I13
sg447
I1
sg448
I55
sg449
I79
sg450
I7
sa(dp467
g445
g456
sg446
I14
sg447
I0
sg448
I62
sg449
I87
sg450
I0
satRp468
(dp469
g39
I01
sg40
(lp470
g446
ag449
ag447
ag450
ag448
ag445
asg42
Nsg43
I0
sg44
g45
(g13
tRp471
sbsS'max_archive_size'
p472
NsS'solution_found_flag'
p473
I01
sS'time_taken'
p474
F302.69453406333923
sS'benchmark_name'
p475
S'D_A2'
p476
sa(dp477
S'tree_str'
p478
S'a2(a2(a2(ARG2,a2(a2(ARG0,ARG1),a2(a2(ARG1,ARG0),ARG0))),a2(ARG2,a2(a2(a2(ARG0,ARG2),a2(a2(ARG1,ARG1),ARG1)),a2(a2(ARG2,ARG0),a2(ARG0,a2(a2(ARG2,ARG1),ARG0)))))),a2(a2(a2(a2(a2(ARG2,ARG2),a2(ARG1,ARG1)),a2(ARG1,a2(ARG1,ARG0))),a2(ARG2,ARG1)),a2(a2(a2(ARG0,ARG0),a2(ARG0,ARG2)),a2(a2(ARG0,ARG0),a2(ARG2,ARG2)))))'
p479
sS'tree_len'
p480
I69
sS'archive_size'
p481
I19369
sS'number_of_operators'
p482
I34
sS'alg_name'
p483
S'small-LTI'
p484
sS'archive_tree_deapth'
p485
I3
sS'logbook'
p486
g12
(g13
g14
(lp487
(dp488
S'status'
p489
NsS'iteration'
p490
I0
sS'count_wrongs'
p491
I6
sS'picked_node'
p492
NsS'len_master_tree'
p493
I1
sS'total_wrongs'
p494
I6
sa(dp495
g489
S'worst'
p496
sg490
I1
sg491
I7
sg492
I0
sg493
I11
sg494
I65
sa(dp497
g489
S'better'
p498
sg490
I2
sg491
I4
sg492
I7
sg493
I17
sg494
I34
sa(dp499
g489
S'perfect'
p500
sg490
I3
sg491
I4
sg492
I11
sg493
I25
sg494
I34
sa(dp501
g489
g500
sg490
I4
sg491
I4
sg492
I12
sg493
I31
sg494
I25
sa(dp502
g489
g498
sg490
I5
sg491
I4
sg492
I9
sg493
I39
sg494
I38
sa(dp503
g489
g500
sg490
I6
sg491
I4
sg492
I23
sg493
I39
sg494
I32
sa(dp504
g489
g500
sg490
I7
sg491
I3
sg492
I11
sg493
I39
sg494
I11
sa(dp505
g489
g498
sg490
I8
sg491
I2
sg492
I2
sg493
I47
sg494
I23
sa(dp506
g489
g500
sg490
I9
sg491
I1
sg492
I42
sg493
I55
sg494
I3
sa(dp507
g489
g500
sg490
I10
sg491
I0
sg492
I2
sg493
I69
sg494
I0
satRp508
(dp509
g39
I01
sg40
(lp510
g490
ag493
ag491
ag494
ag492
ag489
asg42
Nsg43
I0
sg44
g45
(g13
tRp511
sbsS'max_archive_size'
p512
NsS'solution_found_flag'
p513
I01
sS'time_taken'
p514
F289.61304211616516
sS'benchmark_name'
p515
S'D_A2'
p516
sa(dp517
S'tree_str'
p518
S'a2(a2(a2(a2(ARG1,ARG1),a2(a2(ARG2,ARG1),a2(ARG1,ARG0))),a2(ARG2,a2(a2(a2(ARG2,ARG0),a2(ARG0,ARG2)),a2(a2(ARG0,ARG2),ARG1)))),a2(a2(a2(a2(a2(ARG2,ARG2),a2(ARG1,ARG1)),a2(ARG1,a2(ARG1,ARG0))),a2(ARG2,ARG1)),a2(a2(a2(ARG2,a2(ARG1,ARG2)),a2(ARG1,ARG2)),a2(a2(ARG0,ARG0),ARG0))))'
p519
sS'tree_len'
p520
I61
sS'archive_size'
p521
I19369
sS'number_of_operators'
p522
I30
sS'alg_name'
p523
S'small-LTI'
p524
sS'archive_tree_deapth'
p525
I3
sS'logbook'
p526
g12
(g13
g14
(lp527
(dp528
S'status'
p529
NsS'iteration'
p530
I0
sS'count_wrongs'
p531
I6
sS'picked_node'
p532
NsS'len_master_tree'
p533
I1
sS'total_wrongs'
p534
I6
sa(dp535
g529
S'worst'
p536
sg530
I1
sg531
I7
sg532
I0
sg533
I11
sg534
I65
sa(dp537
g529
S'better'
p538
sg530
I2
sg531
I4
sg532
I7
sg533
I17
sg534
I34
sa(dp539
g529
S'perfect'
p540
sg530
I3
sg531
I4
sg532
I11
sg533
I25
sg534
I34
sa(dp541
g529
g540
sg530
I4
sg531
I4
sg532
I12
sg533
I31
sg534
I25
sa(dp542
g529
g538
sg530
I5
sg531
I4
sg532
I7
sg533
I39
sg534
I42
sa(dp543
g529
g540
sg530
I6
sg531
I4
sg532
I12
sg533
I39
sg534
I34
sa(dp544
g529
g540
sg530
I7
sg531
I3
sg532
I12
sg533
I41
sg534
I11
sa(dp545
g529
g538
sg530
I8
sg531
I2
sg532
I2
sg533
I49
sg534
I23
sa(dp546
g529
g540
sg530
I9
sg531
I1
sg532
I45
sg533
I57
sg534
I11
sa(dp547
g529
g540
sg530
I10
sg531
I1
sg532
I44
sg533
I57
sg534
I3
sa(dp548
g529
g536
sg530
I11
sg531
I2
sg532
I2
sg533
I63
sg534
I71
sa(dp549
g529
g540
sg530
I12
sg531
I1
sg532
I5
sg533
I53
sg534
I17
sa(dp550
g529
g540
sg530
I13
sg531
I0
sg532
I34
sg533
I61
sg534
I0
satRp551
(dp552
g39
I01
sg40
(lp553
g530
ag533
ag531
ag534
ag532
ag529
asg42
Nsg43
I0
sg44
g45
(g13
tRp554
sbsS'max_archive_size'
p555
NsS'solution_found_flag'
p556
I01
sS'time_taken'
p557
F302.8519070148468
sS'benchmark_name'
p558
S'D_A2'
p559
sa(dp560
S'tree_str'
p561
S'a2(a2(a2(ARG2,a2(a2(ARG1,ARG1),a2(a2(ARG1,ARG1),ARG0))),a2(ARG2,a2(a2(a2(ARG0,ARG2),a2(a2(ARG1,ARG1),ARG1)),a2(a2(ARG0,a2(ARG1,ARG0)),a2(ARG0,a2(a2(ARG2,ARG1),ARG0)))))),a2(a2(a2(a2(a2(ARG2,ARG2),a2(ARG1,ARG1)),a2(ARG1,a2(ARG1,ARG0))),a2(ARG2,ARG1)),a2(a2(a2(ARG0,ARG0),a2(ARG0,ARG2)),a2(a2(ARG0,ARG0),a2(ARG2,ARG2)))))'
p562
sS'tree_len'
p563
I71
sS'archive_size'
p564
I19369
sS'number_of_operators'
p565
I35
sS'alg_name'
p566
S'small-LTI'
p567
sS'archive_tree_deapth'
p568
I3
sS'logbook'
p569
g12
(g13
g14
(lp570
(dp571
S'status'
p572
NsS'iteration'
p573
I0
sS'count_wrongs'
p574
I6
sS'picked_node'
p575
NsS'len_master_tree'
p576
I1
sS'total_wrongs'
p577
I6
sa(dp578
g572
S'worst'
p579
sg573
I1
sg574
I7
sg575
I0
sg576
I11
sg577
I65
sa(dp580
g572
S'better'
p581
sg573
I2
sg574
I4
sg575
I7
sg576
I17
sg577
I34
sa(dp582
g572
S'perfect'
p583
sg573
I3
sg574
I4
sg575
I11
sg576
I25
sg577
I34
sa(dp584
g572
g583
sg573
I4
sg574
I4
sg575
I12
sg576
I31
sg577
I25
sa(dp585
g572
g581
sg573
I5
sg574
I4
sg575
I9
sg576
I39
sg577
I38
sa(dp586
g572
g583
sg573
I6
sg574
I4
sg575
I23
sg576
I39
sg577
I32
sa(dp587
g572
g583
sg573
I7
sg574
I3
sg575
I13
sg576
I41
sg577
I11
sa(dp588
g572
g581
sg573
I8
sg574
I2
sg575
I2
sg576
I49
sg577
I23
sa(dp589
g572
g583
sg573
I9
sg574
I1
sg575
I44
sg576
I57
sg577
I3
sa(dp590
g572
g583
sg573
I10
sg574
I0
sg575
I2
sg576
I71
sg577
I0
satRp591
(dp592
g39
I01
sg40
(lp593
g573
ag576
ag574
ag577
ag575
ag572
asg42
Nsg43
I0
sg44
g45
(g13
tRp594
sbsS'max_archive_size'
p595
NsS'solution_found_flag'
p596
I01
sS'time_taken'
p597
F291.49329495429993
sS'benchmark_name'
p598
S'D_A2'
p599
sa(dp600
S'tree_str'
p601
S'a2(a2(a2(ARG2,a2(a2(ARG0,ARG1),a2(a2(ARG1,ARG0),ARG0))),a2(ARG2,a2(a2(a2(ARG1,ARG2),a2(a2(ARG0,ARG1),ARG0)),a2(a2(ARG2,ARG0),a2(a2(a2(ARG2,ARG1),ARG0),a2(ARG2,ARG0)))))),a2(a2(a2(a2(ARG1,a2(ARG1,ARG0)),a2(a2(ARG0,ARG2),a2(ARG2,ARG1))),a2(a2(ARG1,ARG1),ARG1)),a2(ARG2,a2(a2(a2(ARG2,ARG0),ARG0),ARG0))))'
p602
sS'tree_len'
p603
I67
sS'archive_size'
p604
I19369
sS'number_of_operators'
p605
I33
sS'alg_name'
p606
S'small-LTI'
p607
sS'archive_tree_deapth'
p608
I3
sS'logbook'
p609
g12
(g13
g14
(lp610
(dp611
S'status'
p612
NsS'iteration'
p613
I0
sS'count_wrongs'
p614
I6
sS'picked_node'
p615
NsS'len_master_tree'
p616
I1
sS'total_wrongs'
p617
I6
sa(dp618
g612
S'worst'
p619
sg613
I1
sg614
I7
sg615
I0
sg616
I11
sg617
I65
sa(dp620
g612
S'better'
p621
sg613
I2
sg614
I4
sg615
I7
sg616
I17
sg617
I34
sa(dp622
g612
S'perfect'
p623
sg613
I3
sg614
I4
sg615
I13
sg616
I25
sg617
I33
sa(dp624
g612
g623
sg613
I4
sg614
I4
sg615
I11
sg616
I33
sg617
I25
sa(dp625
g612
g621
sg613
I5
sg614
I4
sg615
I9
sg616
I41
sg617
I41
sa(dp626
g612
g623
sg613
I6
sg614
I4
sg615
I14
sg616
I41
sg617
I32
sa(dp627
g612
g623
sg613
I7
sg614
I3
sg615
I11
sg616
I41
sg617
I11
sa(dp628
g612
g621
sg613
I8
sg614
I2
sg615
I2
sg616
I53
sg617
I16
sa(dp629
g612
g623
sg613
I9
sg614
I1
sg615
I46
sg616
I57
sg617
I3
sa(dp630
g612
g619
sg613
I10
sg614
I2
sg615
I2
sg616
I61
sg617
I39
sa(dp631
g612
g623
sg613
I11
sg614
I1
sg615
I58
sg616
I65
sg617
I17
sa(dp632
g612
g623
sg613
I12
sg614
I0
sg615
I45
sg616
I67
sg617
I0
satRp633
(dp634
g39
I01
sg40
(lp635
g613
ag616
ag614
ag617
ag615
ag612
asg42
Nsg43
I0
sg44
g45
(g13
tRp636
sbsS'max_archive_size'
p637
NsS'solution_found_flag'
p638
I01
sS'time_taken'
p639
F296.48288679122925
sS'benchmark_name'
p640
S'D_A2'
p641
sa(dp642
S'tree_str'
p643
S'a2(a2(a2(ARG2,a2(ARG1,a2(a2(a2(ARG0,ARG1),a2(ARG2,ARG2)),a2(a2(ARG1,ARG2),a2(ARG1,ARG0))))),a2(ARG2,ARG0)),a2(a2(a2(ARG1,a2(a2(a2(ARG1,a2(ARG1,a2(a2(ARG0,a2(ARG2,ARG0)),a2(ARG2,ARG0)))),a2(ARG2,ARG0)),ARG0)),a2(ARG2,a2(a2(ARG2,a2(a2(ARG2,ARG2),a2(ARG2,ARG0))),a2(a2(a2(ARG0,ARG2),ARG0),ARG0)))),a2(ARG0,a2(a2(a2(ARG0,ARG0),ARG0),a2(a2(a2(ARG1,ARG0),a2(ARG1,ARG2)),a2(a2(ARG0,ARG1),ARG0))))))'
p644
sS'tree_len'
p645
I87
sS'archive_size'
p646
I19369
sS'number_of_operators'
p647
I43
sS'alg_name'
p648
S'small-LTI'
p649
sS'archive_tree_deapth'
p650
I3
sS'logbook'
p651
g12
(g13
g14
(lp652
(dp653
S'status'
p654
NsS'iteration'
p655
I0
sS'count_wrongs'
p656
I6
sS'picked_node'
p657
NsS'len_master_tree'
p658
I1
sS'total_wrongs'
p659
I6
sa(dp660
g654
S'worst'
p661
sg655
I1
sg656
I7
sg657
I0
sg658
I11
sg659
I65
sa(dp662
g654
S'better'
p663
sg655
I2
sg656
I5
sg657
I10
sg658
I17
sg659
I31
sa(dp664
g654
S'perfect'
p665
sg655
I3
sg656
I4
sg657
I14
sg658
I23
sg659
I18
sa(dp666
g654
g663
sg655
I4
sg656
I4
sg657
I2
sg658
I31
sg659
I42
sa(dp667
g654
g665
sg655
I5
sg656
I4
sg657
I13
sg658
I29
sg659
I34
sa(dp668
g654
g665
sg655
I6
sg656
I3
sg657
I11
sg658
I35
sg659
I21
sa(dp669
g654
g665
sg655
I7
sg656
I2
sg657
I18
sg658
I43
sg659
I10
sa(dp670
g654
g665
sg655
I8
sg656
I1
sg657
I14
sg658
I51
sg659
I3
sa(dp671
g654
g661
sg655
I9
sg656
I2
sg657
I2
sg658
I55
sg659
I24
sa(dp672
g654
g665
sg655
I10
sg656
I2
sg657
I45
sg658
I59
sg659
I30
sa(dp673
g654
g665
sg655
I11
sg656
I2
sg657
I42
sg658
I63
sg659
I27
sa(dp674
g654
g665
sg655
I12
sg656
I2
sg657
I40
sg658
I71
sg659
I22
sa(dp675
g654
g665
sg655
I13
sg656
I1
sg657
I45
sg658
I83
sg659
I15
sa(dp676
g654
g665
sg655
I14
sg656
I0
sg657
I44
sg658
I87
sg659
I0
satRp677
(dp678
g39
I01
sg40
(lp679
g655
ag658
ag656
ag659
ag657
ag654
asg42
Nsg43
I0
sg44
g45
(g13
tRp680
sbsS'max_archive_size'
p681
NsS'solution_found_flag'
p682
I01
sS'time_taken'
p683
F334.22874093055725
sS'benchmark_name'
p684
S'D_A2'
p685
sa(dp686
S'tree_str'
p687
S'a2(a2(a2(ARG2,a2(ARG1,a2(a2(a2(ARG0,ARG1),a2(ARG2,ARG2)),a2(a2(ARG1,ARG2),a2(ARG1,ARG0))))),a2(ARG2,ARG0)),a2(a2(a2(ARG1,a2(a2(ARG1,a2(ARG1,ARG0)),a2(ARG0,a2(ARG2,ARG0)))),a2(a2(a2(ARG0,ARG2),ARG0),a2(ARG0,a2(ARG2,ARG2)))),a2(a2(a2(a2(ARG1,ARG2),ARG0),a2(a2(ARG1,ARG2),a2(ARG1,ARG0))),a2(ARG1,ARG0))))'
p688
sS'tree_len'
p689
I67
sS'archive_size'
p690
I19369
sS'number_of_operators'
p691
I33
sS'alg_name'
p692
S'small-LTI'
p693
sS'archive_tree_deapth'
p694
I3
sS'logbook'
p695
g12
(g13
g14
(lp696
(dp697
S'status'
p698
NsS'iteration'
p699
I0
sS'count_wrongs'
p700
I6
sS'picked_node'
p701
NsS'len_master_tree'
p702
I1
sS'total_wrongs'
p703
I6
sa(dp704
g698
S'worst'
p705
sg699
I1
sg700
I7
sg701
I0
sg702
I11
sg703
I65
sa(dp706
g698
S'better'
p707
sg699
I2
sg700
I5
sg701
I10
sg702
I17
sg703
I31
sa(dp708
g698
S'perfect'
p709
sg699
I3
sg700
I4
sg701
I16
sg702
I23
sg703
I18
sa(dp710
g698
g707
sg699
I4
sg700
I4
sg701
I2
sg702
I31
sg703
I42
sa(dp711
g698
g709
sg699
I5
sg700
I4
sg701
I13
sg702
I29
sg703
I34
sa(dp712
g698
g709
sg699
I6
sg700
I3
sg701
I11
sg702
I35
sg703
I21
sa(dp713
g698
g709
sg699
I7
sg700
I2
sg701
I17
sg702
I43
sg703
I10
sa(dp714
g698
g709
sg699
I8
sg700
I1
sg701
I12
sg702
I51
sg703
I3
sa(dp715
g698
g705
sg699
I9
sg700
I2
sg701
I2
sg702
I59
sg703
I19
sa(dp716
g698
g709
sg699
I10
sg700
I1
sg701
I57
sg702
I65
sg703
I9
sa(dp717
g698
g709
sg699
I11
sg700
I0
sg701
I54
sg702
I67
sg703
I0
satRp718
(dp719
g39
I01
sg40
(lp720
g699
ag702
ag700
ag703
ag701
ag698
asg42
Nsg43
I0
sg44
g45
(g13
tRp721
sbsS'max_archive_size'
p722
NsS'solution_found_flag'
p723
I01
sS'time_taken'
p724
F313.15199613571167
sS'benchmark_name'
p725
S'D_A2'
p726
sa(dp727
S'tree_str'
p728
S'a2(a2(a2(ARG2,a2(ARG1,a2(a2(a2(ARG0,ARG1),a2(ARG2,ARG2)),a2(a2(ARG1,ARG2),a2(ARG1,ARG0))))),a2(ARG2,ARG0)),a2(a2(a2(ARG1,a2(a2(a2(ARG1,a2(ARG1,a2(a2(ARG0,a2(ARG2,ARG0)),a2(ARG2,ARG0)))),a2(ARG2,ARG0)),ARG0)),a2(ARG2,a2(a2(ARG2,a2(a2(ARG2,ARG2),a2(ARG2,ARG0))),a2(a2(a2(ARG0,ARG2),ARG0),ARG0)))),a2(ARG0,a2(a2(a2(ARG0,ARG0),ARG0),a2(a2(a2(ARG1,ARG0),a2(ARG1,ARG2)),a2(a2(ARG0,ARG1),ARG0))))))'
p729
sS'tree_len'
p730
I87
sS'archive_size'
p731
I19369
sS'number_of_operators'
p732
I43
sS'alg_name'
p733
S'small-LTI'
p734
sS'archive_tree_deapth'
p735
I3
sS'logbook'
p736
g12
(g13
g14
(lp737
(dp738
S'status'
p739
NsS'iteration'
p740
I0
sS'count_wrongs'
p741
I6
sS'picked_node'
p742
NsS'len_master_tree'
p743
I1
sS'total_wrongs'
p744
I6
sa(dp745
g739
S'worst'
p746
sg740
I1
sg741
I7
sg742
I0
sg743
I11
sg744
I65
sa(dp747
g739
S'better'
p748
sg740
I2
sg741
I5
sg742
I10
sg743
I17
sg744
I31
sa(dp749
g739
S'perfect'
p750
sg740
I3
sg741
I4
sg742
I14
sg743
I23
sg744
I18
sa(dp751
g739
g748
sg740
I4
sg741
I4
sg742
I2
sg743
I31
sg744
I42
sa(dp752
g739
g750
sg740
I5
sg741
I4
sg742
I13
sg743
I29
sg744
I34
sa(dp753
g739
g750
sg740
I6
sg741
I3
sg742
I11
sg743
I35
sg744
I21
sa(dp754
g739
g750
sg740
I7
sg741
I2
sg742
I18
sg743
I43
sg744
I10
sa(dp755
g739
g750
sg740
I8
sg741
I1
sg742
I14
sg743
I51
sg744
I3
sa(dp756
g739
g746
sg740
I9
sg741
I2
sg742
I2
sg743
I55
sg744
I24
sa(dp757
g739
g750
sg740
I10
sg741
I2
sg742
I45
sg743
I59
sg744
I30
sa(dp758
g739
g750
sg740
I11
sg741
I2
sg742
I43
sg743
I63
sg744
I27
sa(dp759
g739
g750
sg740
I12
sg741
I2
sg742
I40
sg743
I71
sg744
I22
sa(dp760
g739
g750
sg740
I13
sg741
I1
sg742
I47
sg743
I83
sg744
I15
sa(dp761
g739
g750
sg740
I14
sg741
I0
sg742
I46
sg743
I87
sg744
I0
satRp762
(dp763
g39
I01
sg40
(lp764
g740
ag743
ag741
ag744
ag742
ag739
asg42
Nsg43
I0
sg44
g45
(g13
tRp765
sbsS'max_archive_size'
p766
NsS'solution_found_flag'
p767
I01
sS'time_taken'
p768
F332.40398001670837
sS'benchmark_name'
p769
S'D_A2'
p770
sa(dp771
S'tree_str'
p772
S'a2(a2(a2(ARG2,a2(ARG1,a2(a2(a2(ARG0,ARG1),a2(ARG2,ARG2)),a2(a2(ARG1,ARG2),a2(ARG1,ARG0))))),a2(ARG2,ARG0)),a2(a2(a2(ARG1,a2(a2(a2(ARG1,a2(ARG1,a2(a2(ARG0,a2(ARG2,ARG0)),a2(ARG2,ARG0)))),a2(ARG2,ARG0)),ARG0)),a2(a2(a2(ARG0,ARG2),a2(a2(a2(ARG0,ARG1),a2(ARG1,ARG0)),a2(a2(ARG1,ARG2),ARG1))),a2(ARG0,a2(ARG2,ARG2)))),a2(a2(a2(ARG0,ARG0),a2(ARG1,ARG2)),a2(a2(ARG1,ARG2),ARG0))))'
p773
sS'tree_len'
p774
I83
sS'archive_size'
p775
I19369
sS'number_of_operators'
p776
I41
sS'alg_name'
p777
S'small-LTI'
p778
sS'archive_tree_deapth'
p779
I3
sS'logbook'
p780
g12
(g13
g14
(lp781
(dp782
S'status'
p783
NsS'iteration'
p784
I0
sS'count_wrongs'
p785
I6
sS'picked_node'
p786
NsS'len_master_tree'
p787
I1
sS'total_wrongs'
p788
I6
sa(dp789
g783
S'worst'
p790
sg784
I1
sg785
I7
sg786
I0
sg787
I11
sg788
I65
sa(dp791
g783
S'better'
p792
sg784
I2
sg785
I5
sg786
I10
sg787
I17
sg788
I31
sa(dp793
g783
S'perfect'
p794
sg784
I3
sg785
I4
sg786
I16
sg787
I23
sg788
I18
sa(dp795
g783
g792
sg784
I4
sg785
I4
sg786
I2
sg787
I31
sg788
I42
sa(dp796
g783
g794
sg784
I5
sg785
I4
sg786
I13
sg787
I29
sg788
I34
sa(dp797
g783
g794
sg784
I6
sg785
I3
sg786
I11
sg787
I35
sg788
I21
sa(dp798
g783
g794
sg784
I7
sg785
I2
sg786
I18
sg787
I43
sg788
I10
sa(dp799
g783
g794
sg784
I8
sg785
I1
sg786
I12
sg787
I51
sg788
I3
sa(dp800
g783
g790
sg784
I9
sg785
I2
sg786
I2
sg787
I55
sg788
I33
sa(dp801
g783
g794
sg784
I10
sg785
I2
sg786
I38
sg787
I63
sg788
I28
sa(dp802
g783
g794
sg784
I11
sg785
I1
sg786
I45
sg787
I75
sg788
I7
sa(dp803
g783
g794
sg784
I12
sg785
I0
sg786
I48
sg787
I83
sg788
I0
satRp804
(dp805
g39
I01
sg40
(lp806
g784
ag787
ag785
ag788
ag786
ag783
asg42
Nsg43
I0
sg44
g45
(g13
tRp807
sbsS'max_archive_size'
p808
NsS'solution_found_flag'
p809
I01
sS'time_taken'
p810
F326.57931685447693
sS'benchmark_name'
p811
S'D_A2'
p812
sa(dp813
S'tree_str'
p814
S'a2(a2(a2(ARG2,a2(a2(ARG1,a2(ARG0,ARG2)),a2(a2(ARG2,ARG0),ARG0))),a2(ARG2,ARG0)),a2(a2(a2(ARG0,ARG1),a2(a2(ARG0,ARG2),ARG1)),a2(a2(a2(ARG2,a2(ARG1,ARG2)),a2(ARG1,ARG2)),a2(ARG1,ARG0))))'
p815
sS'tree_len'
p816
I41
sS'archive_size'
p817
I19369
sS'number_of_operators'
p818
I20
sS'alg_name'
p819
S'small-LTI'
p820
sS'archive_tree_deapth'
p821
I3
sS'logbook'
p822
g12
(g13
g14
(lp823
(dp824
S'status'
p825
NsS'iteration'
p826
I0
sS'count_wrongs'
p827
I6
sS'picked_node'
p828
NsS'len_master_tree'
p829
I1
sS'total_wrongs'
p830
I6
sa(dp831
g825
S'worst'
p832
sg826
I1
sg827
I7
sg828
I0
sg829
I11
sg830
I65
sa(dp833
g825
S'better'
p834
sg826
I2
sg827
I5
sg828
I10
sg829
I17
sg830
I32
sa(dp835
g825
S'perfect'
p836
sg826
I3
sg827
I4
sg828
I14
sg829
I23
sg830
I18
sa(dp837
g825
g834
sg826
I4
sg827
I4
sg828
I2
sg829
I31
sg830
I84
sa(dp838
g825
g836
sg826
I5
sg827
I4
sg828
I18
sg829
I31
sg830
I68
sa(dp839
g825
g836
sg826
I6
sg827
I4
sg828
I18
sg829
I33
sg830
I60
sa(dp840
g825
g836
sg826
I7
sg827
I2
sg828
I23
sg829
I41
sg830
I16
sa(dp841
g825
g836
sg826
I8
sg827
I1
sg828
I9
sg829
I37
sg830
I3
sa(dp842
g825
g832
sg826
I9
sg827
I2
sg828
I2
sg829
I45
sg830
I34
sa(dp843
g825
g836
sg826
I10
sg827
I2
sg828
I8
sg829
I37
sg830
I19
sa(dp844
g825
g836
sg826
I11
sg827
I0
sg828
I23
sg829
I41
sg830
I0
satRp845
(dp846
g39
I01
sg40
(lp847
g826
ag829
ag827
ag830
ag828
ag825
asg42
Nsg43
I0
sg44
g45
(g13
tRp848
sbsS'max_archive_size'
p849
NsS'solution_found_flag'
p850
I01
sS'time_taken'
p851
F319.03084683418274
sS'benchmark_name'
p852
S'D_A2'
p853
sa.