(lp1
(dp2
S'tree_str'
p3
S'a3(a3(a3(a3(ARG2,a3(ARG1,ARG1)),a3(a3(ARG0,ARG1),ARG1)),a3(ARG0,a3(ARG1,ARG1))),a3(a3(a3(a3(a3(ARG2,ARG2),ARG0),a3(a3(ARG0,ARG0),a3(ARG0,ARG0))),a3(ARG1,a3(a3(ARG2,ARG2),a3(ARG2,a3(ARG0,ARG0))))),a3(a3(a3(ARG0,a3(ARG1,ARG0)),a3(ARG2,ARG0)),a3(a3(ARG0,ARG2),a3(ARG0,ARG0)))))'
p4
sS'tree_len'
p5
I61
sS'archive_size'
p6
I18032
sS'number_of_operators'
p7
I30
sS'alg_name'
p8
S'small-LTI'
p9
sS'archive_tree_deapth'
p10
I3
sS'logbook'
p11
ccopy_reg
_reconstructor
p12
(ctreeimprove.utilities
Logbook
p13
c__builtin__
list
p14
(lp15
(dp16
S'status'
p17
NsS'iteration'
p18
I0
sS'count_wrongs'
p19
I6
sS'picked_node'
p20
NsS'len_master_tree'
p21
I1
sS'total_wrongs'
p22
I6
sa(dp23
g17
S'worst'
p24
sg18
I1
sg19
I7
sg20
I0
sg21
I11
sg22
I49
sa(dp25
g17
S'perfect'
p26
sg18
I2
sg19
I6
sg20
I5
sg21
I13
sg22
I33
sa(dp27
g17
g26
sg18
I3
sg19
I5
sg20
I8
sg21
I21
sg22
I26
sa(dp28
g17
g26
sg18
I4
sg19
I4
sg20
I9
sg21
I27
sg22
I16
sa(dp29
g17
g26
sg18
I5
sg19
I2
sg20
I4
sg21
I39
sg22
I6
sa(dp30
g17
g26
sg18
I6
sg19
I1
sg20
I2
sg21
I53
sg22
I3
sa(dp31
g17
g24
sg18
I7
sg19
I2
sg20
I3
sg21
I47
sg22
I36
sa(dp32
g17
g26
sg18
I8
sg19
I2
sg20
I33
sg21
I49
sg22
I21
sa(dp33
g17
g26
sg18
I9
sg19
I1
sg20
I5
sg21
I51
sg22
I3
sa(dp34
g17
g24
sg18
I10
sg19
I2
sg20
I26
sg21
I55
sg22
I39
sa(dp35
g17
g26
sg18
I11
sg19
I1
sg20
I47
sg21
I55
sg22
I32
sa(dp36
g17
g26
sg18
I12
sg19
I1
sg20
I5
sg21
I55
sg22
I18
sa(dp37
g17
g26
sg18
I13
sg19
I1
sg20
I37
sg21
I57
sg22
I15
sa(dp38
g17
g26
sg18
I14
sg19
I0
sg20
I35
sg21
I61
sg22
I0
satRp39
(dp40
S'log_header'
p41
I01
sS'header'
p42
(lp43
g18
ag21
ag19
ag22
ag20
ag17
asS'columns_len'
p44
NsS'buffindex'
p45
I0
sS'chapters'
p46
ccollections
defaultdict
p47
(g13
tRp48
sbsS'max_archive_size'
p49
NsS'solution_found_flag'
p50
I01
sS'time_taken'
p51
F282.85461282730103
sS'benchmark_name'
p52
S'D_A3'
p53
sa(dp54
S'tree_str'
p55
S'a3(a3(a3(a3(ARG2,ARG0),a3(a3(ARG1,ARG1),a3(ARG1,ARG0))),a3(ARG0,a3(ARG1,ARG1))),a3(a3(a3(a3(a3(ARG2,ARG2),ARG2),a3(a3(ARG0,ARG0),a3(ARG0,ARG2))),a3(a3(a3(ARG0,ARG0),a3(ARG2,ARG2)),a3(a3(ARG2,ARG1),a3(ARG1,ARG1)))),a3(a3(a3(ARG0,ARG1),a3(a3(a3(ARG2,ARG0),a3(ARG1,ARG0)),ARG0)),a3(a3(ARG2,a3(ARG0,ARG0)),a3(ARG0,ARG0)))))'
p56
sS'tree_len'
p57
I71
sS'archive_size'
p58
I18032
sS'number_of_operators'
p59
I35
sS'alg_name'
p60
S'small-LTI'
p61
sS'archive_tree_deapth'
p62
I3
sS'logbook'
p63
g12
(g13
g14
(lp64
(dp65
S'status'
p66
NsS'iteration'
p67
I0
sS'count_wrongs'
p68
I6
sS'picked_node'
p69
NsS'len_master_tree'
p70
I1
sS'total_wrongs'
p71
I6
sa(dp72
g66
S'worst'
p73
sg67
I1
sg68
I7
sg69
I0
sg70
I11
sg71
I49
sa(dp74
g66
S'perfect'
p75
sg67
I2
sg68
I6
sg69
I5
sg70
I13
sg71
I33
sa(dp76
g66
g75
sg67
I3
sg68
I5
sg69
I8
sg70
I21
sg71
I26
sa(dp77
g66
g75
sg67
I4
sg68
I4
sg69
I9
sg70
I27
sg71
I16
sa(dp78
g66
g75
sg67
I5
sg68
I2
sg69
I4
sg70
I39
sg71
I6
sa(dp79
g66
g75
sg67
I6
sg68
I1
sg69
I2
sg70
I53
sg71
I3
sa(dp80
g66
g73
sg67
I7
sg68
I2
sg69
I3
sg70
I47
sg71
I36
sa(dp81
g66
g75
sg67
I8
sg68
I2
sg69
I30
sg70
I49
sg71
I29
sa(dp82
g66
g75
sg67
I9
sg68
I2
sg69
I11
sg70
I53
sg71
I26
sa(dp83
g66
g75
sg67
I10
sg68
I2
sg69
I30
sg70
I59
sg71
I18
sa(dp84
g66
g75
sg67
I11
sg68
I1
sg69
I3
sg70
I61
sg71
I3
sa(dp85
g66
g73
sg67
I12
sg68
I2
sg69
I25
sg70
I61
sg71
I36
sa(dp86
g66
g75
sg67
I13
sg68
I2
sg69
I5
sg70
I61
sg71
I23
sa(dp87
g66
g75
sg67
I14
sg68
I1
sg69
I53
sg70
I61
sg71
I3
sa(dp88
g66
g73
sg67
I15
sg68
I2
sg69
I51
sg70
I61
sg71
I23
sa(dp89
g66
g75
sg67
I16
sg68
I1
sg69
I58
sg70
I61
sg71
I3
sa(dp90
g66
g73
sg67
I17
sg68
I2
sg69
I54
sg70
I61
sg71
I23
sa(dp91
g66
g75
sg67
I18
sg68
I1
sg69
I56
sg70
I61
sg71
I3
sa(dp92
g66
g73
sg67
I19
sg68
I2
sg69
I54
sg70
I61
sg71
I23
sa(dp93
g66
g75
sg67
I20
sg68
I1
sg69
I58
sg70
I61
sg71
I3
sa(dp94
g66
g75
sg67
I21
sg68
I0
sg69
I55
sg70
I71
sg71
I0
satRp95
(dp96
g41
I01
sg42
(lp97
g67
ag70
ag68
ag71
ag69
ag66
asg44
Nsg45
I0
sg46
g47
(g13
tRp98
sbsS'max_archive_size'
p99
NsS'solution_found_flag'
p100
I01
sS'time_taken'
p101
F294.74170398712158
sS'benchmark_name'
p102
S'D_A3'
p103
sa(dp104
S'tree_str'
p105
S'a3(a3(a3(a3(ARG2,ARG0),ARG0),a3(ARG0,a3(ARG1,ARG1))),a3(a3(a3(a3(a3(ARG2,ARG2),ARG1),a3(a3(ARG0,ARG0),a3(ARG0,ARG0))),a3(ARG1,a3(a3(ARG1,a3(ARG2,ARG0)),ARG0))),a3(a3(a3(ARG0,ARG1),a3(a3(a3(ARG0,ARG0),a3(ARG2,ARG0)),ARG0)),a3(a3(a3(a3(ARG1,ARG1),ARG0),a3(ARG2,ARG2)),a3(ARG0,ARG2)))))'
p106
sS'tree_len'
p107
I63
sS'archive_size'
p108
I18032
sS'number_of_operators'
p109
I31
sS'alg_name'
p110
S'small-LTI'
p111
sS'archive_tree_deapth'
p112
I3
sS'logbook'
p113
g12
(g13
g14
(lp114
(dp115
S'status'
p116
NsS'iteration'
p117
I0
sS'count_wrongs'
p118
I6
sS'picked_node'
p119
NsS'len_master_tree'
p120
I1
sS'total_wrongs'
p121
I6
sa(dp122
g116
S'worst'
p123
sg117
I1
sg118
I7
sg119
I0
sg120
I11
sg121
I49
sa(dp124
g116
S'perfect'
p125
sg117
I2
sg118
I6
sg119
I5
sg120
I13
sg121
I33
sa(dp126
g116
g125
sg117
I3
sg118
I5
sg119
I8
sg120
I21
sg121
I26
sa(dp127
g116
g125
sg117
I4
sg118
I4
sg119
I9
sg120
I27
sg121
I16
sa(dp128
g116
g125
sg117
I5
sg118
I2
sg119
I4
sg120
I39
sg121
I6
sa(dp129
g116
g125
sg117
I6
sg118
I1
sg119
I2
sg120
I53
sg121
I3
sa(dp130
g116
g123
sg117
I7
sg118
I2
sg119
I3
sg120
I47
sg121
I36
sa(dp131
g116
g125
sg117
I8
sg118
I2
sg119
I26
sg120
I49
sg121
I29
sa(dp132
g116
g125
sg117
I9
sg118
I2
sg119
I11
sg120
I53
sg121
I26
sa(dp133
g116
g125
sg117
I10
sg118
I2
sg119
I26
sg120
I59
sg121
I18
sa(dp134
g116
g125
sg117
I11
sg118
I1
sg119
I5
sg120
I55
sg121
I3
sa(dp135
g116
g123
sg117
I12
sg118
I2
sg119
I23
sg120
I57
sg121
I83
sa(dp136
g116
g125
sg117
I13
sg118
I2
sg119
I13
sg120
I57
sg121
I40
sa(dp137
g116
g125
sg117
I14
sg118
I2
sg119
I27
sg120
I57
sg121
I30
sa(dp138
g116
g125
sg117
I15
sg118
I2
sg119
I26
sg120
I57
sg121
I29
sa(dp139
g116
g125
sg117
I16
sg118
I1
sg119
I40
sg120
I59
sg121
I15
sa(dp140
g116
g125
sg117
I17
sg118
I1
sg119
I25
sg120
I59
sg121
I13
sa(dp141
g116
g125
sg117
I18
sg118
I0
sg119
I23
sg120
I63
sg121
I0
satRp142
(dp143
g41
I01
sg42
(lp144
g117
ag120
ag118
ag121
ag119
ag116
asg44
Nsg45
I0
sg46
g47
(g13
tRp145
sbsS'max_archive_size'
p146
NsS'solution_found_flag'
p147
I01
sS'time_taken'
p148
F293.44615602493286
sS'benchmark_name'
p149
S'D_A3'
p150
sa(dp151
S'tree_str'
p152
S'a3(a3(a3(a3(ARG2,ARG0),a3(a3(ARG1,ARG1),a3(ARG1,ARG0))),a3(ARG0,a3(ARG1,ARG1))),a3(a3(a3(a3(a3(ARG2,ARG2),ARG0),a3(a3(ARG0,ARG0),a3(ARG0,ARG0))),a3(ARG1,a3(a3(ARG2,ARG2),a3(ARG2,a3(ARG0,ARG0))))),a3(a3(a3(ARG0,a3(ARG1,ARG0)),a3(ARG2,ARG0)),a3(a3(ARG0,ARG2),a3(ARG0,ARG0)))))'
p153
sS'tree_len'
p154
I61
sS'archive_size'
p155
I18032
sS'number_of_operators'
p156
I30
sS'alg_name'
p157
S'small-LTI'
p158
sS'archive_tree_deapth'
p159
I3
sS'logbook'
p160
g12
(g13
g14
(lp161
(dp162
S'status'
p163
NsS'iteration'
p164
I0
sS'count_wrongs'
p165
I6
sS'picked_node'
p166
NsS'len_master_tree'
p167
I1
sS'total_wrongs'
p168
I6
sa(dp169
g163
S'worst'
p170
sg164
I1
sg165
I7
sg166
I0
sg167
I11
sg168
I49
sa(dp171
g163
S'perfect'
p172
sg164
I2
sg165
I6
sg166
I5
sg167
I13
sg168
I33
sa(dp173
g163
g172
sg164
I3
sg165
I5
sg166
I8
sg167
I21
sg168
I26
sa(dp174
g163
g172
sg164
I4
sg165
I4
sg166
I9
sg167
I27
sg168
I16
sa(dp175
g163
g172
sg164
I5
sg165
I2
sg166
I4
sg167
I39
sg168
I6
sa(dp176
g163
g172
sg164
I6
sg165
I1
sg166
I2
sg167
I53
sg168
I3
sa(dp177
g163
g170
sg164
I7
sg165
I2
sg166
I3
sg167
I47
sg168
I36
sa(dp178
g163
g172
sg164
I8
sg165
I2
sg166
I33
sg167
I49
sg168
I21
sa(dp179
g163
g172
sg164
I9
sg165
I1
sg166
I6
sg167
I51
sg168
I3
sa(dp180
g163
g170
sg164
I10
sg165
I2
sg166
I30
sg167
I55
sg168
I39
sa(dp181
g163
g172
sg164
I11
sg165
I2
sg166
I17
sg167
I55
sg168
I25
sa(dp182
g163
g172
sg164
I12
sg165
I1
sg166
I44
sg167
I55
sg168
I18
sa(dp183
g163
g172
sg164
I13
sg165
I1
sg166
I46
sg167
I57
sg168
I15
sa(dp184
g163
g172
sg164
I14
sg165
I0
sg166
I44
sg167
I61
sg168
I0
satRp185
(dp186
g41
I01
sg42
(lp187
g164
ag167
ag165
ag168
ag166
ag163
asg44
Nsg45
I0
sg46
g47
(g13
tRp188
sbsS'max_archive_size'
p189
NsS'solution_found_flag'
p190
I01
sS'time_taken'
p191
F285.38532209396362
sS'benchmark_name'
p192
S'D_A3'
p193
sa(dp194
S'tree_str'
p195
S'a3(a3(a3(a3(ARG2,a3(ARG1,ARG1)),a3(a3(ARG0,ARG1),ARG1)),a3(ARG0,a3(ARG1,ARG1))),a3(a3(a3(a3(a3(ARG2,ARG2),ARG1),a3(a3(ARG0,ARG0),a3(ARG0,ARG0))),a3(ARG1,a3(a3(ARG1,a3(ARG2,ARG0)),ARG0))),a3(a3(a3(a3(ARG2,ARG2),a3(ARG0,ARG1)),ARG1),a3(a3(ARG0,a3(a3(ARG0,ARG1),ARG2)),a3(ARG0,ARG2)))))'
p196
sS'tree_len'
p197
I63
sS'archive_size'
p198
I18032
sS'number_of_operators'
p199
I31
sS'alg_name'
p200
S'small-LTI'
p201
sS'archive_tree_deapth'
p202
I3
sS'logbook'
p203
g12
(g13
g14
(lp204
(dp205
S'status'
p206
NsS'iteration'
p207
I0
sS'count_wrongs'
p208
I6
sS'picked_node'
p209
NsS'len_master_tree'
p210
I1
sS'total_wrongs'
p211
I6
sa(dp212
g206
S'worst'
p213
sg207
I1
sg208
I7
sg209
I0
sg210
I11
sg211
I49
sa(dp214
g206
S'perfect'
p215
sg207
I2
sg208
I6
sg209
I5
sg210
I13
sg211
I33
sa(dp216
g206
g215
sg207
I3
sg208
I5
sg209
I8
sg210
I21
sg211
I26
sa(dp217
g206
g215
sg207
I4
sg208
I4
sg209
I9
sg210
I27
sg211
I16
sa(dp218
g206
g215
sg207
I5
sg208
I2
sg209
I4
sg210
I39
sg211
I6
sa(dp219
g206
g215
sg207
I6
sg208
I1
sg209
I2
sg210
I53
sg211
I3
sa(dp220
g206
g213
sg207
I7
sg208
I2
sg209
I3
sg210
I47
sg211
I36
sa(dp221
g206
g215
sg207
I8
sg208
I2
sg209
I26
sg210
I49
sg211
I29
sa(dp222
g206
g215
sg207
I9
sg208
I2
sg209
I9
sg210
I53
sg211
I26
sa(dp223
g206
g215
sg207
I10
sg208
I2
sg209
I25
sg210
I59
sg211
I18
sa(dp224
g206
g215
sg207
I11
sg208
I1
sg209
I5
sg210
I55
sg211
I3
sa(dp225
g206
g213
sg207
I12
sg208
I2
sg209
I25
sg210
I57
sg211
I83
sa(dp226
g206
g215
sg207
I13
sg208
I2
sg209
I5
sg210
I57
sg211
I40
sa(dp227
g206
g215
sg207
I14
sg208
I2
sg209
I20
sg210
I57
sg211
I39
sa(dp228
g206
g215
sg207
I15
sg208
I2
sg209
I20
sg210
I57
sg211
I29
sa(dp229
g206
g215
sg207
I16
sg208
I2
sg209
I19
sg210
I59
sg211
I27
sa(dp230
g206
g215
sg207
I17
sg208
I1
sg209
I6
sg210
I55
sg211
I14
sa(dp231
g206
g215
sg207
I18
sg208
I1
sg209
I27
sg210
I57
sg211
I13
sa(dp232
g206
g215
sg207
I19
sg208
I0
sg209
I26
sg210
I63
sg211
I0
satRp233
(dp234
g41
I01
sg42
(lp235
g207
ag210
ag208
ag211
ag209
ag206
asg44
Nsg45
I0
sg46
g47
(g13
tRp236
sbsS'max_archive_size'
p237
NsS'solution_found_flag'
p238
I01
sS'time_taken'
p239
F299.12202596664429
sS'benchmark_name'
p240
S'D_A3'
p241
sa(dp242
S'tree_str'
p243
S'a3(a3(a3(a3(ARG2,ARG1),a3(a3(ARG0,ARG1),a3(ARG1,ARG0))),a3(ARG0,a3(ARG1,ARG0))),a3(a3(a3(a3(a3(ARG2,ARG0),ARG2),a3(a3(ARG0,ARG0),a3(ARG0,ARG0))),a3(a3(ARG1,a3(ARG0,a3(ARG0,ARG2))),a3(a3(ARG2,ARG1),a3(ARG0,ARG1)))),a3(a3(a3(ARG0,ARG1),a3(a3(a3(ARG2,ARG0),a3(ARG1,ARG0)),ARG0)),a3(a3(ARG2,a3(ARG0,ARG0)),a3(ARG0,ARG0)))))'
p244
sS'tree_len'
p245
I71
sS'archive_size'
p246
I18032
sS'number_of_operators'
p247
I35
sS'alg_name'
p248
S'small-LTI'
p249
sS'archive_tree_deapth'
p250
I3
sS'logbook'
p251
g12
(g13
g14
(lp252
(dp253
S'status'
p254
NsS'iteration'
p255
I0
sS'count_wrongs'
p256
I6
sS'picked_node'
p257
NsS'len_master_tree'
p258
I1
sS'total_wrongs'
p259
I6
sa(dp260
g254
S'worst'
p261
sg255
I1
sg256
I7
sg257
I0
sg258
I11
sg259
I49
sa(dp262
g254
S'perfect'
p263
sg255
I2
sg256
I6
sg257
I5
sg258
I13
sg259
I33
sa(dp264
g254
g263
sg255
I3
sg256
I5
sg257
I8
sg258
I21
sg259
I26
sa(dp265
g254
g263
sg255
I4
sg256
I4
sg257
I9
sg258
I27
sg259
I16
sa(dp266
g254
g263
sg255
I5
sg256
I2
sg257
I4
sg258
I39
sg259
I6
sa(dp267
g254
g263
sg255
I6
sg256
I1
sg257
I2
sg258
I53
sg259
I3
sa(dp268
g254
g261
sg255
I7
sg256
I2
sg257
I3
sg258
I47
sg259
I36
sa(dp269
g254
g263
sg255
I8
sg256
I2
sg257
I30
sg258
I49
sg259
I29
sa(dp270
g254
g263
sg255
I9
sg256
I2
sg257
I11
sg258
I53
sg259
I26
sa(dp271
g254
g263
sg255
I10
sg256
I2
sg257
I31
sg258
I59
sg259
I18
sa(dp272
g254
g263
sg255
I11
sg256
I1
sg257
I3
sg258
I61
sg259
I3
sa(dp273
g254
g261
sg255
I12
sg256
I2
sg257
I27
sg258
I61
sg259
I36
sa(dp274
g254
g263
sg255
I13
sg256
I2
sg257
I13
sg258
I61
sg259
I23
sa(dp275
g254
g263
sg255
I14
sg256
I2
sg257
I39
sg258
I61
sg259
I20
sa(dp276
g254
g263
sg255
I15
sg256
I1
sg257
I43
sg258
I61
sg259
I3
sa(dp277
g254
g263
sg255
I16
sg256
I0
sg257
I44
sg258
I71
sg259
I0
satRp278
(dp279
g41
I01
sg42
(lp280
g255
ag258
ag256
ag259
ag257
ag254
asg44
Nsg45
I0
sg46
g47
(g13
tRp281
sbsS'max_archive_size'
p282
NsS'solution_found_flag'
p283
I01
sS'time_taken'
p284
F314.97358798980713
sS'benchmark_name'
p285
S'D_A3'
p286
sa(dp287
S'tree_str'
p288
S'a3(a3(a3(a3(ARG2,ARG0),a3(a3(ARG1,ARG1),a3(ARG1,ARG0))),a3(ARG0,a3(ARG1,ARG1))),a3(a3(a3(a3(a3(ARG2,ARG0),ARG2),a3(a3(ARG0,ARG0),a3(ARG0,ARG0))),a3(a3(a3(ARG0,ARG0),a3(ARG2,ARG2)),a3(a3(ARG2,ARG1),a3(ARG0,ARG1)))),a3(a3(a3(ARG0,ARG1),a3(a3(a3(ARG2,ARG0),a3(ARG1,ARG0)),ARG0)),a3(a3(ARG2,a3(ARG0,ARG0)),a3(ARG0,ARG0)))))'
p289
sS'tree_len'
p290
I71
sS'archive_size'
p291
I18032
sS'number_of_operators'
p292
I35
sS'alg_name'
p293
S'small-LTI'
p294
sS'archive_tree_deapth'
p295
I3
sS'logbook'
p296
g12
(g13
g14
(lp297
(dp298
S'status'
p299
NsS'iteration'
p300
I0
sS'count_wrongs'
p301
I6
sS'picked_node'
p302
NsS'len_master_tree'
p303
I1
sS'total_wrongs'
p304
I6
sa(dp305
g299
S'worst'
p306
sg300
I1
sg301
I7
sg302
I0
sg303
I11
sg304
I49
sa(dp307
g299
S'perfect'
p308
sg300
I2
sg301
I6
sg302
I5
sg303
I13
sg304
I33
sa(dp309
g299
g308
sg300
I3
sg301
I5
sg302
I8
sg303
I21
sg304
I26
sa(dp310
g299
g308
sg300
I4
sg301
I4
sg302
I9
sg303
I27
sg304
I16
sa(dp311
g299
g308
sg300
I5
sg301
I2
sg302
I4
sg303
I39
sg304
I6
sa(dp312
g299
g308
sg300
I6
sg301
I1
sg302
I2
sg303
I53
sg304
I3
sa(dp313
g299
g306
sg300
I7
sg301
I2
sg302
I3
sg303
I47
sg304
I36
sa(dp314
g299
g308
sg300
I8
sg301
I2
sg302
I30
sg303
I49
sg304
I29
sa(dp315
g299
g308
sg300
I9
sg301
I2
sg302
I11
sg303
I53
sg304
I26
sa(dp316
g299
g308
sg300
I10
sg301
I2
sg302
I31
sg303
I59
sg304
I18
sa(dp317
g299
g308
sg300
I11
sg301
I1
sg302
I3
sg303
I61
sg304
I3
sa(dp318
g299
g306
sg300
I12
sg301
I2
sg302
I27
sg303
I61
sg304
I36
sa(dp319
g299
g308
sg300
I13
sg301
I2
sg302
I3
sg303
I61
sg304
I23
sa(dp320
g299
g308
sg300
I14
sg301
I2
sg302
I29
sg303
I61
sg304
I20
sa(dp321
g299
g308
sg300
I15
sg301
I1
sg302
I44
sg303
I61
sg304
I3
sa(dp322
g299
g306
sg300
I16
sg301
I2
sg302
I40
sg303
I61
sg304
I20
sa(dp323
g299
g308
sg300
I17
sg301
I1
sg302
I56
sg303
I61
sg304
I3
sa(dp324
g299
g306
sg300
I18
sg301
I2
sg302
I54
sg303
I61
sg304
I20
sa(dp325
g299
g308
sg300
I19
sg301
I1
sg302
I56
sg303
I61
sg304
I3
sa(dp326
g299
g308
sg300
I20
sg301
I0
sg302
I55
sg303
I71
sg304
I0
satRp327
(dp328
g41
I01
sg42
(lp329
g300
ag303
ag301
ag304
ag302
ag299
asg44
Nsg45
I0
sg46
g47
(g13
tRp330
sbsS'max_archive_size'
p331
NsS'solution_found_flag'
p332
I01
sS'time_taken'
p333
F318.12170886993408
sS'benchmark_name'
p334
S'D_A3'
p335
sa(dp336
S'tree_str'
p337
S'a3(a3(a3(a3(ARG2,ARG0),ARG0),a3(ARG0,a3(ARG1,ARG1))),a3(a3(a3(a3(a3(ARG2,ARG2),ARG1),a3(a3(ARG0,ARG0),a3(ARG0,ARG0))),a3(ARG1,a3(a3(ARG1,a3(ARG2,ARG0)),ARG0))),a3(a3(a3(ARG0,ARG1),a3(a3(a3(ARG0,ARG0),a3(ARG2,ARG0)),ARG0)),a3(a3(a3(ARG2,a3(ARG1,ARG2)),a3(ARG2,ARG2)),a3(ARG0,ARG2)))))'
p338
sS'tree_len'
p339
I63
sS'archive_size'
p340
I18032
sS'number_of_operators'
p341
I31
sS'alg_name'
p342
S'small-LTI'
p343
sS'archive_tree_deapth'
p344
I3
sS'logbook'
p345
g12
(g13
g14
(lp346
(dp347
S'status'
p348
NsS'iteration'
p349
I0
sS'count_wrongs'
p350
I6
sS'picked_node'
p351
NsS'len_master_tree'
p352
I1
sS'total_wrongs'
p353
I6
sa(dp354
g348
S'worst'
p355
sg349
I1
sg350
I7
sg351
I0
sg352
I11
sg353
I49
sa(dp356
g348
S'perfect'
p357
sg349
I2
sg350
I6
sg351
I5
sg352
I13
sg353
I33
sa(dp358
g348
g357
sg349
I3
sg350
I5
sg351
I8
sg352
I21
sg353
I26
sa(dp359
g348
g357
sg349
I4
sg350
I4
sg351
I9
sg352
I27
sg353
I16
sa(dp360
g348
g357
sg349
I5
sg350
I2
sg351
I4
sg352
I39
sg353
I6
sa(dp361
g348
g357
sg349
I6
sg350
I1
sg351
I2
sg352
I53
sg353
I3
sa(dp362
g348
g355
sg349
I7
sg350
I2
sg351
I3
sg352
I47
sg353
I36
sa(dp363
g348
g357
sg349
I8
sg350
I2
sg351
I26
sg352
I49
sg353
I29
sa(dp364
g348
g357
sg349
I9
sg350
I2
sg351
I9
sg352
I53
sg353
I26
sa(dp365
g348
g357
sg349
I10
sg350
I2
sg351
I25
sg352
I59
sg353
I18
sa(dp366
g348
g357
sg349
I11
sg350
I1
sg351
I5
sg352
I55
sg353
I3
sa(dp367
g348
g355
sg349
I12
sg350
I2
sg351
I25
sg352
I57
sg353
I83
sa(dp368
g348
g357
sg349
I13
sg350
I2
sg351
I13
sg352
I57
sg353
I40
sa(dp369
g348
g357
sg349
I14
sg350
I2
sg351
I15
sg352
I57
sg353
I30
sa(dp370
g348
g357
sg349
I15
sg350
I2
sg351
I26
sg352
I57
sg353
I29
sa(dp371
g348
g357
sg349
I16
sg350
I2
sg351
I23
sg352
I59
sg353
I28
sa(dp372
g348
g357
sg349
I17
sg350
I1
sg351
I39
sg352
I61
sg353
I14
sa(dp373
g348
g357
sg349
I18
sg350
I0
sg351
I22
sg352
I63
sg353
I0
satRp374
(dp375
g41
I01
sg42
(lp376
g349
ag352
ag350
ag353
ag351
ag348
asg44
Nsg45
I0
sg46
g47
(g13
tRp377
sbsS'max_archive_size'
p378
NsS'solution_found_flag'
p379
I01
sS'time_taken'
p380
F323.75682497024536
sS'benchmark_name'
p381
S'D_A3'
p382
sa(dp383
S'tree_str'
p384
S'a3(a3(a3(a3(ARG2,ARG0),ARG0),a3(ARG0,a3(ARG1,ARG1))),a3(a3(a3(a3(a3(ARG2,ARG2),ARG1),a3(a3(ARG0,ARG0),a3(ARG0,ARG0))),a3(ARG1,a3(a3(ARG1,a3(ARG2,ARG0)),ARG0))),a3(a3(a3(ARG0,ARG1),a3(a3(a3(ARG0,ARG0),a3(ARG2,ARG0)),ARG0)),a3(a3(a3(ARG2,a3(ARG1,ARG2)),a3(ARG2,ARG2)),a3(ARG0,ARG2)))))'
p385
sS'tree_len'
p386
I63
sS'archive_size'
p387
I18032
sS'number_of_operators'
p388
I31
sS'alg_name'
p389
S'small-LTI'
p390
sS'archive_tree_deapth'
p391
I3
sS'logbook'
p392
g12
(g13
g14
(lp393
(dp394
S'status'
p395
NsS'iteration'
p396
I0
sS'count_wrongs'
p397
I6
sS'picked_node'
p398
NsS'len_master_tree'
p399
I1
sS'total_wrongs'
p400
I6
sa(dp401
g395
S'worst'
p402
sg396
I1
sg397
I7
sg398
I0
sg399
I11
sg400
I49
sa(dp403
g395
S'perfect'
p404
sg396
I2
sg397
I6
sg398
I5
sg399
I13
sg400
I33
sa(dp405
g395
g404
sg396
I3
sg397
I5
sg398
I8
sg399
I21
sg400
I26
sa(dp406
g395
g404
sg396
I4
sg397
I4
sg398
I9
sg399
I27
sg400
I16
sa(dp407
g395
g404
sg396
I5
sg397
I2
sg398
I4
sg399
I39
sg400
I6
sa(dp408
g395
g404
sg396
I6
sg397
I1
sg398
I2
sg399
I53
sg400
I3
sa(dp409
g395
g402
sg396
I7
sg397
I2
sg398
I3
sg399
I47
sg400
I36
sa(dp410
g395
g404
sg396
I8
sg397
I2
sg398
I26
sg399
I49
sg400
I29
sa(dp411
g395
g404
sg396
I9
sg397
I2
sg398
I11
sg399
I53
sg400
I26
sa(dp412
g395
g404
sg396
I10
sg397
I2
sg398
I27
sg399
I59
sg400
I18
sa(dp413
g395
g404
sg396
I11
sg397
I1
sg398
I5
sg399
I55
sg400
I3
sa(dp414
g395
g402
sg396
I12
sg397
I2
sg398
I25
sg399
I57
sg400
I83
sa(dp415
g395
g404
sg396
I13
sg397
I2
sg398
I20
sg399
I57
sg400
I70
sa(dp416
g395
g404
sg396
I14
sg397
I2
sg398
I13
sg399
I57
sg400
I30
sa(dp417
g395
g404
sg396
I15
sg397
I2
sg398
I26
sg399
I57
sg400
I29
sa(dp418
g395
g404
sg396
I16
sg397
I2
sg398
I24
sg399
I59
sg400
I27
sa(dp419
g395
g404
sg396
I17
sg397
I1
sg398
I38
sg399
I61
sg400
I13
sa(dp420
g395
g404
sg396
I18
sg397
I0
sg398
I22
sg399
I63
sg400
I0
satRp421
(dp422
g41
I01
sg42
(lp423
g396
ag399
ag397
ag400
ag398
ag395
asg44
Nsg45
I0
sg46
g47
(g13
tRp424
sbsS'max_archive_size'
p425
NsS'solution_found_flag'
p426
I01
sS'time_taken'
p427
F325.96960401535034
sS'benchmark_name'
p428
S'D_A3'
p429
sa(dp430
S'tree_str'
p431
S'a3(a3(a3(a3(ARG2,ARG0),a3(a3(ARG1,ARG1),a3(ARG1,ARG0))),a3(ARG0,a3(ARG1,ARG1))),a3(a3(a3(a3(a3(ARG2,ARG2),ARG0),a3(a3(ARG0,ARG0),a3(ARG0,ARG0))),a3(ARG1,a3(a3(ARG2,ARG2),a3(ARG2,a3(ARG0,ARG0))))),a3(a3(a3(ARG0,a3(ARG1,ARG0)),a3(ARG2,ARG0)),a3(a3(ARG0,ARG2),a3(ARG0,ARG0)))))'
p432
sS'tree_len'
p433
I61
sS'archive_size'
p434
I18032
sS'number_of_operators'
p435
I30
sS'alg_name'
p436
S'small-LTI'
p437
sS'archive_tree_deapth'
p438
I3
sS'logbook'
p439
g12
(g13
g14
(lp440
(dp441
S'status'
p442
NsS'iteration'
p443
I0
sS'count_wrongs'
p444
I6
sS'picked_node'
p445
NsS'len_master_tree'
p446
I1
sS'total_wrongs'
p447
I6
sa(dp448
g442
S'worst'
p449
sg443
I1
sg444
I7
sg445
I0
sg446
I11
sg447
I49
sa(dp450
g442
S'perfect'
p451
sg443
I2
sg444
I6
sg445
I5
sg446
I13
sg447
I33
sa(dp452
g442
g451
sg443
I3
sg444
I5
sg445
I8
sg446
I21
sg447
I26
sa(dp453
g442
g451
sg443
I4
sg444
I4
sg445
I9
sg446
I27
sg447
I16
sa(dp454
g442
g451
sg443
I5
sg444
I2
sg445
I4
sg446
I39
sg447
I6
sa(dp455
g442
g451
sg443
I6
sg444
I1
sg445
I2
sg446
I53
sg447
I3
sa(dp456
g442
g449
sg443
I7
sg444
I2
sg445
I3
sg446
I47
sg447
I36
sa(dp457
g442
g451
sg443
I8
sg444
I2
sg445
I33
sg446
I49
sg447
I21
sa(dp458
g442
g451
sg443
I9
sg444
I1
sg445
I6
sg446
I51
sg447
I3
sa(dp459
g442
g449
sg443
I10
sg444
I2
sg445
I30
sg446
I55
sg447
I39
sa(dp460
g442
g451
sg443
I11
sg444
I2
sg445
I17
sg446
I55
sg447
I25
sa(dp461
g442
g451
sg443
I12
sg444
I1
sg445
I44
sg446
I55
sg447
I18
sa(dp462
g442
g451
sg443
I13
sg444
I1
sg445
I47
sg446
I57
sg447
I15
sa(dp463
g442
g451
sg443
I14
sg444
I0
sg445
I44
sg446
I61
sg447
I0
satRp464
(dp465
g41
I01
sg42
(lp466
g443
ag446
ag444
ag447
ag445
ag442
asg44
Nsg45
I0
sg46
g47
(g13
tRp467
sbsS'max_archive_size'
p468
NsS'solution_found_flag'
p469
I01
sS'time_taken'
p470
F314.10776782035828
sS'benchmark_name'
p471
S'D_A3'
p472
sa(dp473
S'tree_str'
p474
S'a3(a3(a3(a3(ARG2,ARG1),a3(a3(ARG0,ARG1),a3(ARG1,ARG0))),a3(ARG0,a3(ARG1,ARG0))),a3(a3(a3(a3(a3(ARG2,ARG2),ARG2),a3(a3(ARG0,ARG0),a3(ARG0,ARG2))),a3(a3(ARG1,a3(ARG0,a3(ARG0,ARG2))),a3(a3(ARG2,ARG1),a3(ARG0,ARG1)))),a3(a3(a3(ARG0,ARG1),a3(a3(a3(ARG2,ARG0),a3(ARG1,ARG0)),ARG0)),a3(a3(ARG2,a3(ARG0,ARG0)),a3(ARG0,ARG0)))))'
p475
sS'tree_len'
p476
I71
sS'archive_size'
p477
I18032
sS'number_of_operators'
p478
I35
sS'alg_name'
p479
S'small-LTI'
p480
sS'archive_tree_deapth'
p481
I3
sS'logbook'
p482
g12
(g13
g14
(lp483
(dp484
S'status'
p485
NsS'iteration'
p486
I0
sS'count_wrongs'
p487
I6
sS'picked_node'
p488
NsS'len_master_tree'
p489
I1
sS'total_wrongs'
p490
I6
sa(dp491
g485
S'worst'
p492
sg486
I1
sg487
I7
sg488
I0
sg489
I11
sg490
I49
sa(dp493
g485
S'perfect'
p494
sg486
I2
sg487
I6
sg488
I5
sg489
I13
sg490
I33
sa(dp495
g485
g494
sg486
I3
sg487
I5
sg488
I8
sg489
I21
sg490
I26
sa(dp496
g485
g494
sg486
I4
sg487
I4
sg488
I9
sg489
I27
sg490
I16
sa(dp497
g485
g494
sg486
I5
sg487
I2
sg488
I4
sg489
I39
sg490
I6
sa(dp498
g485
g494
sg486
I6
sg487
I1
sg488
I2
sg489
I53
sg490
I3
sa(dp499
g485
g492
sg486
I7
sg487
I2
sg488
I3
sg489
I47
sg490
I36
sa(dp500
g485
g494
sg486
I8
sg487
I2
sg488
I30
sg489
I49
sg490
I29
sa(dp501
g485
g494
sg486
I9
sg487
I2
sg488
I11
sg489
I53
sg490
I26
sa(dp502
g485
g494
sg486
I10
sg487
I2
sg488
I30
sg489
I59
sg490
I18
sa(dp503
g485
g494
sg486
I11
sg487
I1
sg488
I3
sg489
I61
sg490
I3
sa(dp504
g485
g492
sg486
I12
sg487
I2
sg488
I25
sg489
I61
sg490
I36
sa(dp505
g485
g494
sg486
I13
sg487
I2
sg488
I5
sg489
I61
sg490
I23
sa(dp506
g485
g494
sg486
I14
sg487
I1
sg488
I55
sg489
I61
sg490
I3
sa(dp507
g485
g492
sg486
I15
sg487
I2
sg488
I51
sg489
I61
sg490
I23
sa(dp508
g485
g494
sg486
I16
sg487
I2
sg488
I39
sg489
I61
sg490
I20
sa(dp509
g485
g494
sg486
I17
sg487
I1
sg488
I55
sg489
I61
sg490
I3
sa(dp510
g485
g492
sg486
I18
sg487
I2
sg488
I53
sg489
I61
sg490
I20
sa(dp511
g485
g494
sg486
I19
sg487
I1
sg488
I56
sg489
I61
sg490
I3
sa(dp512
g485
g492
sg486
I20
sg487
I2
sg488
I54
sg489
I61
sg490
I20
sa(dp513
g485
g494
sg486
I21
sg487
I1
sg488
I58
sg489
I61
sg490
I3
sa(dp514
g485
g492
sg486
I22
sg487
I2
sg488
I54
sg489
I61
sg490
I20
sa(dp515
g485
g494
sg486
I23
sg487
I1
sg488
I43
sg489
I61
sg490
I3
sa(dp516
g485
g494
sg486
I24
sg487
I0
sg488
I48
sg489
I71
sg490
I0
satRp517
(dp518
g41
I01
sg42
(lp519
g486
ag489
ag487
ag490
ag488
ag485
asg44
Nsg45
I0
sg46
g47
(g13
tRp520
sbsS'max_archive_size'
p521
NsS'solution_found_flag'
p522
I01
sS'time_taken'
p523
F289.68634986877441
sS'benchmark_name'
p524
S'D_A3'
p525
sa(dp526
S'tree_str'
p527
S'a3(a3(a3(a3(ARG2,ARG1),a3(a3(ARG0,ARG1),a3(ARG1,ARG0))),a3(ARG0,a3(ARG1,ARG0))),a3(a3(a3(a3(a3(ARG2,ARG2),ARG2),a3(a3(ARG0,ARG0),a3(ARG0,ARG2))),a3(a3(ARG1,a3(ARG0,a3(ARG0,ARG2))),a3(a3(ARG2,ARG1),a3(ARG0,ARG1)))),a3(a3(a3(ARG0,ARG1),a3(a3(a3(ARG2,ARG0),a3(ARG1,ARG0)),ARG0)),a3(a3(ARG2,a3(ARG0,ARG0)),a3(ARG0,ARG0)))))'
p528
sS'tree_len'
p529
I71
sS'archive_size'
p530
I18032
sS'number_of_operators'
p531
I35
sS'alg_name'
p532
S'small-LTI'
p533
sS'archive_tree_deapth'
p534
I3
sS'logbook'
p535
g12
(g13
g14
(lp536
(dp537
S'status'
p538
NsS'iteration'
p539
I0
sS'count_wrongs'
p540
I6
sS'picked_node'
p541
NsS'len_master_tree'
p542
I1
sS'total_wrongs'
p543
I6
sa(dp544
g538
S'worst'
p545
sg539
I1
sg540
I7
sg541
I0
sg542
I11
sg543
I49
sa(dp546
g538
S'perfect'
p547
sg539
I2
sg540
I6
sg541
I5
sg542
I13
sg543
I33
sa(dp548
g538
g547
sg539
I3
sg540
I5
sg541
I8
sg542
I21
sg543
I26
sa(dp549
g538
g547
sg539
I4
sg540
I4
sg541
I9
sg542
I27
sg543
I16
sa(dp550
g538
g547
sg539
I5
sg540
I2
sg541
I4
sg542
I39
sg543
I6
sa(dp551
g538
g547
sg539
I6
sg540
I1
sg541
I2
sg542
I53
sg543
I3
sa(dp552
g538
g545
sg539
I7
sg540
I2
sg541
I3
sg542
I47
sg543
I36
sa(dp553
g538
g547
sg539
I8
sg540
I2
sg541
I30
sg542
I49
sg543
I29
sa(dp554
g538
g547
sg539
I9
sg540
I2
sg541
I11
sg542
I53
sg543
I26
sa(dp555
g538
g547
sg539
I10
sg540
I2
sg541
I30
sg542
I59
sg543
I18
sa(dp556
g538
g547
sg539
I11
sg540
I1
sg541
I3
sg542
I61
sg543
I3
sa(dp557
g538
g545
sg539
I12
sg540
I2
sg541
I25
sg542
I61
sg543
I36
sa(dp558
g538
g547
sg539
I13
sg540
I2
sg541
I5
sg542
I61
sg543
I23
sa(dp559
g538
g547
sg539
I14
sg540
I1
sg541
I55
sg542
I61
sg543
I3
sa(dp560
g538
g545
sg539
I15
sg540
I2
sg541
I51
sg542
I61
sg543
I23
sa(dp561
g538
g547
sg539
I16
sg540
I2
sg541
I39
sg542
I61
sg543
I20
sa(dp562
g538
g547
sg539
I17
sg540
I1
sg541
I43
sg542
I61
sg543
I3
sa(dp563
g538
g547
sg539
I18
sg540
I0
sg541
I47
sg542
I71
sg543
I0
satRp564
(dp565
g41
I01
sg42
(lp566
g539
ag542
ag540
ag543
ag541
ag538
asg44
Nsg45
I0
sg46
g47
(g13
tRp567
sbsS'max_archive_size'
p568
NsS'solution_found_flag'
p569
I01
sS'time_taken'
p570
F286.45130586624146
sS'benchmark_name'
p571
S'D_A3'
p572
sa(dp573
S'tree_str'
p574
S'a3(a3(a3(a3(ARG2,ARG0),a3(a3(ARG1,ARG1),a3(ARG1,ARG0))),a3(ARG0,a3(ARG1,ARG1))),a3(a3(a3(a3(a3(ARG2,ARG2),ARG0),a3(a3(ARG0,ARG0),a3(ARG0,ARG0))),a3(ARG1,a3(a3(ARG2,ARG2),a3(ARG2,a3(ARG0,ARG0))))),a3(a3(a3(ARG0,a3(ARG1,ARG0)),a3(ARG2,ARG0)),a3(a3(ARG0,ARG2),a3(ARG0,ARG0)))))'
p575
sS'tree_len'
p576
I61
sS'archive_size'
p577
I18032
sS'number_of_operators'
p578
I30
sS'alg_name'
p579
S'small-LTI'
p580
sS'archive_tree_deapth'
p581
I3
sS'logbook'
p582
g12
(g13
g14
(lp583
(dp584
S'status'
p585
NsS'iteration'
p586
I0
sS'count_wrongs'
p587
I6
sS'picked_node'
p588
NsS'len_master_tree'
p589
I1
sS'total_wrongs'
p590
I6
sa(dp591
g585
S'worst'
p592
sg586
I1
sg587
I7
sg588
I0
sg589
I11
sg590
I49
sa(dp593
g585
S'perfect'
p594
sg586
I2
sg587
I6
sg588
I5
sg589
I13
sg590
I33
sa(dp595
g585
g594
sg586
I3
sg587
I5
sg588
I8
sg589
I21
sg590
I26
sa(dp596
g585
g594
sg586
I4
sg587
I4
sg588
I9
sg589
I27
sg590
I16
sa(dp597
g585
g594
sg586
I5
sg587
I2
sg588
I4
sg589
I39
sg590
I6
sa(dp598
g585
g594
sg586
I6
sg587
I1
sg588
I2
sg589
I53
sg590
I3
sa(dp599
g585
g592
sg586
I7
sg587
I2
sg588
I3
sg589
I47
sg590
I36
sa(dp600
g585
g594
sg586
I8
sg587
I2
sg588
I33
sg589
I49
sg590
I21
sa(dp601
g585
g594
sg586
I9
sg587
I1
sg588
I5
sg589
I51
sg590
I3
sa(dp602
g585
g592
sg586
I10
sg587
I2
sg588
I26
sg589
I55
sg590
I39
sa(dp603
g585
g594
sg586
I11
sg587
I2
sg588
I5
sg589
I55
sg590
I25
sa(dp604
g585
g594
sg586
I12
sg587
I1
sg588
I36
sg589
I55
sg590
I18
sa(dp605
g585
g594
sg586
I13
sg587
I1
sg588
I39
sg589
I57
sg590
I15
sa(dp606
g585
g594
sg586
I14
sg587
I0
sg588
I36
sg589
I61
sg590
I0
satRp607
(dp608
g41
I01
sg42
(lp609
g586
ag589
ag587
ag590
ag588
ag585
asg44
Nsg45
I0
sg46
g47
(g13
tRp610
sbsS'max_archive_size'
p611
NsS'solution_found_flag'
p612
I01
sS'time_taken'
p613
F278.33813309669495
sS'benchmark_name'
p614
S'D_A3'
p615
sa(dp616
S'tree_str'
p617
S'a3(a3(a3(a3(ARG2,ARG0),ARG0),a3(ARG0,a3(ARG1,ARG1))),a3(a3(a3(a3(a3(ARG2,ARG2),ARG0),a3(a3(ARG0,ARG0),a3(ARG0,ARG0))),a3(ARG1,a3(a3(ARG2,ARG2),a3(ARG2,a3(ARG0,ARG0))))),a3(a3(a3(ARG0,a3(ARG0,ARG2)),a3(ARG2,ARG0)),a3(a3(a3(ARG2,ARG0),a3(ARG2,a3(ARG1,ARG2))),a3(ARG0,ARG2)))))'
p618
sS'tree_len'
p619
I61
sS'archive_size'
p620
I18032
sS'number_of_operators'
p621
I30
sS'alg_name'
p622
S'small-LTI'
p623
sS'archive_tree_deapth'
p624
I3
sS'logbook'
p625
g12
(g13
g14
(lp626
(dp627
S'status'
p628
NsS'iteration'
p629
I0
sS'count_wrongs'
p630
I6
sS'picked_node'
p631
NsS'len_master_tree'
p632
I1
sS'total_wrongs'
p633
I6
sa(dp634
g628
S'worst'
p635
sg629
I1
sg630
I7
sg631
I0
sg632
I11
sg633
I49
sa(dp636
g628
S'perfect'
p637
sg629
I2
sg630
I6
sg631
I5
sg632
I13
sg633
I33
sa(dp638
g628
g637
sg629
I3
sg630
I5
sg631
I8
sg632
I21
sg633
I26
sa(dp639
g628
g637
sg629
I4
sg630
I4
sg631
I9
sg632
I27
sg633
I16
sa(dp640
g628
g637
sg629
I5
sg630
I2
sg631
I4
sg632
I39
sg633
I6
sa(dp641
g628
g637
sg629
I6
sg630
I1
sg631
I2
sg632
I53
sg633
I3
sa(dp642
g628
g635
sg629
I7
sg630
I2
sg631
I3
sg632
I47
sg633
I36
sa(dp643
g628
g637
sg629
I8
sg630
I2
sg631
I33
sg632
I49
sg633
I21
sa(dp644
g628
g637
sg629
I9
sg630
I1
sg631
I5
sg632
I51
sg633
I3
sa(dp645
g628
g635
sg629
I10
sg630
I2
sg631
I26
sg632
I55
sg633
I70
sa(dp646
g628
g637
sg629
I11
sg630
I2
sg631
I26
sg632
I55
sg633
I61
sa(dp647
g628
g637
sg629
I12
sg630
I1
sg631
I43
sg632
I55
sg633
I29
sa(dp648
g628
g637
sg629
I13
sg630
I1
sg631
I5
sg632
I55
sg633
I15
sa(dp649
g628
g637
sg629
I14
sg630
I1
sg631
I9
sg632
I55
sg633
I14
sa(dp650
g628
g637
sg629
I15
sg630
I1
sg631
I10
sg632
I57
sg633
I13
sa(dp651
g628
g637
sg629
I16
sg630
I0
sg631
I10
sg632
I61
sg633
I0
satRp652
(dp653
g41
I01
sg42
(lp654
g629
ag632
ag630
ag633
ag631
ag628
asg44
Nsg45
I0
sg46
g47
(g13
tRp655
sbsS'max_archive_size'
p656
NsS'solution_found_flag'
p657
I01
sS'time_taken'
p658
F284.63963603973389
sS'benchmark_name'
p659
S'D_A3'
p660
sa(dp661
S'tree_str'
p662
S'a3(a3(a3(a3(ARG2,ARG0),a3(a3(ARG1,ARG1),a3(ARG1,ARG0))),a3(ARG0,a3(ARG1,ARG1))),a3(a3(a3(a3(a3(ARG2,ARG2),ARG0),a3(a3(ARG0,ARG0),a3(ARG0,ARG1))),a3(ARG1,a3(a3(ARG2,ARG2),a3(ARG2,a3(ARG0,ARG0))))),a3(a3(a3(ARG0,a3(ARG1,ARG0)),a3(ARG2,ARG0)),a3(a3(ARG0,ARG2),a3(ARG0,ARG0)))))'
p663
sS'tree_len'
p664
I61
sS'archive_size'
p665
I18032
sS'number_of_operators'
p666
I30
sS'alg_name'
p667
S'small-LTI'
p668
sS'archive_tree_deapth'
p669
I3
sS'logbook'
p670
g12
(g13
g14
(lp671
(dp672
S'status'
p673
NsS'iteration'
p674
I0
sS'count_wrongs'
p675
I6
sS'picked_node'
p676
NsS'len_master_tree'
p677
I1
sS'total_wrongs'
p678
I6
sa(dp679
g673
S'worst'
p680
sg674
I1
sg675
I7
sg676
I0
sg677
I11
sg678
I49
sa(dp681
g673
S'perfect'
p682
sg674
I2
sg675
I6
sg676
I5
sg677
I13
sg678
I33
sa(dp683
g673
g682
sg674
I3
sg675
I5
sg676
I8
sg677
I21
sg678
I26
sa(dp684
g673
g682
sg674
I4
sg675
I4
sg676
I9
sg677
I27
sg678
I16
sa(dp685
g673
g682
sg674
I5
sg675
I2
sg676
I4
sg677
I39
sg678
I6
sa(dp686
g673
g682
sg674
I6
sg675
I1
sg676
I2
sg677
I53
sg678
I3
sa(dp687
g673
g680
sg674
I7
sg675
I2
sg676
I3
sg677
I47
sg678
I36
sa(dp688
g673
g682
sg674
I8
sg675
I2
sg676
I33
sg677
I49
sg678
I21
sa(dp689
g673
g682
sg674
I9
sg675
I1
sg676
I5
sg677
I51
sg678
I3
sa(dp690
g673
g680
sg674
I10
sg675
I2
sg676
I26
sg677
I55
sg678
I71
sa(dp691
g673
g682
sg674
I11
sg675
I2
sg676
I5
sg677
I55
sg678
I33
sa(dp692
g673
g682
sg674
I12
sg675
I1
sg676
I41
sg677
I57
sg678
I15
sa(dp693
g673
g682
sg674
I13
sg675
I0
sg676
I37
sg677
I61
sg678
I0
satRp694
(dp695
g41
I01
sg42
(lp696
g674
ag677
ag675
ag678
ag676
ag673
asg44
Nsg45
I0
sg46
g47
(g13
tRp697
sbsS'max_archive_size'
p698
NsS'solution_found_flag'
p699
I01
sS'time_taken'
p700
F280.06797695159912
sS'benchmark_name'
p701
S'D_A3'
p702
sa(dp703
S'tree_str'
p704
S'a3(a3(a3(a3(ARG2,a3(ARG1,ARG1)),a3(a3(ARG0,ARG1),ARG1)),a3(ARG0,a3(ARG1,ARG1))),a3(a3(a3(a3(a3(ARG2,ARG2),ARG1),a3(a3(ARG0,ARG0),a3(ARG0,ARG0))),a3(ARG1,a3(a3(ARG1,a3(ARG2,ARG0)),ARG0))),a3(a3(a3(a3(ARG2,ARG2),a3(ARG0,ARG1)),ARG1),a3(a3(ARG0,a3(a3(ARG0,ARG1),ARG2)),a3(ARG0,ARG2)))))'
p705
sS'tree_len'
p706
I63
sS'archive_size'
p707
I18032
sS'number_of_operators'
p708
I31
sS'alg_name'
p709
S'small-LTI'
p710
sS'archive_tree_deapth'
p711
I3
sS'logbook'
p712
g12
(g13
g14
(lp713
(dp714
S'status'
p715
NsS'iteration'
p716
I0
sS'count_wrongs'
p717
I6
sS'picked_node'
p718
NsS'len_master_tree'
p719
I1
sS'total_wrongs'
p720
I6
sa(dp721
g715
S'worst'
p722
sg716
I1
sg717
I7
sg718
I0
sg719
I11
sg720
I49
sa(dp723
g715
S'perfect'
p724
sg716
I2
sg717
I6
sg718
I5
sg719
I13
sg720
I33
sa(dp725
g715
g724
sg716
I3
sg717
I5
sg718
I8
sg719
I21
sg720
I26
sa(dp726
g715
g724
sg716
I4
sg717
I4
sg718
I9
sg719
I27
sg720
I16
sa(dp727
g715
g724
sg716
I5
sg717
I2
sg718
I4
sg719
I39
sg720
I6
sa(dp728
g715
g724
sg716
I6
sg717
I1
sg718
I2
sg719
I53
sg720
I3
sa(dp729
g715
g722
sg716
I7
sg717
I2
sg718
I3
sg719
I47
sg720
I36
sa(dp730
g715
g724
sg716
I8
sg717
I2
sg718
I26
sg719
I49
sg720
I29
sa(dp731
g715
g724
sg716
I9
sg717
I2
sg718
I9
sg719
I53
sg720
I26
sa(dp732
g715
g724
sg716
I10
sg717
I2
sg718
I24
sg719
I59
sg720
I18
sa(dp733
g715
g724
sg716
I11
sg717
I1
sg718
I5
sg719
I55
sg720
I3
sa(dp734
g715
g722
sg716
I12
sg717
I2
sg718
I23
sg719
I57
sg720
I83
sa(dp735
g715
g724
sg716
I13
sg717
I2
sg718
I13
sg719
I57
sg720
I40
sa(dp736
g715
g724
sg716
I14
sg717
I2
sg718
I29
sg719
I57
sg720
I30
sa(dp737
g715
g724
sg716
I15
sg717
I2
sg718
I26
sg719
I57
sg720
I29
sa(dp738
g715
g724
sg716
I16
sg717
I2
sg718
I25
sg719
I59
sg720
I27
sa(dp739
g715
g724
sg716
I17
sg717
I1
sg718
I14
sg719
I55
sg720
I14
sa(dp740
g715
g724
sg716
I18
sg717
I1
sg718
I35
sg719
I57
sg720
I13
sa(dp741
g715
g724
sg716
I19
sg717
I0
sg718
I34
sg719
I63
sg720
I0
satRp742
(dp743
g41
I01
sg42
(lp744
g716
ag719
ag717
ag720
ag718
ag715
asg44
Nsg45
I0
sg46
g47
(g13
tRp745
sbsS'max_archive_size'
p746
NsS'solution_found_flag'
p747
I01
sS'time_taken'
p748
F293.5812680721283
sS'benchmark_name'
p749
S'D_A3'
p750
sa(dp751
S'tree_str'
p752
S'a3(a3(a3(a3(ARG2,ARG0),a3(a3(ARG1,ARG1),a3(ARG1,ARG0))),a3(ARG0,a3(ARG1,ARG1))),a3(a3(a3(a3(a3(ARG2,ARG0),ARG2),a3(a3(ARG0,ARG0),a3(ARG0,ARG0))),a3(a3(a3(ARG0,ARG0),a3(ARG2,ARG2)),a3(a3(ARG2,ARG1),a3(ARG0,ARG1)))),a3(a3(a3(ARG0,ARG1),a3(a3(a3(ARG2,ARG0),a3(ARG1,ARG0)),ARG0)),a3(a3(ARG2,a3(ARG0,ARG0)),a3(ARG0,ARG0)))))'
p753
sS'tree_len'
p754
I71
sS'archive_size'
p755
I18032
sS'number_of_operators'
p756
I35
sS'alg_name'
p757
S'small-LTI'
p758
sS'archive_tree_deapth'
p759
I3
sS'logbook'
p760
g12
(g13
g14
(lp761
(dp762
S'status'
p763
NsS'iteration'
p764
I0
sS'count_wrongs'
p765
I6
sS'picked_node'
p766
NsS'len_master_tree'
p767
I1
sS'total_wrongs'
p768
I6
sa(dp769
g763
S'worst'
p770
sg764
I1
sg765
I7
sg766
I0
sg767
I11
sg768
I49
sa(dp771
g763
S'perfect'
p772
sg764
I2
sg765
I6
sg766
I5
sg767
I13
sg768
I33
sa(dp773
g763
g772
sg764
I3
sg765
I5
sg766
I8
sg767
I21
sg768
I26
sa(dp774
g763
g772
sg764
I4
sg765
I4
sg766
I9
sg767
I27
sg768
I16
sa(dp775
g763
g772
sg764
I5
sg765
I2
sg766
I4
sg767
I39
sg768
I6
sa(dp776
g763
g772
sg764
I6
sg765
I1
sg766
I2
sg767
I53
sg768
I3
sa(dp777
g763
g770
sg764
I7
sg765
I2
sg766
I3
sg767
I47
sg768
I36
sa(dp778
g763
g772
sg764
I8
sg765
I2
sg766
I30
sg767
I49
sg768
I29
sa(dp779
g763
g772
sg764
I9
sg765
I2
sg766
I11
sg767
I53
sg768
I26
sa(dp780
g763
g772
sg764
I10
sg765
I2
sg766
I30
sg767
I59
sg768
I18
sa(dp781
g763
g772
sg764
I11
sg765
I1
sg766
I3
sg767
I61
sg768
I3
sa(dp782
g763
g770
sg764
I12
sg765
I2
sg766
I25
sg767
I61
sg768
I36
sa(dp783
g763
g772
sg764
I13
sg765
I2
sg766
I13
sg767
I61
sg768
I23
sa(dp784
g763
g772
sg764
I14
sg765
I2
sg766
I38
sg767
I61
sg768
I20
sa(dp785
g763
g772
sg764
I15
sg765
I1
sg766
I50
sg767
I61
sg768
I3
sa(dp786
g763
g770
sg764
I16
sg765
I2
sg766
I48
sg767
I61
sg768
I20
sa(dp787
g763
g772
sg764
I17
sg765
I1
sg766
I58
sg767
I61
sg768
I3
sa(dp788
g763
g770
sg764
I18
sg765
I2
sg766
I54
sg767
I61
sg768
I20
sa(dp789
g763
g772
sg764
I19
sg765
I1
sg766
I60
sg767
I61
sg768
I3
sa(dp790
g763
g770
sg764
I20
sg765
I2
sg766
I54
sg767
I61
sg768
I20
sa(dp791
g763
g772
sg764
I21
sg765
I1
sg766
I58
sg767
I61
sg768
I3
sa(dp792
g763
g772
sg764
I22
sg765
I0
sg766
I55
sg767
I71
sg768
I0
satRp793
(dp794
g41
I01
sg42
(lp795
g764
ag767
ag765
ag768
ag766
ag763
asg44
Nsg45
I0
sg46
g47
(g13
tRp796
sbsS'max_archive_size'
p797
NsS'solution_found_flag'
p798
I01
sS'time_taken'
p799
F357.12038397789001
sS'benchmark_name'
p800
S'D_A3'
p801
sa(dp802
S'tree_str'
p803
S'a3(a3(a3(a3(ARG2,ARG1),a3(a3(ARG0,ARG1),a3(ARG1,ARG0))),a3(ARG0,a3(ARG1,ARG0))),a3(a3(a3(a3(a3(ARG2,ARG2),ARG2),a3(a3(ARG0,ARG0),a3(ARG0,ARG0))),a3(a3(ARG1,a3(ARG0,a3(ARG0,ARG2))),a3(a3(ARG2,ARG1),a3(ARG1,ARG1)))),a3(a3(a3(ARG0,ARG1),a3(a3(a3(ARG2,ARG0),a3(ARG1,ARG0)),ARG0)),a3(a3(ARG2,a3(ARG0,ARG0)),a3(ARG0,ARG0)))))'
p804
sS'tree_len'
p805
I71
sS'archive_size'
p806
I18032
sS'number_of_operators'
p807
I35
sS'alg_name'
p808
S'small-LTI'
p809
sS'archive_tree_deapth'
p810
I3
sS'logbook'
p811
g12
(g13
g14
(lp812
(dp813
S'status'
p814
NsS'iteration'
p815
I0
sS'count_wrongs'
p816
I6
sS'picked_node'
p817
NsS'len_master_tree'
p818
I1
sS'total_wrongs'
p819
I6
sa(dp820
g814
S'worst'
p821
sg815
I1
sg816
I7
sg817
I0
sg818
I11
sg819
I49
sa(dp822
g814
S'perfect'
p823
sg815
I2
sg816
I6
sg817
I5
sg818
I13
sg819
I33
sa(dp824
g814
g823
sg815
I3
sg816
I5
sg817
I8
sg818
I21
sg819
I26
sa(dp825
g814
g823
sg815
I4
sg816
I4
sg817
I9
sg818
I27
sg819
I16
sa(dp826
g814
g823
sg815
I5
sg816
I2
sg817
I4
sg818
I39
sg819
I6
sa(dp827
g814
g823
sg815
I6
sg816
I1
sg817
I2
sg818
I53
sg819
I3
sa(dp828
g814
g821
sg815
I7
sg816
I2
sg817
I3
sg818
I47
sg819
I36
sa(dp829
g814
g823
sg815
I8
sg816
I2
sg817
I30
sg818
I49
sg819
I29
sa(dp830
g814
g823
sg815
I9
sg816
I2
sg817
I9
sg818
I53
sg819
I26
sa(dp831
g814
g823
sg815
I10
sg816
I2
sg817
I28
sg818
I59
sg819
I18
sa(dp832
g814
g823
sg815
I11
sg816
I1
sg817
I3
sg818
I61
sg819
I3
sa(dp833
g814
g821
sg815
I12
sg816
I2
sg817
I25
sg818
I61
sg819
I36
sa(dp834
g814
g823
sg815
I13
sg816
I1
sg817
I56
sg818
I61
sg819
I3
sa(dp835
g814
g821
sg815
I14
sg816
I2
sg817
I54
sg818
I61
sg819
I36
sa(dp836
g814
g823
sg815
I15
sg816
I1
sg817
I47
sg818
I61
sg819
I3
sa(dp837
g814
g823
sg815
I16
sg816
I0
sg817
I48
sg818
I71
sg819
I0
satRp838
(dp839
g41
I01
sg42
(lp840
g815
ag818
ag816
ag819
ag817
ag814
asg44
Nsg45
I0
sg46
g47
(g13
tRp841
sbsS'max_archive_size'
p842
NsS'solution_found_flag'
p843
I01
sS'time_taken'
p844
F352.65215396881104
sS'benchmark_name'
p845
S'D_A3'
p846
sa(dp847
S'tree_str'
p848
S'a3(a3(a3(a3(ARG2,ARG0),a3(a3(ARG1,ARG1),a3(ARG1,ARG0))),a3(ARG0,a3(ARG1,ARG1))),a3(a3(a3(a3(a3(ARG2,ARG2),ARG0),a3(a3(ARG0,ARG0),a3(ARG0,ARG0))),a3(ARG1,a3(a3(ARG2,ARG2),a3(ARG2,a3(ARG0,ARG0))))),a3(a3(a3(ARG0,a3(ARG1,ARG0)),a3(ARG2,ARG0)),a3(a3(ARG0,ARG2),a3(ARG0,ARG0)))))'
p849
sS'tree_len'
p850
I61
sS'archive_size'
p851
I18032
sS'number_of_operators'
p852
I30
sS'alg_name'
p853
S'small-LTI'
p854
sS'archive_tree_deapth'
p855
I3
sS'logbook'
p856
g12
(g13
g14
(lp857
(dp858
S'status'
p859
NsS'iteration'
p860
I0
sS'count_wrongs'
p861
I6
sS'picked_node'
p862
NsS'len_master_tree'
p863
I1
sS'total_wrongs'
p864
I6
sa(dp865
g859
S'worst'
p866
sg860
I1
sg861
I7
sg862
I0
sg863
I11
sg864
I49
sa(dp867
g859
S'perfect'
p868
sg860
I2
sg861
I6
sg862
I5
sg863
I13
sg864
I33
sa(dp869
g859
g868
sg860
I3
sg861
I5
sg862
I8
sg863
I21
sg864
I26
sa(dp870
g859
g868
sg860
I4
sg861
I4
sg862
I9
sg863
I27
sg864
I16
sa(dp871
g859
g868
sg860
I5
sg861
I2
sg862
I4
sg863
I39
sg864
I6
sa(dp872
g859
g868
sg860
I6
sg861
I1
sg862
I2
sg863
I53
sg864
I3
sa(dp873
g859
g866
sg860
I7
sg861
I2
sg862
I3
sg863
I47
sg864
I36
sa(dp874
g859
g868
sg860
I8
sg861
I2
sg862
I33
sg863
I49
sg864
I21
sa(dp875
g859
g868
sg860
I9
sg861
I1
sg862
I5
sg863
I51
sg864
I3
sa(dp876
g859
g866
sg860
I10
sg861
I2
sg862
I26
sg863
I55
sg864
I39
sa(dp877
g859
g868
sg860
I11
sg861
I2
sg862
I13
sg863
I55
sg864
I25
sa(dp878
g859
g868
sg860
I12
sg861
I1
sg862
I42
sg863
I55
sg864
I18
sa(dp879
g859
g868
sg860
I13
sg861
I1
sg862
I44
sg863
I57
sg864
I15
sa(dp880
g859
g868
sg860
I14
sg861
I0
sg862
I42
sg863
I61
sg864
I0
satRp881
(dp882
g41
I01
sg42
(lp883
g860
ag863
ag861
ag864
ag862
ag859
asg44
Nsg45
I0
sg46
g47
(g13
tRp884
sbsS'max_archive_size'
p885
NsS'solution_found_flag'
p886
I01
sS'time_taken'
p887
F276.71715688705444
sS'benchmark_name'
p888
S'D_A3'
p889
sa(dp890
S'tree_str'
p891
S'a3(a3(a3(a3(ARG2,a3(ARG1,ARG1)),a3(a3(ARG0,ARG1),ARG1)),a3(ARG0,a3(ARG1,ARG1))),a3(a3(a3(a3(a3(ARG2,ARG2),ARG1),a3(a3(ARG0,ARG0),a3(ARG0,ARG0))),a3(ARG1,a3(a3(ARG1,a3(ARG2,ARG0)),ARG0))),a3(a3(a3(a3(ARG2,ARG2),a3(ARG0,ARG1)),ARG1),a3(a3(ARG0,a3(a3(ARG0,ARG1),ARG2)),a3(ARG0,ARG2)))))'
p892
sS'tree_len'
p893
I63
sS'archive_size'
p894
I18032
sS'number_of_operators'
p895
I31
sS'alg_name'
p896
S'small-LTI'
p897
sS'archive_tree_deapth'
p898
I3
sS'logbook'
p899
g12
(g13
g14
(lp900
(dp901
S'status'
p902
NsS'iteration'
p903
I0
sS'count_wrongs'
p904
I6
sS'picked_node'
p905
NsS'len_master_tree'
p906
I1
sS'total_wrongs'
p907
I6
sa(dp908
g902
S'worst'
p909
sg903
I1
sg904
I7
sg905
I0
sg906
I11
sg907
I49
sa(dp910
g902
S'perfect'
p911
sg903
I2
sg904
I6
sg905
I5
sg906
I13
sg907
I33
sa(dp912
g902
g911
sg903
I3
sg904
I5
sg905
I8
sg906
I21
sg907
I26
sa(dp913
g902
g911
sg903
I4
sg904
I4
sg905
I9
sg906
I27
sg907
I16
sa(dp914
g902
g911
sg903
I5
sg904
I2
sg905
I4
sg906
I39
sg907
I6
sa(dp915
g902
g911
sg903
I6
sg904
I1
sg905
I2
sg906
I53
sg907
I3
sa(dp916
g902
g909
sg903
I7
sg904
I2
sg905
I3
sg906
I47
sg907
I36
sa(dp917
g902
g911
sg903
I8
sg904
I2
sg905
I26
sg906
I49
sg907
I29
sa(dp918
g902
g911
sg903
I9
sg904
I2
sg905
I11
sg906
I53
sg907
I26
sa(dp919
g902
g911
sg903
I10
sg904
I2
sg905
I27
sg906
I59
sg907
I18
sa(dp920
g902
g911
sg903
I11
sg904
I1
sg905
I5
sg906
I55
sg907
I3
sa(dp921
g902
g909
sg903
I12
sg904
I2
sg905
I25
sg906
I57
sg907
I83
sa(dp922
g902
g911
sg903
I13
sg904
I2
sg905
I33
sg906
I57
sg907
I82
sa(dp923
g902
g911
sg903
I14
sg904
I2
sg905
I13
sg906
I57
sg907
I39
sa(dp924
g902
g911
sg903
I15
sg904
I2
sg905
I15
sg906
I57
sg907
I29
sa(dp925
g902
g911
sg903
I16
sg904
I2
sg905
I25
sg906
I59
sg907
I27
sa(dp926
g902
g911
sg903
I17
sg904
I1
sg905
I14
sg906
I55
sg907
I14
sa(dp927
g902
g911
sg903
I18
sg904
I1
sg905
I35
sg906
I57
sg907
I13
sa(dp928
g902
g911
sg903
I19
sg904
I0
sg905
I34
sg906
I63
sg907
I0
satRp929
(dp930
g41
I01
sg42
(lp931
g903
ag906
ag904
ag907
ag905
ag902
asg44
Nsg45
I0
sg46
g47
(g13
tRp932
sbsS'max_archive_size'
p933
NsS'solution_found_flag'
p934
I01
sS'time_taken'
p935
F292.15311193466187
sS'benchmark_name'
p936
S'D_A3'
p937
sa.