(lp1
(dp2
S'tree_str'
p3
S'a4(a4(a4(ARG0,a4(a4(a4(ARG0,a4(a4(a4(ARG1,ARG0),a4(ARG0,ARG2)),a4(a4(ARG1,ARG0),a4(a4(ARG0,ARG1),a4(ARG2,a4(ARG2,ARG1)))))),ARG0),a4(a4(a4(ARG1,ARG0),ARG0),a4(ARG0,ARG2)))),ARG0),a4(a4(a4(a4(ARG2,a4(a4(a4(ARG0,ARG0),ARG0),a4(ARG1,a4(ARG2,ARG0)))),a4(ARG2,ARG2)),ARG0),a4(a4(a4(ARG0,ARG1),a4(ARG0,a4(a4(ARG1,ARG1),a4(a4(ARG2,ARG2),ARG1)))),a4(a4(ARG0,ARG2),a4(a4(ARG0,ARG1),ARG0)))))'
p4
sS'tree_len'
p5
I85
sS'archive_size'
p6
I14963
sS'number_of_operators'
p7
I42
sS'alg_name'
p8
S'small-LTI'
p9
sS'archive_tree_deapth'
p10
I3
sS'logbook'
p11
ccopy_reg
_reconstructor
p12
(ctreeimprove.utilities
Logbook
p13
c__builtin__
list
p14
(lp15
(dp16
S'status'
p17
NsS'iteration'
p18
I0
sS'count_wrongs'
p19
I6
sS'picked_node'
p20
NsS'len_master_tree'
p21
I1
sS'total_wrongs'
p22
I6
sa(dp23
g17
S'worst'
p24
sg18
I1
sg19
I8
sg20
I0
sg21
I15
sg22
I88
sa(dp25
g17
S'perfect'
p26
sg18
I2
sg19
I7
sg20
I4
sg21
I29
sg22
I62
sa(dp27
g17
g26
sg18
I3
sg19
I6
sg20
I3
sg21
I41
sg22
I42
sa(dp28
g17
S'better'
p29
sg18
I4
sg19
I7
sg20
I9
sg21
I49
sg22
I79
sa(dp30
g17
g26
sg18
I5
sg19
I6
sg20
I2
sg21
I33
sg22
I34
sa(dp31
g17
g29
sg18
I6
sg19
I5
sg20
I5
sg21
I25
sg22
I53
sa(dp32
g17
g26
sg18
I7
sg19
I5
sg20
I6
sg21
I29
sg22
I48
sa(dp33
g17
g26
sg18
I8
sg19
I4
sg20
I9
sg21
I37
sg22
I28
sa(dp34
g17
g29
sg18
I9
sg19
I3
sg20
I18
sg21
I51
sg22
I60
sa(dp35
g17
g26
sg18
I10
sg19
I3
sg20
I22
sg21
I51
sg22
I56
sa(dp36
g17
g26
sg18
I11
sg19
I3
sg20
I24
sg21
I51
sg22
I36
sa(dp37
g17
g26
sg18
I12
sg19
I3
sg20
I36
sg21
I53
sg22
I34
sa(dp38
g17
g26
sg18
I13
sg19
I2
sg20
I35
sg21
I53
sg22
I11
sa(dp39
g17
g24
sg18
I14
sg19
I3
sg20
I16
sg21
I47
sg22
I31
sa(dp40
g17
g26
sg18
I15
sg19
I3
sg20
I39
sg21
I49
sg22
I26
sa(dp41
g17
g29
sg18
I16
sg19
I2
sg20
I43
sg21
I63
sg22
I27
sa(dp42
g17
g26
sg18
I17
sg19
I1
sg20
I50
sg21
I69
sg22
I5
sa(dp43
g17
g24
sg18
I18
sg19
I2
sg20
I3
sg21
I77
sg22
I64
sa(dp44
g17
g26
sg18
I19
sg19
I1
sg20
I59
sg21
I77
sg22
I13
sa(dp45
g17
g26
sg18
I20
sg19
I0
sg20
I65
sg21
I85
sg22
I0
satRp46
(dp47
S'log_header'
p48
I01
sS'header'
p49
(lp50
g18
ag21
ag19
ag22
ag20
ag17
asS'columns_len'
p51
NsS'buffindex'
p52
I0
sS'chapters'
p53
ccollections
defaultdict
p54
(g13
tRp55
sbsS'max_archive_size'
p56
NsS'solution_found_flag'
p57
I01
sS'time_taken'
p58
F296.16229200363159
sS'benchmark_name'
p59
S'D_A4'
p60
sa(dp61
S'tree_str'
p62
S'a4(a4(a4(ARG0,a4(a4(a4(ARG0,ARG0),a4(a4(a4(ARG1,ARG0),a4(ARG1,ARG2)),a4(a4(ARG2,ARG2),a4(ARG1,ARG0)))),a4(a4(ARG2,ARG1),a4(ARG0,ARG2)))),ARG0),a4(a4(a4(ARG2,a4(ARG0,a4(ARG0,a4(ARG0,ARG0)))),a4(a4(ARG2,a4(a4(a4(ARG2,ARG0),a4(ARG2,ARG2)),a4(a4(ARG2,ARG2),a4(ARG1,ARG0)))),a4(a4(ARG0,a4(ARG1,ARG2)),a4(a4(ARG0,ARG0),ARG0)))),a4(a4(a4(ARG2,ARG2),a4(a4(a4(ARG2,ARG2),ARG2),ARG0)),a4(a4(ARG1,ARG2),ARG1))))'
p63
sS'tree_len'
p64
I89
sS'archive_size'
p65
I14963
sS'number_of_operators'
p66
I44
sS'alg_name'
p67
S'small-LTI'
p68
sS'archive_tree_deapth'
p69
I3
sS'logbook'
p70
g12
(g13
g14
(lp71
(dp72
S'status'
p73
NsS'iteration'
p74
I0
sS'count_wrongs'
p75
I6
sS'picked_node'
p76
NsS'len_master_tree'
p77
I1
sS'total_wrongs'
p78
I6
sa(dp79
g73
S'worst'
p80
sg74
I1
sg75
I8
sg76
I0
sg77
I15
sg78
I94
sa(dp81
g73
S'better'
p82
sg74
I2
sg75
I6
sg76
I4
sg77
I21
sg78
I74
sa(dp83
g73
S'perfect'
p84
sg74
I3
sg75
I5
sg76
I16
sg77
I27
sg78
I60
sa(dp85
g73
g82
sg74
I4
sg75
I5
sg76
I2
sg77
I25
sg78
I65
sa(dp86
g73
g84
sg74
I5
sg75
I5
sg76
I13
sg77
I29
sg78
I60
sa(dp87
g73
g84
sg74
I6
sg75
I4
sg76
I19
sg77
I37
sg78
I40
sa(dp88
g73
g82
sg74
I7
sg75
I3
sg76
I8
sg77
I47
sg78
I37
sa(dp89
g73
g84
sg74
I8
sg75
I2
sg76
I43
sg77
I55
sg78
I16
sa(dp90
g73
g80
sg74
I9
sg75
I3
sg76
I6
sg77
I47
sg78
I46
sa(dp91
g73
g84
sg74
I10
sg75
I2
sg76
I46
sg77
I57
sg78
I25
sa(dp92
g73
g84
sg74
I11
sg75
I2
sg76
I35
sg77
I61
sg78
I28
sa(dp93
g73
g84
sg74
I12
sg75
I1
sg76
I41
sg77
I61
sg78
I9
sa(dp94
g73
g80
sg74
I13
sg75
I2
sg76
I6
sg77
I65
sg78
I48
sa(dp95
g73
g84
sg74
I14
sg75
I2
sg76
I38
sg77
I61
sg78
I22
sa(dp96
g73
g80
sg74
I15
sg75
I3
sg76
I2
sg77
I65
sg78
I84
sa(dp97
g73
g84
sg74
I16
sg75
I2
sg76
I3
sg77
I53
sg78
I26
sa(dp98
g73
g80
sg74
I17
sg75
I3
sg76
I33
sg77
I59
sg78
I56
sa(dp99
g73
g84
sg74
I18
sg75
I3
sg76
I41
sg77
I63
sg78
I44
sa(dp100
g73
g84
sg74
I19
sg75
I2
sg76
I47
sg77
I71
sg78
I29
sa(dp101
g73
g84
sg74
I20
sg75
I2
sg76
I54
sg77
I75
sg78
I28
sa(dp102
g73
g84
sg74
I21
sg75
I2
sg76
I49
sg77
I89
sg78
I18
sa(dp103
g73
g80
sg74
I22
sg75
I3
sg76
I2
sg77
I65
sg78
I23
sa(dp104
g73
g82
sg74
I23
sg75
I2
sg76
I64
sg77
I79
sg78
I21
sa(dp105
g73
g84
sg74
I24
sg75
I1
sg76
I73
sg77
I85
sg78
I6
sa(dp106
g73
g80
sg74
I25
sg75
I2
sg76
I62
sg77
I75
sg78
I26
sa(dp107
g73
g84
sg74
I26
sg75
I2
sg76
I67
sg77
I77
sg78
I21
sa(dp108
g73
g82
sg74
I27
sg75
I1
sg76
I68
sg77
I91
sg78
I77
sa(dp109
g73
g84
sg74
I28
sg75
I0
sg76
I71
sg77
I89
sg78
I0
satRp110
(dp111
g48
I01
sg49
(lp112
g74
ag77
ag75
ag78
ag76
ag73
asg51
Nsg52
I0
sg53
g54
(g13
tRp113
sbsS'max_archive_size'
p114
NsS'solution_found_flag'
p115
I01
sS'time_taken'
p116
F302.70144200325012
sS'benchmark_name'
p117
S'D_A4'
p118
sa(dp119
S'tree_str'
p120
S'a4(a4(a4(ARG0,a4(a4(a4(ARG1,ARG2),a4(ARG1,ARG0)),a4(a4(ARG2,ARG0),a4(a4(ARG0,ARG2),ARG2)))),a4(a4(a4(ARG0,ARG2),a4(ARG0,a4(ARG0,ARG2))),a4(ARG1,a4(a4(a4(a4(ARG0,ARG0),ARG0),a4(a4(ARG1,ARG0),ARG0)),a4(ARG0,a4(ARG1,ARG2)))))),a4(a4(ARG2,a4(a4(ARG2,a4(a4(a4(ARG2,ARG1),a4(ARG0,a4(ARG0,a4(ARG2,ARG0)))),a4(ARG1,ARG0))),a4(a4(ARG2,ARG0),ARG1))),a4(a4(a4(ARG0,ARG2),ARG2),a4(ARG1,ARG2))))'
p121
sS'tree_len'
p122
I85
sS'archive_size'
p123
I14963
sS'number_of_operators'
p124
I42
sS'alg_name'
p125
S'small-LTI'
p126
sS'archive_tree_deapth'
p127
I3
sS'logbook'
p128
g12
(g13
g14
(lp129
(dp130
S'status'
p131
NsS'iteration'
p132
I0
sS'count_wrongs'
p133
I6
sS'picked_node'
p134
NsS'len_master_tree'
p135
I1
sS'total_wrongs'
p136
I6
sa(dp137
g131
S'worst'
p138
sg132
I1
sg133
I8
sg134
I0
sg135
I15
sg136
I96
sa(dp139
g131
S'perfect'
p140
sg132
I2
sg133
I7
sg134
I4
sg135
I25
sg136
I66
sa(dp141
g131
S'better'
p142
sg132
I3
sg133
I4
sg134
I6
sg135
I33
sg136
I32
sa(dp143
g131
g140
sg132
I4
sg133
I3
sg134
I32
sg135
I45
sg136
I24
sa(dp144
g131
g142
sg132
I5
sg133
I3
sg134
I9
sg135
I55
sg136
I49
sa(dp145
g131
g140
sg132
I6
sg133
I2
sg134
I34
sg135
I53
sg136
I12
sa(dp146
g131
g138
sg132
I7
sg133
I3
sg134
I7
sg135
I49
sg136
I58
sa(dp147
g131
g140
sg132
I8
sg133
I3
sg134
I35
sg135
I53
sg136
I57
sa(dp148
g131
g140
sg132
I9
sg133
I2
sg134
I13
sg135
I59
sg136
I16
sa(dp149
g131
g138
sg132
I10
sg133
I3
sg134
I40
sg135
I59
sg136
I30
sa(dp150
g131
g140
sg132
I11
sg133
I3
sg134
I37
sg135
I63
sg136
I27
sa(dp151
g131
g142
sg132
I12
sg133
I2
sg134
I36
sg135
I59
sg136
I16
sa(dp152
g131
g138
sg132
I13
sg133
I3
sg134
I54
sg135
I59
sg136
I30
sa(dp153
g131
g140
sg132
I14
sg133
I3
sg134
I51
sg135
I63
sg136
I27
sa(dp154
g131
g142
sg132
I15
sg133
I2
sg134
I50
sg135
I59
sg136
I16
sa(dp155
g131
g138
sg132
I16
sg133
I3
sg134
I50
sg135
I59
sg136
I30
sa(dp156
g131
g140
sg132
I17
sg133
I3
sg134
I51
sg135
I63
sg136
I27
sa(dp157
g131
g142
sg132
I18
sg133
I2
sg134
I50
sg135
I63
sg136
I22
sa(dp158
g131
g140
sg132
I19
sg133
I2
sg134
I62
sg135
I67
sg136
I21
sa(dp159
g131
g140
sg132
I20
sg133
I2
sg134
I60
sg135
I71
sg136
I19
sa(dp160
g131
g140
sg132
I21
sg133
I1
sg134
I52
sg135
I79
sg136
I5
sa(dp161
g131
g138
sg132
I22
sg133
I2
sg134
I7
sg135
I83
sg136
I44
sa(dp162
g131
g140
sg132
I23
sg133
I2
sg134
I47
sg135
I63
sg136
I18
sa(dp163
g131
g138
sg132
I24
sg133
I3
sg134
I47
sg135
I63
sg136
I61
sa(dp164
g131
g140
sg132
I25
sg133
I3
sg134
I2
sg135
I53
sg136
I36
sa(dp165
g131
g140
sg132
I26
sg133
I2
sg134
I31
sg135
I65
sg136
I18
sa(dp166
g131
g138
sg132
I27
sg133
I3
sg134
I36
sg135
I65
sg136
I61
sa(dp167
g131
g140
sg132
I28
sg133
I2
sg134
I17
sg135
I65
sg136
I21
sa(dp168
g131
g140
sg132
I29
sg133
I1
sg134
I24
sg135
I69
sg136
I9
sa(dp169
g131
g138
sg132
I30
sg133
I2
sg134
I48
sg135
I73
sg136
I43
sa(dp170
g131
g140
sg132
I31
sg133
I1
sg134
I39
sg135
I77
sg136
I13
sa(dp171
g131
g140
sg132
I32
sg133
I0
sg134
I58
sg135
I85
sg136
I0
satRp172
(dp173
g48
I01
sg49
(lp174
g132
ag135
ag133
ag136
ag134
ag131
asg51
Nsg52
I0
sg53
g54
(g13
tRp175
sbsS'max_archive_size'
p176
NsS'solution_found_flag'
p177
I01
sS'time_taken'
p178
F305.74954795837402
sS'benchmark_name'
p179
S'D_A4'
p180
sa(dp181
S'tree_str'
p182
S'a4(a4(a4(ARG0,a4(a4(a4(ARG1,ARG2),a4(ARG1,ARG0)),a4(a4(ARG2,ARG0),a4(a4(ARG0,ARG2),ARG2)))),a4(a4(a4(ARG0,ARG2),a4(ARG0,a4(ARG0,ARG2))),a4(ARG1,a4(a4(a4(ARG1,ARG2),a4(ARG1,a4(ARG0,a4(ARG1,ARG2)))),a4(ARG0,a4(ARG1,ARG2)))))),a4(a4(ARG2,a4(a4(ARG2,a4(a4(a4(ARG2,ARG1),a4(ARG0,a4(ARG0,a4(ARG2,ARG0)))),a4(ARG1,ARG0))),a4(a4(ARG2,ARG0),ARG1))),a4(a4(a4(ARG0,ARG2),ARG2),a4(ARG1,ARG2))))'
p183
sS'tree_len'
p184
I85
sS'archive_size'
p185
I14963
sS'number_of_operators'
p186
I42
sS'alg_name'
p187
S'small-LTI'
p188
sS'archive_tree_deapth'
p189
I3
sS'logbook'
p190
g12
(g13
g14
(lp191
(dp192
S'status'
p193
NsS'iteration'
p194
I0
sS'count_wrongs'
p195
I6
sS'picked_node'
p196
NsS'len_master_tree'
p197
I1
sS'total_wrongs'
p198
I6
sa(dp199
g193
S'worst'
p200
sg194
I1
sg195
I8
sg196
I0
sg197
I15
sg198
I96
sa(dp201
g193
S'perfect'
p202
sg194
I2
sg195
I7
sg196
I4
sg197
I25
sg198
I66
sa(dp203
g193
S'better'
p204
sg194
I3
sg195
I4
sg196
I6
sg197
I33
sg198
I32
sa(dp205
g193
g202
sg194
I4
sg195
I3
sg196
I32
sg197
I45
sg198
I24
sa(dp206
g193
g204
sg194
I5
sg195
I3
sg196
I9
sg197
I55
sg198
I49
sa(dp207
g193
g202
sg194
I6
sg195
I2
sg196
I32
sg197
I53
sg198
I12
sa(dp208
g193
g200
sg194
I7
sg195
I3
sg196
I7
sg197
I49
sg198
I58
sa(dp209
g193
g202
sg194
I8
sg195
I3
sg196
I33
sg197
I53
sg198
I57
sa(dp210
g193
g202
sg194
I9
sg195
I2
sg196
I13
sg197
I59
sg198
I16
sa(dp211
g193
g200
sg194
I10
sg195
I3
sg196
I40
sg197
I59
sg198
I30
sa(dp212
g193
g202
sg194
I11
sg195
I3
sg196
I39
sg197
I63
sg198
I27
sa(dp213
g193
g204
sg194
I12
sg195
I2
sg196
I36
sg197
I59
sg198
I16
sa(dp214
g193
g200
sg194
I13
sg195
I3
sg196
I54
sg197
I59
sg198
I30
sa(dp215
g193
g202
sg194
I14
sg195
I3
sg196
I51
sg197
I63
sg198
I27
sa(dp216
g193
g204
sg194
I15
sg195
I2
sg196
I50
sg197
I59
sg198
I16
sa(dp217
g193
g200
sg194
I16
sg195
I3
sg196
I54
sg197
I59
sg198
I30
sa(dp218
g193
g202
sg194
I17
sg195
I3
sg196
I51
sg197
I63
sg198
I27
sa(dp219
g193
g204
sg194
I18
sg195
I2
sg196
I50
sg197
I63
sg198
I22
sa(dp220
g193
g202
sg194
I19
sg195
I2
sg196
I62
sg197
I67
sg198
I21
sa(dp221
g193
g202
sg194
I20
sg195
I2
sg196
I60
sg197
I71
sg198
I19
sa(dp222
g193
g202
sg194
I21
sg195
I1
sg196
I52
sg197
I79
sg198
I5
sa(dp223
g193
g200
sg194
I22
sg195
I2
sg196
I7
sg197
I83
sg198
I44
sa(dp224
g193
g202
sg194
I23
sg195
I2
sg196
I47
sg197
I63
sg198
I18
sa(dp225
g193
g200
sg194
I24
sg195
I3
sg196
I49
sg197
I63
sg198
I61
sa(dp226
g193
g202
sg194
I25
sg195
I3
sg196
I2
sg197
I53
sg198
I36
sa(dp227
g193
g202
sg194
I26
sg195
I2
sg196
I33
sg197
I65
sg198
I18
sa(dp228
g193
g200
sg194
I27
sg195
I3
sg196
I28
sg197
I65
sg198
I61
sa(dp229
g193
g202
sg194
I28
sg195
I2
sg196
I15
sg197
I65
sg198
I21
sa(dp230
g193
g202
sg194
I29
sg195
I1
sg196
I24
sg197
I69
sg198
I9
sa(dp231
g193
g200
sg194
I30
sg195
I2
sg196
I48
sg197
I73
sg198
I43
sa(dp232
g193
g202
sg194
I31
sg195
I1
sg196
I40
sg197
I77
sg198
I13
sa(dp233
g193
g202
sg194
I32
sg195
I0
sg196
I62
sg197
I85
sg198
I0
satRp234
(dp235
g48
I01
sg49
(lp236
g194
ag197
ag195
ag198
ag196
ag193
asg51
Nsg52
I0
sg53
g54
(g13
tRp237
sbsS'max_archive_size'
p238
NsS'solution_found_flag'
p239
I01
sS'time_taken'
p240
F306.6634521484375
sS'benchmark_name'
p241
S'D_A4'
p242
sa(dp243
S'tree_str'
p244
S'a4(a4(a4(a4(ARG1,ARG1),a4(a4(ARG1,ARG0),a4(ARG0,ARG1))),a4(a4(a4(ARG0,a4(a4(a4(ARG1,ARG2),a4(ARG1,ARG1)),a4(a4(ARG1,ARG0),ARG2))),ARG2),a4(ARG1,ARG2))),a4(a4(ARG2,a4(a4(ARG2,a4(a4(a4(ARG2,ARG1),a4(ARG0,a4(ARG0,a4(ARG2,a4(ARG0,ARG2))))),a4(ARG1,ARG2))),a4(a4(ARG2,ARG0),ARG1))),a4(a4(a4(ARG0,ARG2),ARG2),a4(ARG1,ARG2))))'
p245
sS'tree_len'
p246
I71
sS'archive_size'
p247
I14963
sS'number_of_operators'
p248
I35
sS'alg_name'
p249
S'small-LTI'
p250
sS'archive_tree_deapth'
p251
I3
sS'logbook'
p252
g12
(g13
g14
(lp253
(dp254
S'status'
p255
NsS'iteration'
p256
I0
sS'count_wrongs'
p257
I6
sS'picked_node'
p258
NsS'len_master_tree'
p259
I1
sS'total_wrongs'
p260
I6
sa(dp261
g255
S'worst'
p262
sg256
I1
sg257
I8
sg258
I0
sg259
I15
sg260
I96
sa(dp263
g255
S'perfect'
p264
sg256
I2
sg257
I7
sg258
I4
sg259
I25
sg260
I66
sa(dp265
g255
S'better'
p266
sg256
I3
sg257
I4
sg258
I6
sg259
I33
sg260
I32
sa(dp267
g255
g264
sg256
I4
sg257
I3
sg258
I32
sg259
I45
sg260
I24
sa(dp268
g255
g266
sg256
I5
sg257
I3
sg258
I9
sg259
I55
sg260
I49
sa(dp269
g255
g264
sg256
I6
sg257
I2
sg258
I31
sg259
I53
sg260
I12
sa(dp270
g255
g262
sg256
I7
sg257
I3
sg258
I7
sg259
I49
sg260
I58
sa(dp271
g255
g264
sg256
I8
sg257
I3
sg258
I36
sg259
I53
sg260
I57
sa(dp272
g255
g264
sg256
I9
sg257
I2
sg258
I15
sg259
I59
sg260
I16
sa(dp273
g255
g262
sg256
I10
sg257
I3
sg258
I38
sg259
I59
sg260
I30
sa(dp274
g255
g264
sg256
I11
sg257
I3
sg258
I51
sg259
I63
sg260
I27
sa(dp275
g255
g266
sg256
I12
sg257
I2
sg258
I50
sg259
I59
sg260
I16
sa(dp276
g255
g262
sg256
I13
sg257
I3
sg258
I50
sg259
I59
sg260
I30
sa(dp277
g255
g264
sg256
I14
sg257
I3
sg258
I51
sg259
I63
sg260
I27
sa(dp278
g255
g266
sg256
I15
sg257
I2
sg258
I50
sg259
I63
sg260
I22
sa(dp279
g255
g264
sg256
I16
sg257
I2
sg258
I62
sg259
I67
sg260
I21
sa(dp280
g255
g264
sg256
I17
sg257
I2
sg258
I60
sg259
I71
sg260
I19
sa(dp281
g255
g264
sg256
I18
sg257
I1
sg258
I52
sg259
I79
sg260
I5
sa(dp282
g255
g262
sg256
I19
sg257
I2
sg258
I7
sg259
I83
sg260
I44
sa(dp283
g255
g264
sg256
I20
sg257
I2
sg258
I47
sg259
I63
sg260
I18
sa(dp284
g255
g262
sg256
I21
sg257
I3
sg258
I47
sg259
I63
sg260
I57
sa(dp285
g255
g264
sg256
I22
sg257
I3
sg258
I28
sg259
I63
sg260
I56
sa(dp286
g255
g264
sg256
I23
sg257
I2
sg258
I29
sg259
I63
sg260
I21
sa(dp287
g255
g264
sg256
I24
sg257
I1
sg258
I47
sg259
I73
sg260
I9
sa(dp288
g255
g262
sg256
I25
sg257
I2
sg258
I47
sg259
I77
sg260
I116
sa(dp289
g255
g264
sg256
I26
sg257
I2
sg258
I61
sg259
I79
sg260
I104
sa(dp290
g255
g264
sg256
I27
sg257
I1
sg258
I54
sg259
I81
sg260
I42
sa(dp291
g255
g264
sg256
I28
sg257
I0
sg258
I2
sg259
I71
sg260
I0
satRp292
(dp293
g48
I01
sg49
(lp294
g256
ag259
ag257
ag260
ag258
ag255
asg51
Nsg52
I0
sg53
g54
(g13
tRp295
sbsS'max_archive_size'
p296
NsS'solution_found_flag'
p297
I01
sS'time_taken'
p298
F310.33522200584412
sS'benchmark_name'
p299
S'D_A4'
p300
sa(dp301
S'tree_str'
p302
S'a4(a4(a4(ARG0,a4(a4(a4(ARG1,ARG2),a4(ARG1,ARG0)),a4(a4(ARG2,ARG0),a4(a4(ARG0,ARG2),ARG2)))),a4(a4(a4(ARG0,a4(ARG0,a4(ARG0,ARG2))),ARG2),a4(ARG1,ARG2))),a4(a4(ARG2,a4(a4(ARG2,a4(a4(a4(ARG2,ARG1),a4(ARG0,a4(ARG0,a4(ARG2,ARG0)))),a4(ARG1,ARG2))),a4(a4(ARG2,ARG0),ARG1))),a4(ARG0,a4(a4(a4(ARG1,ARG2),ARG2),a4(a4(ARG0,a4(a4(ARG1,ARG0),a4(ARG0,ARG2))),ARG0)))))'
p303
sS'tree_len'
p304
I79
sS'archive_size'
p305
I14963
sS'number_of_operators'
p306
I39
sS'alg_name'
p307
S'small-LTI'
p308
sS'archive_tree_deapth'
p309
I3
sS'logbook'
p310
g12
(g13
g14
(lp311
(dp312
S'status'
p313
NsS'iteration'
p314
I0
sS'count_wrongs'
p315
I6
sS'picked_node'
p316
NsS'len_master_tree'
p317
I1
sS'total_wrongs'
p318
I6
sa(dp319
g313
S'worst'
p320
sg314
I1
sg315
I8
sg316
I0
sg317
I15
sg318
I96
sa(dp321
g313
S'perfect'
p322
sg314
I2
sg315
I7
sg316
I4
sg317
I25
sg318
I66
sa(dp323
g313
S'better'
p324
sg314
I3
sg315
I4
sg316
I6
sg317
I33
sg318
I32
sa(dp325
g313
g322
sg314
I4
sg315
I3
sg316
I32
sg317
I45
sg318
I24
sa(dp326
g313
g324
sg314
I5
sg315
I3
sg316
I9
sg317
I55
sg318
I49
sa(dp327
g313
g322
sg314
I6
sg315
I2
sg316
I34
sg317
I53
sg318
I12
sa(dp328
g313
g320
sg314
I7
sg315
I3
sg316
I7
sg317
I49
sg318
I58
sa(dp329
g313
g322
sg314
I8
sg315
I3
sg316
I35
sg317
I53
sg318
I57
sa(dp330
g313
g322
sg314
I9
sg315
I2
sg316
I13
sg317
I59
sg318
I16
sa(dp331
g313
g320
sg314
I10
sg315
I3
sg316
I36
sg317
I59
sg318
I30
sa(dp332
g313
g322
sg314
I11
sg315
I3
sg316
I51
sg317
I63
sg318
I27
sa(dp333
g313
g324
sg314
I12
sg315
I2
sg316
I50
sg317
I59
sg318
I16
sa(dp334
g313
g320
sg314
I13
sg315
I3
sg316
I50
sg317
I59
sg318
I30
sa(dp335
g313
g322
sg314
I14
sg315
I3
sg316
I51
sg317
I63
sg318
I27
sa(dp336
g313
g324
sg314
I15
sg315
I2
sg316
I50
sg317
I63
sg318
I22
sa(dp337
g313
g322
sg314
I16
sg315
I2
sg316
I62
sg317
I67
sg318
I21
sa(dp338
g313
g322
sg314
I17
sg315
I2
sg316
I60
sg317
I71
sg318
I19
sa(dp339
g313
g322
sg314
I18
sg315
I1
sg316
I52
sg317
I79
sg318
I5
sa(dp340
g313
g320
sg314
I19
sg315
I2
sg316
I7
sg317
I83
sg318
I44
sa(dp341
g313
g322
sg314
I20
sg315
I2
sg316
I47
sg317
I63
sg318
I18
sa(dp342
g313
g320
sg314
I21
sg315
I3
sg316
I47
sg317
I63
sg318
I57
sa(dp343
g313
g322
sg314
I22
sg315
I3
sg316
I32
sg317
I63
sg318
I56
sa(dp344
g313
g322
sg314
I23
sg315
I2
sg316
I27
sg317
I63
sg318
I21
sa(dp345
g313
g322
sg314
I24
sg315
I1
sg316
I47
sg317
I73
sg318
I9
sa(dp346
g313
g320
sg314
I25
sg315
I2
sg316
I49
sg317
I77
sg318
I41
sa(dp347
g313
g322
sg314
I26
sg315
I1
sg316
I57
sg317
I71
sg318
I13
sa(dp348
g313
g322
sg314
I27
sg315
I0
sg316
I58
sg317
I79
sg318
I0
satRp349
(dp350
g48
I01
sg49
(lp351
g314
ag317
ag315
ag318
ag316
ag313
asg51
Nsg52
I0
sg53
g54
(g13
tRp352
sbsS'max_archive_size'
p353
NsS'solution_found_flag'
p354
I01
sS'time_taken'
p355
F289.72781109809875
sS'benchmark_name'
p356
S'D_A4'
p357
sa(dp358
S'tree_str'
p359
S'a4(a4(a4(ARG0,a4(a4(a4(ARG0,a4(a4(ARG2,ARG1),a4(a4(ARG2,a4(a4(ARG1,ARG0),a4(a4(ARG2,ARG2),ARG0))),ARG0))),ARG0),a4(a4(ARG2,ARG0),a4(ARG0,ARG2)))),ARG0),a4(a4(ARG0,a4(a4(ARG2,a4(ARG2,ARG1)),a4(a4(ARG0,ARG0),a4(ARG0,ARG0)))),a4(ARG0,a4(a4(a4(a4(ARG0,ARG1),a4(a4(ARG2,ARG2),ARG1)),ARG2),a4(ARG1,a4(ARG0,ARG2))))))'
p360
sS'tree_len'
p361
I69
sS'archive_size'
p362
I14963
sS'number_of_operators'
p363
I34
sS'alg_name'
p364
S'small-LTI'
p365
sS'archive_tree_deapth'
p366
I3
sS'logbook'
p367
g12
(g13
g14
(lp368
(dp369
S'status'
p370
NsS'iteration'
p371
I0
sS'count_wrongs'
p372
I6
sS'picked_node'
p373
NsS'len_master_tree'
p374
I1
sS'total_wrongs'
p375
I6
sa(dp376
g370
S'worst'
p377
sg371
I1
sg372
I8
sg373
I0
sg374
I15
sg375
I110
sa(dp378
g370
S'better'
p379
sg371
I2
sg372
I8
sg373
I4
sg374
I25
sg375
I98
sa(dp380
g370
S'perfect'
p381
sg371
I3
sg372
I7
sg373
I22
sg374
I31
sg375
I78
sa(dp382
g370
g381
sg371
I4
sg372
I4
sg373
I6
sg374
I43
sg375
I31
sa(dp383
g370
g379
sg371
I5
sg372
I2
sg373
I9
sg374
I57
sg375
I29
sa(dp384
g370
g381
sg371
I6
sg372
I2
sg373
I46
sg374
I59
sg375
I26
sa(dp385
g370
g381
sg371
I7
sg372
I2
sg373
I48
sg374
I63
sg375
I12
sa(dp386
g370
g377
sg371
I8
sg372
I3
sg373
I8
sg374
I67
sg375
I48
sa(dp387
g370
g381
sg371
I9
sg372
I3
sg373
I43
sg374
I63
sg375
I27
sa(dp388
g370
g377
sg371
I10
sg372
I3
sg373
I7
sg374
I47
sg375
I35
sa(dp389
g370
g379
sg371
I11
sg372
I3
sg373
I41
sg374
I51
sg375
I37
sa(dp390
g370
g381
sg371
I12
sg372
I3
sg373
I50
sg374
I59
sg375
I27
sa(dp391
g370
g381
sg371
I13
sg372
I1
sg373
I45
sg374
I67
sg375
I5
sa(dp392
g370
g377
sg371
I14
sg372
I2
sg373
I7
sg374
I71
sg375
I35
sa(dp393
g370
g381
sg371
I15
sg372
I2
sg373
I63
sg374
I75
sg375
I18
sa(dp394
g370
g377
sg371
I16
sg372
I3
sg373
I6
sg374
I43
sg375
I20
sa(dp395
g370
g381
sg371
I17
sg372
I1
sg373
I42
sg374
I57
sg375
I6
sa(dp396
g370
g377
sg371
I18
sg372
I2
sg373
I40
sg374
I47
sg375
I18
sa(dp397
g370
g381
sg371
I19
sg372
I2
sg373
I46
sg374
I47
sg375
I17
sa(dp398
g370
g377
sg371
I20
sg372
I3
sg373
I45
sg374
I55
sg375
I47
sa(dp399
g370
g381
sg371
I21
sg372
I1
sg373
I45
sg374
I59
sg375
I7
sa(dp400
g370
g377
sg371
I22
sg372
I2
sg373
I40
sg374
I47
sg375
I22
sa(dp401
g370
g381
sg371
I23
sg372
I2
sg373
I41
sg374
I53
sg375
I21
sa(dp402
g370
g379
sg371
I24
sg372
I1
sg373
I45
sg374
I61
sg375
I18
sa(dp403
g370
g381
sg371
I25
sg372
I0
sg373
I57
sg374
I69
sg375
I0
satRp404
(dp405
g48
I01
sg49
(lp406
g371
ag374
ag372
ag375
ag373
ag370
asg51
Nsg52
I0
sg53
g54
(g13
tRp407
sbsS'max_archive_size'
p408
NsS'solution_found_flag'
p409
I01
sS'time_taken'
p410
F292.87198615074158
sS'benchmark_name'
p411
S'D_A4'
p412
sa(dp413
S'tree_str'
p414
S'a4(a4(a4(ARG0,a4(a4(a4(ARG0,a4(a4(ARG0,ARG1),a4(ARG0,a4(ARG1,ARG0)))),ARG0),a4(a4(ARG0,ARG2),ARG0))),ARG0),a4(a4(ARG0,a4(a4(ARG2,a4(ARG2,a4(a4(a4(ARG2,ARG1),a4(ARG2,ARG0)),ARG0))),a4(a4(ARG0,ARG0),a4(ARG0,ARG0)))),a4(ARG0,a4(a4(a4(a4(ARG0,ARG1),a4(a4(ARG2,ARG2),ARG1)),ARG2),a4(ARG1,a4(ARG0,ARG2))))))'
p415
sS'tree_len'
p416
I67
sS'archive_size'
p417
I14963
sS'number_of_operators'
p418
I33
sS'alg_name'
p419
S'small-LTI'
p420
sS'archive_tree_deapth'
p421
I3
sS'logbook'
p422
g12
(g13
g14
(lp423
(dp424
S'status'
p425
NsS'iteration'
p426
I0
sS'count_wrongs'
p427
I6
sS'picked_node'
p428
NsS'len_master_tree'
p429
I1
sS'total_wrongs'
p430
I6
sa(dp431
g425
S'worst'
p432
sg426
I1
sg427
I8
sg428
I0
sg429
I15
sg430
I110
sa(dp433
g425
S'better'
p434
sg426
I2
sg427
I8
sg428
I4
sg429
I25
sg430
I98
sa(dp435
g425
S'perfect'
p436
sg426
I3
sg427
I7
sg428
I22
sg429
I31
sg430
I78
sa(dp437
g425
g436
sg426
I4
sg427
I4
sg428
I6
sg429
I43
sg430
I31
sa(dp438
g425
g434
sg426
I5
sg427
I2
sg428
I9
sg429
I57
sg430
I29
sa(dp439
g425
g436
sg426
I6
sg427
I2
sg428
I44
sg429
I61
sg430
I26
sa(dp440
g425
g436
sg426
I7
sg427
I2
sg428
I43
sg429
I63
sg430
I12
sa(dp441
g425
g436
sg426
I8
sg427
I1
sg428
I8
sg429
I77
sg430
I5
sa(dp442
g425
g432
sg426
I9
sg427
I2
sg428
I8
sg429
I81
sg430
I37
sa(dp443
g425
g436
sg426
I10
sg427
I2
sg428
I59
sg429
I67
sg430
I18
sa(dp444
g425
g432
sg426
I11
sg427
I3
sg428
I6
sg429
I43
sg430
I20
sa(dp445
g425
g436
sg426
I12
sg427
I1
sg428
I42
sg429
I57
sg430
I6
sa(dp446
g425
g432
sg426
I13
sg427
I2
sg428
I40
sg429
I47
sg430
I22
sa(dp447
g425
g436
sg426
I14
sg427
I2
sg428
I41
sg429
I51
sg430
I21
sa(dp448
g425
g434
sg426
I15
sg427
I1
sg428
I45
sg429
I59
sg430
I31
sa(dp449
g425
g436
sg426
I16
sg427
I0
sg428
I35
sg429
I67
sg430
I0
satRp450
(dp451
g48
I01
sg49
(lp452
g426
ag429
ag427
ag430
ag428
ag425
asg51
Nsg52
I0
sg53
g54
(g13
tRp453
sbsS'max_archive_size'
p454
NsS'solution_found_flag'
p455
I01
sS'time_taken'
p456
F268.94795703887939
sS'benchmark_name'
p457
S'D_A4'
p458
sa(dp459
S'tree_str'
p460
S'a4(a4(a4(a4(ARG1,ARG2),a4(a4(a4(a4(ARG0,ARG0),ARG0),ARG2),a4(ARG1,ARG0))),a4(a4(a4(ARG0,a4(a4(ARG2,a4(ARG2,ARG0)),a4(a4(ARG1,ARG0),ARG2))),ARG2),a4(ARG1,ARG2))),a4(a4(ARG2,a4(a4(ARG2,a4(a4(a4(ARG2,ARG1),a4(ARG0,a4(ARG0,a4(ARG2,a4(ARG0,ARG0))))),a4(ARG1,ARG0))),a4(a4(ARG2,ARG0),ARG1))),a4(ARG0,a4(a4(a4(ARG1,ARG2),ARG2),a4(a4(ARG0,a4(a4(ARG1,ARG0),a4(ARG0,ARG2))),ARG0)))))'
p461
sS'tree_len'
p462
I83
sS'archive_size'
p463
I14963
sS'number_of_operators'
p464
I41
sS'alg_name'
p465
S'small-LTI'
p466
sS'archive_tree_deapth'
p467
I3
sS'logbook'
p468
g12
(g13
g14
(lp469
(dp470
S'status'
p471
NsS'iteration'
p472
I0
sS'count_wrongs'
p473
I6
sS'picked_node'
p474
NsS'len_master_tree'
p475
I1
sS'total_wrongs'
p476
I6
sa(dp477
g471
S'worst'
p478
sg472
I1
sg473
I8
sg474
I0
sg475
I15
sg476
I96
sa(dp479
g471
S'perfect'
p480
sg472
I2
sg473
I7
sg474
I4
sg475
I25
sg476
I66
sa(dp481
g471
S'better'
p482
sg472
I3
sg473
I4
sg474
I6
sg475
I33
sg476
I32
sa(dp483
g471
g480
sg472
I4
sg473
I3
sg474
I32
sg475
I45
sg476
I24
sa(dp484
g471
g482
sg472
I5
sg473
I3
sg474
I9
sg475
I55
sg476
I49
sa(dp485
g471
g480
sg472
I6
sg473
I2
sg474
I32
sg475
I53
sg476
I12
sa(dp486
g471
g478
sg472
I7
sg473
I3
sg474
I7
sg475
I49
sg476
I58
sa(dp487
g471
g480
sg472
I8
sg473
I3
sg474
I33
sg475
I53
sg476
I57
sa(dp488
g471
g480
sg472
I9
sg473
I2
sg474
I13
sg475
I59
sg476
I16
sa(dp489
g471
g478
sg472
I10
sg473
I3
sg474
I36
sg475
I59
sg476
I30
sa(dp490
g471
g480
sg472
I11
sg473
I3
sg474
I51
sg475
I63
sg476
I27
sa(dp491
g471
g482
sg472
I12
sg473
I2
sg474
I50
sg475
I59
sg476
I16
sa(dp492
g471
g478
sg472
I13
sg473
I3
sg474
I54
sg475
I59
sg476
I30
sa(dp493
g471
g480
sg472
I14
sg473
I3
sg474
I53
sg475
I63
sg476
I27
sa(dp494
g471
g482
sg472
I15
sg473
I2
sg474
I50
sg475
I63
sg476
I22
sa(dp495
g471
g480
sg472
I16
sg473
I2
sg474
I62
sg475
I67
sg476
I21
sa(dp496
g471
g480
sg472
I17
sg473
I2
sg474
I60
sg475
I71
sg476
I19
sa(dp497
g471
g480
sg472
I18
sg473
I1
sg474
I52
sg475
I79
sg476
I5
sa(dp498
g471
g478
sg472
I19
sg473
I2
sg474
I7
sg475
I83
sg476
I44
sa(dp499
g471
g480
sg472
I20
sg473
I2
sg474
I47
sg475
I63
sg476
I18
sa(dp500
g471
g478
sg472
I21
sg473
I3
sg474
I47
sg475
I63
sg476
I57
sa(dp501
g471
g480
sg472
I22
sg473
I2
sg474
I25
sg475
I63
sg476
I21
sa(dp502
g471
g480
sg472
I23
sg473
I1
sg474
I48
sg475
I73
sg476
I9
sa(dp503
g471
g478
sg472
I24
sg473
I2
sg474
I48
sg475
I77
sg476
I86
sa(dp504
g471
g480
sg472
I25
sg473
I1
sg474
I52
sg475
I79
sg476
I12
sa(dp505
g471
g480
sg472
I26
sg473
I0
sg474
I69
sg475
I83
sg476
I0
satRp506
(dp507
g48
I01
sg49
(lp508
g472
ag475
ag473
ag476
ag474
ag471
asg51
Nsg52
I0
sg53
g54
(g13
tRp509
sbsS'max_archive_size'
p510
NsS'solution_found_flag'
p511
I01
sS'time_taken'
p512
F330.11977481842041
sS'benchmark_name'
p513
S'D_A4'
p514
sa(dp515
S'tree_str'
p516
S'a4(a4(a4(ARG0,a4(a4(a4(ARG1,ARG2),a4(ARG1,ARG0)),a4(a4(ARG2,ARG0),a4(a4(ARG0,ARG2),ARG2)))),a4(a4(a4(ARG0,a4(ARG0,a4(ARG0,ARG2))),ARG2),a4(ARG1,a4(a4(a4(a4(ARG0,ARG0),ARG0),a4(a4(ARG1,ARG0),ARG0)),a4(ARG0,a4(ARG1,ARG2)))))),a4(a4(ARG0,a4(a4(ARG0,a4(ARG1,ARG2)),a4(a4(ARG0,ARG0),a4(ARG1,ARG2)))),a4(a4(a4(ARG0,a4(a4(a4(a4(ARG1,a4(ARG0,ARG1)),a4(ARG0,ARG2)),ARG2),a4(a4(ARG2,a4(ARG0,ARG0)),ARG0))),a4(ARG0,ARG2)),a4(a4(ARG1,ARG2),a4(a4(a4(ARG2,ARG1),ARG1),ARG0)))))'
p517
sS'tree_len'
p518
I103
sS'archive_size'
p519
I14963
sS'number_of_operators'
p520
I51
sS'alg_name'
p521
S'small-LTI'
p522
sS'archive_tree_deapth'
p523
I3
sS'logbook'
p524
g12
(g13
g14
(lp525
(dp526
S'status'
p527
NsS'iteration'
p528
I0
sS'count_wrongs'
p529
I6
sS'picked_node'
p530
NsS'len_master_tree'
p531
I1
sS'total_wrongs'
p532
I6
sa(dp533
g527
S'worst'
p534
sg528
I1
sg529
I8
sg530
I0
sg531
I15
sg532
I94
sa(dp535
g527
S'better'
p536
sg528
I2
sg529
I6
sg530
I4
sg531
I21
sg532
I74
sa(dp537
g527
S'perfect'
p538
sg528
I3
sg529
I5
sg530
I20
sg531
I29
sg532
I60
sa(dp539
g527
g536
sg528
I4
sg529
I5
sg530
I2
sg531
I25
sg532
I65
sa(dp540
g527
g538
sg528
I5
sg529
I5
sg530
I14
sg531
I29
sg532
I60
sa(dp541
g527
g538
sg528
I6
sg529
I4
sg530
I23
sg531
I37
sg532
I40
sa(dp542
g527
g536
sg528
I7
sg529
I4
sg530
I4
sg531
I47
sg532
I61
sa(dp543
g527
g538
sg528
I8
sg529
I3
sg530
I35
sg531
I49
sg532
I24
sa(dp544
g527
g536
sg528
I9
sg529
I3
sg530
I7
sg531
I59
sg532
I54
sa(dp545
g527
g538
sg528
I10
sg529
I2
sg530
I32
sg531
I57
sg532
I12
sa(dp546
g527
g534
sg528
I11
sg529
I3
sg530
I5
sg531
I53
sg532
I66
sa(dp547
g527
g538
sg528
I12
sg529
I3
sg530
I27
sg531
I55
sg532
I62
sa(dp548
g527
g538
sg528
I13
sg529
I3
sg530
I30
sg531
I59
sg532
I59
sa(dp549
g527
g538
sg528
I14
sg529
I3
sg530
I19
sg531
I63
sg532
I55
sa(dp550
g527
g538
sg528
I15
sg529
I3
sg530
I26
sg531
I71
sg532
I47
sa(dp551
g527
g538
sg528
I16
sg529
I2
sg530
I30
sg531
I79
sg532
I16
sa(dp552
g527
g534
sg528
I17
sg529
I3
sg530
I31
sg531
I79
sg532
I30
sa(dp553
g527
g538
sg528
I18
sg529
I3
sg530
I71
sg531
I83
sg532
I27
sa(dp554
g527
g536
sg528
I19
sg529
I2
sg530
I70
sg531
I79
sg532
I16
sa(dp555
g527
g534
sg528
I20
sg529
I3
sg530
I70
sg531
I79
sg532
I30
sa(dp556
g527
g538
sg528
I21
sg529
I3
sg530
I73
sg531
I83
sg532
I27
sa(dp557
g527
g536
sg528
I22
sg529
I2
sg530
I70
sg531
I83
sg532
I22
sa(dp558
g527
g538
sg528
I23
sg529
I2
sg530
I82
sg531
I87
sg532
I21
sa(dp559
g527
g538
sg528
I24
sg529
I2
sg530
I80
sg531
I91
sg532
I19
sa(dp560
g527
g538
sg528
I25
sg529
I1
sg530
I72
sg531
I99
sg532
I5
sa(dp561
g527
g534
sg528
I26
sg529
I2
sg530
I5
sg531
I103
sg532
I44
sa(dp562
g527
g538
sg528
I27
sg529
I2
sg530
I67
sg531
I83
sg532
I18
sa(dp563
g527
g534
sg528
I28
sg529
I3
sg530
I69
sg531
I83
sg532
I62
sa(dp564
g527
g538
sg528
I29
sg529
I3
sg530
I19
sg531
I73
sg532
I36
sa(dp565
g527
g538
sg528
I30
sg529
I2
sg530
I49
sg531
I85
sg532
I18
sa(dp566
g527
g534
sg528
I31
sg529
I3
sg530
I44
sg531
I85
sg532
I83
sa(dp567
g527
g538
sg528
I32
sg529
I2
sg530
I26
sg531
I83
sg532
I21
sa(dp568
g527
g538
sg528
I33
sg529
I1
sg530
I40
sg531
I87
sg532
I9
sa(dp569
g527
g534
sg528
I34
sg529
I2
sg530
I68
sg531
I91
sg532
I32
sa(dp570
g527
g538
sg528
I35
sg529
I1
sg530
I83
sg531
I103
sg532
I12
sa(dp571
g527
g534
sg528
I36
sg529
I2
sg530
I82
sg531
I91
sg532
I40
sa(dp572
g527
g538
sg528
I37
sg529
I1
sg530
I59
sg531
I95
sg532
I13
sa(dp573
g527
g538
sg528
I38
sg529
I0
sg530
I76
sg531
I103
sg532
I0
satRp574
(dp575
g48
I01
sg49
(lp576
g528
ag531
ag529
ag532
ag530
ag527
asg51
Nsg52
I0
sg53
g54
(g13
tRp577
sbsS'max_archive_size'
p578
NsS'solution_found_flag'
p579
I01
sS'time_taken'
p580
F373.90345215797424
sS'benchmark_name'
p581
S'D_A4'
p582
sa(dp583
S'tree_str'
p584
S'a4(a4(a4(ARG1,a4(a4(ARG2,a4(ARG2,ARG1)),a4(a4(ARG1,ARG0),a4(ARG1,ARG0)))),a4(ARG0,a4(a4(a4(ARG0,a4(a4(ARG0,a4(ARG1,ARG0)),a4(ARG0,ARG0))),ARG0),a4(a4(ARG1,ARG2),a4(ARG0,ARG2))))),a4(a4(a4(a4(ARG2,a4(ARG0,ARG0)),a4(ARG2,a4(a4(a4(ARG0,ARG2),a4(ARG0,ARG0)),a4(ARG1,a4(ARG2,ARG0))))),ARG0),a4(a4(a4(a4(a4(ARG0,a4(ARG2,ARG2)),a4(a4(ARG2,ARG0),ARG0)),ARG1),a4(ARG0,a4(ARG1,a4(a4(ARG2,ARG0),a4(ARG2,a4(ARG1,ARG0)))))),ARG2)))'
p585
sS'tree_len'
p586
I93
sS'archive_size'
p587
I14963
sS'number_of_operators'
p588
I46
sS'alg_name'
p589
S'small-LTI'
p590
sS'archive_tree_deapth'
p591
I3
sS'logbook'
p592
g12
(g13
g14
(lp593
(dp594
S'status'
p595
NsS'iteration'
p596
I0
sS'count_wrongs'
p597
I6
sS'picked_node'
p598
NsS'len_master_tree'
p599
I1
sS'total_wrongs'
p600
I6
sa(dp601
g595
S'worst'
p602
sg596
I1
sg597
I8
sg598
I0
sg599
I15
sg600
I110
sa(dp603
g595
S'better'
p604
sg596
I2
sg597
I7
sg598
I3
sg599
I25
sg600
I77
sa(dp605
g595
S'perfect'
p606
sg596
I3
sg597
I6
sg598
I19
sg599
I33
sg600
I59
sa(dp607
g595
g604
sg596
I4
sg597
I3
sg598
I10
sg599
I43
sg600
I37
sa(dp608
g595
g606
sg596
I5
sg597
I2
sg598
I36
sg599
I51
sg600
I16
sa(dp609
g595
g602
sg596
I6
sg597
I3
sg598
I8
sg599
I43
sg600
I46
sa(dp610
g595
g606
sg596
I7
sg597
I2
sg598
I42
sg599
I53
sg600
I25
sa(dp611
g595
g606
sg596
I8
sg597
I2
sg598
I31
sg599
I57
sg600
I28
sa(dp612
g595
g606
sg596
I9
sg597
I1
sg598
I37
sg599
I57
sg600
I9
sa(dp613
g595
g602
sg596
I10
sg597
I2
sg598
I8
sg599
I61
sg600
I47
sa(dp614
g595
g606
sg596
I11
sg597
I2
sg598
I34
sg599
I57
sg600
I22
sa(dp615
g595
g602
sg596
I12
sg597
I3
sg598
I5
sg599
I65
sg600
I82
sa(dp616
g595
g606
sg596
I13
sg597
I3
sg598
I39
sg599
I65
sg600
I71
sa(dp617
g595
g606
sg596
I14
sg597
I3
sg598
I14
sg599
I73
sg600
I62
sa(dp618
g595
g606
sg596
I15
sg597
I3
sg598
I47
sg599
I81
sg600
I68
sa(dp619
g595
g606
sg596
I16
sg597
I2
sg598
I56
sg599
I81
sg600
I30
sa(dp620
g595
g606
sg596
I17
sg597
I2
sg598
I50
sg599
I93
sg600
I18
sa(dp621
g595
g602
sg596
I18
sg597
I3
sg598
I6
sg599
I65
sg600
I33
sa(dp622
g595
g604
sg596
I19
sg597
I2
sg598
I57
sg599
I75
sg600
I24
sa(dp623
g595
g606
sg596
I20
sg597
I1
sg598
I74
sg599
I83
sg600
I9
sa(dp624
g595
g606
sg596
I21
sg597
I1
sg598
I61
sg599
I87
sg600
I8
sa(dp625
g595
g606
sg596
I22
sg597
I0
sg598
I59
sg599
I93
sg600
I0
satRp626
(dp627
g48
I01
sg49
(lp628
g596
ag599
ag597
ag600
ag598
ag595
asg51
Nsg52
I0
sg53
g54
(g13
tRp629
sbsS'max_archive_size'
p630
NsS'solution_found_flag'
p631
I01
sS'time_taken'
p632
F280.14420199394226
sS'benchmark_name'
p633
S'D_A4'
p634
sa(dp635
S'tree_str'
p636
S'a4(a4(a4(ARG0,a4(a4(a4(a4(ARG2,ARG1),a4(a4(a4(ARG2,ARG1),a4(ARG0,a4(ARG0,ARG1))),ARG1)),a4(a4(ARG1,ARG2),a4(ARG0,a4(ARG1,ARG2)))),a4(a4(ARG0,ARG2),a4(a4(ARG1,ARG1),ARG1)))),ARG0),a4(a4(a4(a4(ARG2,ARG2),a4(ARG0,ARG2)),a4(ARG2,a4(a4(a4(ARG2,a4(a4(a4(ARG0,ARG1),a4(ARG0,ARG0)),a4(ARG1,a4(ARG2,ARG0)))),a4(ARG2,ARG0)),ARG1))),a4(a4(a4(a4(ARG0,ARG0),a4(a4(a4(ARG2,ARG1),a4(ARG2,ARG0)),ARG0)),a4(ARG0,a4(ARG1,a4(a4(ARG2,ARG0),a4(ARG2,a4(ARG1,ARG0)))))),ARG2)))'
p637
sS'tree_len'
p638
I101
sS'archive_size'
p639
I14963
sS'number_of_operators'
p640
I50
sS'alg_name'
p641
S'small-LTI'
p642
sS'archive_tree_deapth'
p643
I3
sS'logbook'
p644
g12
(g13
g14
(lp645
(dp646
S'status'
p647
NsS'iteration'
p648
I0
sS'count_wrongs'
p649
I6
sS'picked_node'
p650
NsS'len_master_tree'
p651
I1
sS'total_wrongs'
p652
I6
sa(dp653
g647
S'worst'
p654
sg648
I1
sg649
I8
sg650
I0
sg651
I15
sg652
I110
sa(dp655
g647
S'better'
p656
sg648
I2
sg649
I7
sg650
I3
sg651
I25
sg652
I77
sa(dp657
g647
S'perfect'
p658
sg648
I3
sg649
I6
sg650
I19
sg651
I33
sg652
I59
sa(dp659
g647
g656
sg648
I4
sg649
I3
sg650
I10
sg651
I43
sg652
I37
sa(dp660
g647
g658
sg648
I5
sg649
I2
sg650
I38
sg651
I47
sg652
I16
sa(dp661
g647
g658
sg648
I6
sg649
I1
sg650
I9
sg651
I61
sg652
I9
sa(dp662
g647
g654
sg648
I7
sg649
I2
sg650
I9
sg651
I65
sg652
I45
sa(dp663
g647
g658
sg648
I8
sg649
I2
sg650
I43
sg651
I51
sg652
I22
sa(dp664
g647
g654
sg648
I9
sg649
I3
sg650
I4
sg651
I59
sg652
I60
sa(dp665
g647
g658
sg648
I10
sg649
I3
sg650
I12
sg651
I67
sg652
I52
sa(dp666
g647
g656
sg648
I11
sg649
I2
sg650
I50
sg651
I75
sg652
I37
sa(dp667
g647
g658
sg648
I12
sg649
I2
sg650
I74
sg651
I87
sg652
I18
sa(dp668
g647
g654
sg648
I13
sg649
I3
sg650
I4
sg651
I69
sg652
I23
sa(dp669
g647
g656
sg648
I14
sg649
I2
sg650
I68
sg651
I83
sg652
I38
sa(dp670
g647
g658
sg648
I15
sg649
I2
sg650
I72
sg651
I85
sg652
I36
sa(dp671
g647
g658
sg648
I16
sg649
I1
sg650
I69
sg651
I85
sg652
I6
sa(dp672
g647
g654
sg648
I17
sg649
I2
sg650
I66
sg651
I79
sg652
I26
sa(dp673
g647
g658
sg648
I18
sg649
I2
sg650
I67
sg651
I81
sg652
I21
sa(dp674
g647
g656
sg648
I19
sg649
I1
sg650
I68
sg651
I89
sg652
I18
sa(dp675
g647
g654
sg648
I20
sg649
I2
sg650
I80
sg651
I81
sg652
I21
sa(dp676
g647
g656
sg648
I21
sg649
I1
sg650
I80
sg651
I89
sg652
I18
sa(dp677
g647
g654
sg648
I22
sg649
I2
sg650
I67
sg651
I81
sg652
I29
sa(dp678
g647
g658
sg648
I23
sg649
I1
sg650
I67
sg651
I81
sg652
I10
sa(dp679
g647
g654
sg648
I24
sg649
I2
sg650
I67
sg651
I81
sg652
I30
sa(dp680
g647
g658
sg648
I25
sg649
I2
sg650
I67
sg651
I81
sg652
I21
sa(dp681
g647
g656
sg648
I26
sg649
I1
sg650
I67
sg651
I91
sg652
I20
sa(dp682
g647
g658
sg648
I27
sg649
I1
sg650
I80
sg651
I93
sg652
I19
sa(dp683
g647
g658
sg648
I28
sg649
I0
sg650
I85
sg651
I101
sg652
I0
satRp684
(dp685
g48
I01
sg49
(lp686
g648
ag651
ag649
ag652
ag650
ag647
asg51
Nsg52
I0
sg53
g54
(g13
tRp687
sbsS'max_archive_size'
p688
NsS'solution_found_flag'
p689
I01
sS'time_taken'
p690
F294.83336186408997
sS'benchmark_name'
p691
S'D_A4'
p692
sa(dp693
S'tree_str'
p694
S'a4(a4(a4(ARG0,a4(a4(a4(ARG1,ARG2),a4(ARG1,ARG0)),a4(a4(ARG2,ARG0),a4(a4(ARG0,ARG2),ARG2)))),a4(a4(a4(ARG0,ARG2),a4(ARG0,a4(ARG0,ARG2))),a4(ARG1,a4(a4(a4(a4(ARG0,ARG0),ARG0),a4(a4(ARG1,ARG0),ARG0)),a4(ARG0,a4(ARG1,ARG2)))))),a4(a4(ARG0,a4(a4(ARG0,a4(ARG1,ARG2)),a4(a4(ARG0,ARG0),a4(ARG1,ARG2)))),a4(a4(a4(ARG0,a4(a4(a4(a4(ARG1,a4(ARG0,ARG1)),a4(ARG0,ARG2)),ARG2),a4(a4(ARG2,a4(ARG0,ARG0)),ARG0))),a4(ARG0,ARG2)),a4(a4(ARG1,ARG2),a4(a4(a4(ARG2,ARG1),ARG1),ARG0)))))'
p695
sS'tree_len'
p696
I103
sS'archive_size'
p697
I14963
sS'number_of_operators'
p698
I51
sS'alg_name'
p699
S'small-LTI'
p700
sS'archive_tree_deapth'
p701
I3
sS'logbook'
p702
g12
(g13
g14
(lp703
(dp704
S'status'
p705
NsS'iteration'
p706
I0
sS'count_wrongs'
p707
I6
sS'picked_node'
p708
NsS'len_master_tree'
p709
I1
sS'total_wrongs'
p710
I6
sa(dp711
g705
S'worst'
p712
sg706
I1
sg707
I8
sg708
I0
sg709
I15
sg710
I94
sa(dp713
g705
S'better'
p714
sg706
I2
sg707
I6
sg708
I4
sg709
I21
sg710
I74
sa(dp715
g705
S'perfect'
p716
sg706
I3
sg707
I5
sg708
I17
sg709
I29
sg710
I60
sa(dp717
g705
g714
sg706
I4
sg707
I5
sg708
I2
sg709
I25
sg710
I65
sa(dp718
g705
g716
sg706
I5
sg707
I5
sg708
I13
sg709
I29
sg710
I60
sa(dp719
g705
g716
sg706
I6
sg707
I4
sg708
I19
sg709
I37
sg710
I40
sa(dp720
g705
g714
sg706
I7
sg707
I4
sg708
I4
sg709
I47
sg710
I61
sa(dp721
g705
g716
sg706
I8
sg707
I3
sg708
I27
sg709
I49
sg710
I24
sa(dp722
g705
g714
sg706
I9
sg707
I3
sg708
I7
sg709
I59
sg710
I54
sa(dp723
g705
g716
sg706
I10
sg707
I2
sg708
I37
sg709
I57
sg710
I12
sa(dp724
g705
g712
sg706
I11
sg707
I3
sg708
I5
sg709
I53
sg710
I66
sa(dp725
g705
g716
sg706
I12
sg707
I3
sg708
I38
sg709
I55
sg710
I62
sa(dp726
g705
g716
sg706
I13
sg707
I3
sg708
I27
sg709
I59
sg710
I59
sa(dp727
g705
g716
sg706
I14
sg707
I3
sg708
I16
sg709
I63
sg710
I55
sa(dp728
g705
g716
sg706
I15
sg707
I3
sg708
I25
sg709
I71
sg710
I47
sa(dp729
g705
g716
sg706
I16
sg707
I2
sg708
I32
sg709
I79
sg710
I16
sa(dp730
g705
g712
sg706
I17
sg707
I3
sg708
I33
sg709
I79
sg710
I30
sa(dp731
g705
g716
sg706
I18
sg707
I3
sg708
I73
sg709
I83
sg710
I27
sa(dp732
g705
g714
sg706
I19
sg707
I2
sg708
I70
sg709
I79
sg710
I16
sa(dp733
g705
g712
sg706
I20
sg707
I3
sg708
I70
sg709
I79
sg710
I30
sa(dp734
g705
g716
sg706
I21
sg707
I3
sg708
I73
sg709
I83
sg710
I27
sa(dp735
g705
g714
sg706
I22
sg707
I2
sg708
I70
sg709
I83
sg710
I22
sa(dp736
g705
g716
sg706
I23
sg707
I2
sg708
I82
sg709
I87
sg710
I21
sa(dp737
g705
g716
sg706
I24
sg707
I2
sg708
I80
sg709
I91
sg710
I19
sa(dp738
g705
g716
sg706
I25
sg707
I1
sg708
I72
sg709
I99
sg710
I5
sa(dp739
g705
g712
sg706
I26
sg707
I2
sg708
I5
sg709
I103
sg710
I44
sa(dp740
g705
g716
sg706
I27
sg707
I2
sg708
I67
sg709
I83
sg710
I18
sa(dp741
g705
g712
sg706
I28
sg707
I3
sg708
I69
sg709
I83
sg710
I63
sa(dp742
g705
g716
sg706
I29
sg707
I3
sg708
I16
sg709
I73
sg710
I36
sa(dp743
g705
g716
sg706
I30
sg707
I2
sg708
I49
sg709
I85
sg710
I18
sa(dp744
g705
g712
sg706
I31
sg707
I3
sg708
I44
sg709
I85
sg710
I83
sa(dp745
g705
g716
sg706
I32
sg707
I2
sg708
I26
sg709
I83
sg710
I21
sa(dp746
g705
g716
sg706
I33
sg707
I1
sg708
I39
sg709
I87
sg710
I9
sa(dp747
g705
g712
sg706
I34
sg707
I2
sg708
I70
sg709
I91
sg710
I43
sa(dp748
g705
g716
sg706
I35
sg707
I1
sg708
I61
sg709
I95
sg710
I13
sa(dp749
g705
g716
sg706
I36
sg707
I0
sg708
I76
sg709
I103
sg710
I0
satRp750
(dp751
g48
I01
sg49
(lp752
g706
ag709
ag707
ag710
ag708
ag705
asg51
Nsg52
I0
sg53
g54
(g13
tRp753
sbsS'max_archive_size'
p754
NsS'solution_found_flag'
p755
I01
sS'time_taken'
p756
F325.75657415390015
sS'benchmark_name'
p757
S'D_A4'
p758
sa(dp759
S'tree_str'
p760
S'a4(a4(a4(ARG0,a4(a4(a4(ARG1,ARG2),a4(ARG1,ARG0)),a4(a4(ARG2,ARG0),a4(a4(ARG0,ARG2),ARG2)))),a4(a4(a4(ARG0,ARG2),a4(ARG0,a4(ARG0,ARG2))),a4(ARG1,a4(a4(a4(a4(ARG0,ARG0),ARG0),a4(a4(ARG1,ARG0),ARG0)),a4(ARG0,a4(ARG1,ARG2)))))),a4(a4(ARG2,a4(a4(ARG2,a4(a4(a4(ARG2,ARG1),a4(ARG0,a4(ARG0,a4(ARG2,ARG0)))),a4(ARG1,ARG2))),a4(a4(ARG2,ARG0),ARG1))),a4(a4(a4(ARG0,ARG2),ARG2),a4(ARG1,ARG2))))'
p761
sS'tree_len'
p762
I85
sS'archive_size'
p763
I14963
sS'number_of_operators'
p764
I42
sS'alg_name'
p765
S'small-LTI'
p766
sS'archive_tree_deapth'
p767
I3
sS'logbook'
p768
g12
(g13
g14
(lp769
(dp770
S'status'
p771
NsS'iteration'
p772
I0
sS'count_wrongs'
p773
I6
sS'picked_node'
p774
NsS'len_master_tree'
p775
I1
sS'total_wrongs'
p776
I6
sa(dp777
g771
S'worst'
p778
sg772
I1
sg773
I8
sg774
I0
sg775
I15
sg776
I96
sa(dp779
g771
S'perfect'
p780
sg772
I2
sg773
I7
sg774
I4
sg775
I25
sg776
I66
sa(dp781
g771
S'better'
p782
sg772
I3
sg773
I4
sg774
I6
sg775
I33
sg776
I32
sa(dp783
g771
g780
sg772
I4
sg773
I3
sg774
I32
sg775
I45
sg776
I24
sa(dp784
g771
g782
sg772
I5
sg773
I3
sg774
I9
sg775
I55
sg776
I49
sa(dp785
g771
g780
sg772
I6
sg773
I2
sg774
I34
sg775
I53
sg776
I12
sa(dp786
g771
g778
sg772
I7
sg773
I3
sg774
I7
sg775
I49
sg776
I58
sa(dp787
g771
g780
sg772
I8
sg773
I3
sg774
I35
sg775
I53
sg776
I57
sa(dp788
g771
g780
sg772
I9
sg773
I2
sg774
I15
sg775
I59
sg776
I16
sa(dp789
g771
g778
sg772
I10
sg773
I3
sg774
I42
sg775
I59
sg776
I30
sa(dp790
g771
g780
sg772
I11
sg773
I3
sg774
I41
sg775
I63
sg776
I27
sa(dp791
g771
g782
sg772
I12
sg773
I2
sg774
I38
sg775
I59
sg776
I16
sa(dp792
g771
g778
sg772
I13
sg773
I3
sg774
I50
sg775
I59
sg776
I30
sa(dp793
g771
g780
sg772
I14
sg773
I3
sg774
I51
sg775
I63
sg776
I27
sa(dp794
g771
g782
sg772
I15
sg773
I2
sg774
I50
sg775
I59
sg776
I16
sa(dp795
g771
g778
sg772
I16
sg773
I3
sg774
I54
sg775
I59
sg776
I30
sa(dp796
g771
g780
sg772
I17
sg773
I3
sg774
I51
sg775
I63
sg776
I27
sa(dp797
g771
g782
sg772
I18
sg773
I2
sg774
I50
sg775
I63
sg776
I22
sa(dp798
g771
g780
sg772
I19
sg773
I2
sg774
I62
sg775
I67
sg776
I21
sa(dp799
g771
g780
sg772
I20
sg773
I2
sg774
I60
sg775
I71
sg776
I19
sa(dp800
g771
g780
sg772
I21
sg773
I1
sg774
I52
sg775
I79
sg776
I5
sa(dp801
g771
g778
sg772
I22
sg773
I2
sg774
I7
sg775
I83
sg776
I44
sa(dp802
g771
g780
sg772
I23
sg773
I2
sg774
I47
sg775
I63
sg776
I18
sa(dp803
g771
g778
sg772
I24
sg773
I3
sg774
I49
sg775
I63
sg776
I61
sa(dp804
g771
g780
sg772
I25
sg773
I3
sg774
I2
sg775
I53
sg776
I36
sa(dp805
g771
g780
sg772
I26
sg773
I2
sg774
I33
sg775
I65
sg776
I18
sa(dp806
g771
g778
sg772
I27
sg773
I3
sg774
I28
sg775
I65
sg776
I61
sa(dp807
g771
g780
sg772
I28
sg773
I3
sg774
I22
sg775
I65
sg776
I60
sa(dp808
g771
g780
sg772
I29
sg773
I2
sg774
I17
sg775
I65
sg776
I21
sa(dp809
g771
g780
sg772
I30
sg773
I1
sg774
I24
sg775
I69
sg776
I9
sa(dp810
g771
g778
sg772
I31
sg773
I2
sg774
I51
sg775
I73
sg776
I32
sa(dp811
g771
g780
sg772
I32
sg773
I1
sg774
I65
sg775
I85
sg776
I12
sa(dp812
g771
g778
sg772
I33
sg773
I2
sg774
I64
sg775
I73
sg776
I43
sa(dp813
g771
g780
sg772
I34
sg773
I1
sg774
I42
sg775
I77
sg776
I13
sa(dp814
g771
g780
sg772
I35
sg773
I0
sg774
I58
sg775
I85
sg776
I0
satRp815
(dp816
g48
I01
sg49
(lp817
g772
ag775
ag773
ag776
ag774
ag771
asg51
Nsg52
I0
sg53
g54
(g13
tRp818
sbsS'max_archive_size'
p819
NsS'solution_found_flag'
p820
I01
sS'time_taken'
p821
F313.95601892471313
sS'benchmark_name'
p822
S'D_A4'
p823
sa(dp824
S'tree_str'
p825
S'a4(a4(a4(ARG0,a4(a4(a4(ARG0,a4(a4(ARG2,ARG1),a4(ARG0,a4(a4(ARG1,ARG2),a4(ARG0,ARG0))))),ARG0),a4(a4(ARG0,ARG2),a4(a4(ARG1,ARG0),ARG0)))),ARG0),a4(a4(a4(ARG2,a4(ARG0,a4(ARG0,a4(ARG0,ARG0)))),a4(a4(ARG2,a4(a4(a4(ARG2,ARG0),a4(ARG2,ARG2)),a4(a4(ARG2,ARG2),a4(ARG1,ARG0)))),a4(a4(ARG0,a4(ARG1,ARG2)),a4(a4(ARG0,ARG0),ARG0)))),a4(a4(a4(ARG2,ARG2),a4(ARG0,a4(ARG0,a4(ARG2,ARG0)))),a4(a4(ARG1,ARG2),ARG1))))'
p826
sS'tree_len'
p827
I89
sS'archive_size'
p828
I14963
sS'number_of_operators'
p829
I44
sS'alg_name'
p830
S'small-LTI'
p831
sS'archive_tree_deapth'
p832
I3
sS'logbook'
p833
g12
(g13
g14
(lp834
(dp835
S'status'
p836
NsS'iteration'
p837
I0
sS'count_wrongs'
p838
I6
sS'picked_node'
p839
NsS'len_master_tree'
p840
I1
sS'total_wrongs'
p841
I6
sa(dp842
g836
S'worst'
p843
sg837
I1
sg838
I8
sg839
I0
sg840
I15
sg841
I94
sa(dp844
g836
S'better'
p845
sg837
I2
sg838
I6
sg839
I4
sg840
I21
sg841
I74
sa(dp846
g836
S'perfect'
p847
sg837
I3
sg838
I5
sg839
I20
sg840
I29
sg841
I60
sa(dp848
g836
g845
sg837
I4
sg838
I5
sg839
I2
sg840
I25
sg841
I65
sa(dp849
g836
g847
sg837
I5
sg838
I5
sg839
I13
sg840
I29
sg841
I60
sa(dp850
g836
g847
sg837
I6
sg838
I4
sg839
I19
sg840
I37
sg841
I40
sa(dp851
g836
g845
sg837
I7
sg838
I3
sg839
I8
sg840
I47
sg841
I37
sa(dp852
g836
g847
sg837
I8
sg838
I2
sg839
I40
sg840
I55
sg841
I16
sa(dp853
g836
g843
sg837
I9
sg838
I3
sg839
I6
sg840
I47
sg841
I46
sa(dp854
g836
g847
sg837
I10
sg838
I2
sg839
I44
sg840
I55
sg841
I23
sa(dp855
g836
g847
sg837
I11
sg838
I1
sg839
I41
sg840
I63
sg841
I9
sa(dp856
g836
g843
sg837
I12
sg838
I2
sg839
I6
sg840
I67
sg841
I45
sa(dp857
g836
g847
sg837
I13
sg838
I2
sg839
I49
sg840
I59
sg841
I22
sa(dp858
g836
g843
sg837
I14
sg838
I3
sg839
I2
sg840
I63
sg841
I86
sa(dp859
g836
g847
sg837
I15
sg838
I2
sg839
I3
sg840
I51
sg841
I26
sa(dp860
g836
g843
sg837
I16
sg838
I3
sg839
I31
sg840
I57
sg841
I56
sa(dp861
g836
g847
sg837
I17
sg838
I3
sg839
I38
sg840
I61
sg841
I44
sa(dp862
g836
g847
sg837
I18
sg838
I2
sg839
I43
sg840
I69
sg841
I29
sa(dp863
g836
g847
sg837
I19
sg838
I2
sg839
I50
sg840
I73
sg841
I28
sa(dp864
g836
g847
sg837
I20
sg838
I2
sg839
I45
sg840
I87
sg841
I18
sa(dp865
g836
g843
sg837
I21
sg838
I3
sg839
I2
sg840
I65
sg841
I23
sa(dp866
g836
g845
sg837
I22
sg838
I2
sg839
I64
sg840
I79
sg841
I21
sa(dp867
g836
g847
sg837
I23
sg838
I1
sg839
I73
sg840
I85
sg841
I6
sa(dp868
g836
g843
sg837
I24
sg838
I2
sg839
I62
sg840
I75
sg841
I26
sa(dp869
g836
g847
sg837
I25
sg838
I2
sg839
I63
sg840
I77
sg841
I21
sa(dp870
g836
g845
sg837
I26
sg838
I1
sg839
I67
sg840
I85
sg841
I18
sa(dp871
g836
g847
sg837
I27
sg838
I0
sg839
I77
sg840
I89
sg841
I0
satRp872
(dp873
g48
I01
sg49
(lp874
g837
ag840
ag838
ag841
ag839
ag836
asg51
Nsg52
I0
sg53
g54
(g13
tRp875
sbsS'max_archive_size'
p876
NsS'solution_found_flag'
p877
I01
sS'time_taken'
p878
F293.05698299407959
sS'benchmark_name'
p879
S'D_A4'
p880
sa(dp881
S'tree_str'
p882
S'a4(a4(a4(ARG0,a4(a4(a4(ARG1,ARG2),a4(ARG1,ARG0)),a4(a4(ARG2,ARG0),a4(a4(ARG0,ARG2),ARG2)))),a4(a4(a4(ARG0,a4(ARG0,a4(ARG0,ARG2))),ARG2),a4(ARG1,a4(a4(a4(a4(ARG0,ARG0),ARG0),a4(a4(ARG1,ARG0),ARG0)),a4(ARG0,a4(ARG1,ARG2)))))),a4(a4(ARG2,a4(a4(ARG2,a4(a4(a4(ARG2,ARG1),a4(ARG0,a4(ARG0,a4(ARG2,ARG0)))),a4(ARG1,ARG2))),a4(a4(ARG2,ARG0),ARG1))),a4(a4(a4(ARG0,ARG2),ARG2),a4(ARG1,ARG2))))'
p883
sS'tree_len'
p884
I85
sS'archive_size'
p885
I14963
sS'number_of_operators'
p886
I42
sS'alg_name'
p887
S'small-LTI'
p888
sS'archive_tree_deapth'
p889
I3
sS'logbook'
p890
g12
(g13
g14
(lp891
(dp892
S'status'
p893
NsS'iteration'
p894
I0
sS'count_wrongs'
p895
I6
sS'picked_node'
p896
NsS'len_master_tree'
p897
I1
sS'total_wrongs'
p898
I6
sa(dp899
g893
S'worst'
p900
sg894
I1
sg895
I8
sg896
I0
sg897
I15
sg898
I96
sa(dp901
g893
S'perfect'
p902
sg894
I2
sg895
I7
sg896
I4
sg897
I25
sg898
I66
sa(dp903
g893
S'better'
p904
sg894
I3
sg895
I4
sg896
I6
sg897
I33
sg898
I32
sa(dp905
g893
g902
sg894
I4
sg895
I3
sg896
I32
sg897
I45
sg898
I24
sa(dp906
g893
g904
sg894
I5
sg895
I3
sg896
I9
sg897
I55
sg898
I49
sa(dp907
g893
g902
sg894
I6
sg895
I2
sg896
I32
sg897
I53
sg898
I12
sa(dp908
g893
g900
sg894
I7
sg895
I3
sg896
I7
sg897
I49
sg898
I58
sa(dp909
g893
g902
sg894
I8
sg895
I3
sg896
I33
sg897
I53
sg898
I57
sa(dp910
g893
g902
sg894
I9
sg895
I2
sg896
I15
sg897
I59
sg898
I16
sa(dp911
g893
g900
sg894
I10
sg895
I3
sg896
I42
sg897
I59
sg898
I30
sa(dp912
g893
g902
sg894
I11
sg895
I3
sg896
I39
sg897
I63
sg898
I27
sa(dp913
g893
g904
sg894
I12
sg895
I2
sg896
I38
sg897
I59
sg898
I16
sa(dp914
g893
g900
sg894
I13
sg895
I3
sg896
I54
sg897
I59
sg898
I30
sa(dp915
g893
g902
sg894
I14
sg895
I3
sg896
I51
sg897
I63
sg898
I27
sa(dp916
g893
g904
sg894
I15
sg895
I2
sg896
I50
sg897
I59
sg898
I16
sa(dp917
g893
g900
sg894
I16
sg895
I3
sg896
I50
sg897
I59
sg898
I30
sa(dp918
g893
g902
sg894
I17
sg895
I3
sg896
I53
sg897
I63
sg898
I27
sa(dp919
g893
g904
sg894
I18
sg895
I2
sg896
I50
sg897
I63
sg898
I22
sa(dp920
g893
g902
sg894
I19
sg895
I2
sg896
I62
sg897
I67
sg898
I21
sa(dp921
g893
g902
sg894
I20
sg895
I2
sg896
I60
sg897
I71
sg898
I19
sa(dp922
g893
g902
sg894
I21
sg895
I1
sg896
I52
sg897
I79
sg898
I5
sa(dp923
g893
g900
sg894
I22
sg895
I2
sg896
I7
sg897
I83
sg898
I44
sa(dp924
g893
g902
sg894
I23
sg895
I2
sg896
I47
sg897
I63
sg898
I18
sa(dp925
g893
g900
sg894
I24
sg895
I3
sg896
I49
sg897
I63
sg898
I61
sa(dp926
g893
g902
sg894
I25
sg895
I3
sg896
I2
sg897
I53
sg898
I36
sa(dp927
g893
g902
sg894
I26
sg895
I2
sg896
I33
sg897
I65
sg898
I18
sa(dp928
g893
g900
sg894
I27
sg895
I3
sg896
I28
sg897
I65
sg898
I61
sa(dp929
g893
g902
sg894
I28
sg895
I3
sg896
I22
sg897
I65
sg898
I60
sa(dp930
g893
g902
sg894
I29
sg895
I2
sg896
I15
sg897
I65
sg898
I21
sa(dp931
g893
g902
sg894
I30
sg895
I1
sg896
I25
sg897
I69
sg898
I9
sa(dp932
g893
g900
sg894
I31
sg895
I2
sg896
I49
sg897
I73
sg898
I40
sa(dp933
g893
g902
sg894
I32
sg895
I1
sg896
I40
sg897
I77
sg898
I13
sa(dp934
g893
g902
sg894
I33
sg895
I0
sg896
I58
sg897
I85
sg898
I0
satRp935
(dp936
g48
I01
sg49
(lp937
g894
ag897
ag895
ag898
ag896
ag893
asg51
Nsg52
I0
sg53
g54
(g13
tRp938
sbsS'max_archive_size'
p939
NsS'solution_found_flag'
p940
I01
sS'time_taken'
p941
F310.52033185958862
sS'benchmark_name'
p942
S'D_A4'
p943
sa(dp944
S'tree_str'
p945
S'a4(a4(a4(ARG0,a4(a4(a4(ARG1,ARG2),a4(ARG1,ARG0)),a4(a4(ARG2,ARG0),a4(a4(ARG0,ARG2),ARG2)))),a4(a4(a4(a4(a4(ARG0,ARG2),ARG1),ARG1),a4(ARG0,a4(ARG0,ARG2))),a4(ARG1,a4(a4(a4(a4(ARG0,ARG0),ARG0),a4(a4(ARG1,ARG0),ARG0)),a4(ARG0,a4(ARG1,ARG2)))))),a4(a4(ARG2,a4(a4(ARG2,a4(a4(a4(ARG2,ARG1),a4(ARG0,a4(ARG0,a4(ARG2,ARG0)))),a4(ARG1,ARG2))),a4(a4(ARG2,ARG0),ARG1))),a4(a4(a4(ARG0,ARG2),ARG2),a4(ARG1,ARG2))))'
p946
sS'tree_len'
p947
I89
sS'archive_size'
p948
I14963
sS'number_of_operators'
p949
I44
sS'alg_name'
p950
S'small-LTI'
p951
sS'archive_tree_deapth'
p952
I3
sS'logbook'
p953
g12
(g13
g14
(lp954
(dp955
S'status'
p956
NsS'iteration'
p957
I0
sS'count_wrongs'
p958
I6
sS'picked_node'
p959
NsS'len_master_tree'
p960
I1
sS'total_wrongs'
p961
I6
sa(dp962
g956
S'worst'
p963
sg957
I1
sg958
I8
sg959
I0
sg960
I15
sg961
I96
sa(dp964
g956
S'perfect'
p965
sg957
I2
sg958
I7
sg959
I4
sg960
I25
sg961
I66
sa(dp966
g956
S'better'
p967
sg957
I3
sg958
I4
sg959
I6
sg960
I33
sg961
I32
sa(dp968
g956
g965
sg957
I4
sg958
I3
sg959
I32
sg960
I45
sg961
I24
sa(dp969
g956
g967
sg957
I5
sg958
I3
sg959
I9
sg960
I55
sg961
I49
sa(dp970
g956
g965
sg957
I6
sg958
I2
sg959
I32
sg960
I53
sg961
I12
sa(dp971
g956
g963
sg957
I7
sg958
I3
sg959
I7
sg960
I49
sg961
I58
sa(dp972
g956
g965
sg957
I8
sg958
I3
sg959
I33
sg960
I53
sg961
I57
sa(dp973
g956
g965
sg957
I9
sg958
I2
sg959
I15
sg960
I59
sg961
I16
sa(dp974
g956
g963
sg957
I10
sg958
I3
sg959
I38
sg960
I59
sg961
I30
sa(dp975
g956
g965
sg957
I11
sg958
I3
sg959
I51
sg960
I63
sg961
I27
sa(dp976
g956
g967
sg957
I12
sg958
I2
sg959
I50
sg960
I59
sg961
I16
sa(dp977
g956
g963
sg957
I13
sg958
I3
sg959
I50
sg960
I59
sg961
I30
sa(dp978
g956
g965
sg957
I14
sg958
I3
sg959
I53
sg960
I63
sg961
I27
sa(dp979
g956
g967
sg957
I15
sg958
I2
sg959
I50
sg960
I63
sg961
I22
sa(dp980
g956
g965
sg957
I16
sg958
I2
sg959
I62
sg960
I67
sg961
I21
sa(dp981
g956
g965
sg957
I17
sg958
I2
sg959
I60
sg960
I71
sg961
I19
sa(dp982
g956
g965
sg957
I18
sg958
I1
sg959
I52
sg960
I79
sg961
I5
sa(dp983
g956
g963
sg957
I19
sg958
I2
sg959
I7
sg960
I83
sg961
I44
sa(dp984
g956
g965
sg957
I20
sg958
I2
sg959
I47
sg960
I63
sg961
I18
sa(dp985
g956
g963
sg957
I21
sg958
I3
sg959
I47
sg960
I63
sg961
I61
sa(dp986
g956
g965
sg957
I22
sg958
I3
sg959
I2
sg960
I53
sg961
I36
sa(dp987
g956
g965
sg957
I23
sg958
I2
sg959
I31
sg960
I65
sg961
I18
sa(dp988
g956
g963
sg957
I24
sg958
I3
sg959
I36
sg960
I65
sg961
I61
sa(dp989
g956
g965
sg957
I25
sg958
I3
sg959
I22
sg960
I65
sg961
I60
sa(dp990
g956
g965
sg957
I26
sg958
I2
sg959
I15
sg960
I65
sg961
I21
sa(dp991
g956
g965
sg957
I27
sg958
I1
sg959
I24
sg960
I69
sg961
I9
sa(dp992
g956
g963
sg957
I28
sg958
I2
sg959
I51
sg960
I73
sg961
I32
sa(dp993
g956
g965
sg957
I29
sg958
I1
sg959
I65
sg960
I85
sg961
I12
sa(dp994
g956
g963
sg957
I30
sg958
I2
sg959
I64
sg960
I73
sg961
I43
sa(dp995
g956
g965
sg957
I31
sg958
I2
sg959
I24
sg960
I77
sg961
I40
sa(dp996
g956
g965
sg957
I32
sg958
I1
sg959
I39
sg960
I81
sg961
I13
sa(dp997
g956
g965
sg957
I33
sg958
I0
sg959
I55
sg960
I89
sg961
I0
satRp998
(dp999
g48
I01
sg49
(lp1000
g957
ag960
ag958
ag961
ag959
ag956
asg51
Nsg52
I0
sg53
g54
(g13
tRp1001
sbsS'max_archive_size'
p1002
NsS'solution_found_flag'
p1003
I01
sS'time_taken'
p1004
F315.37329816818237
sS'benchmark_name'
p1005
S'D_A4'
p1006
sa(dp1007
S'tree_str'
p1008
S'a4(a4(a4(ARG0,a4(a4(a4(ARG0,a4(a4(a4(ARG2,ARG1),a4(ARG2,ARG0)),ARG1)),a4(a4(ARG0,ARG1),a4(ARG0,a4(ARG1,ARG0)))),a4(a4(ARG0,ARG2),ARG0))),ARG0),a4(a4(ARG0,a4(a4(ARG2,a4(ARG2,ARG1)),a4(a4(ARG0,ARG0),a4(ARG0,ARG0)))),a4(ARG0,a4(a4(a4(a4(ARG0,ARG1),a4(a4(ARG2,ARG2),ARG1)),ARG2),a4(ARG1,a4(ARG0,ARG2))))))'
p1009
sS'tree_len'
p1010
I67
sS'archive_size'
p1011
I14963
sS'number_of_operators'
p1012
I33
sS'alg_name'
p1013
S'small-LTI'
p1014
sS'archive_tree_deapth'
p1015
I3
sS'logbook'
p1016
g12
(g13
g14
(lp1017
(dp1018
S'status'
p1019
NsS'iteration'
p1020
I0
sS'count_wrongs'
p1021
I6
sS'picked_node'
p1022
NsS'len_master_tree'
p1023
I1
sS'total_wrongs'
p1024
I6
sa(dp1025
g1019
S'worst'
p1026
sg1020
I1
sg1021
I8
sg1022
I0
sg1023
I15
sg1024
I110
sa(dp1027
g1019
S'better'
p1028
sg1020
I2
sg1021
I8
sg1022
I4
sg1023
I25
sg1024
I98
sa(dp1029
g1019
S'perfect'
p1030
sg1020
I3
sg1021
I7
sg1022
I22
sg1023
I31
sg1024
I78
sa(dp1031
g1019
g1030
sg1020
I4
sg1021
I4
sg1022
I6
sg1023
I43
sg1024
I31
sa(dp1032
g1019
g1028
sg1020
I5
sg1021
I2
sg1022
I9
sg1023
I57
sg1024
I29
sa(dp1033
g1019
g1030
sg1020
I6
sg1021
I2
sg1022
I44
sg1023
I61
sg1024
I26
sa(dp1034
g1019
g1030
sg1020
I7
sg1021
I2
sg1022
I43
sg1023
I63
sg1024
I12
sa(dp1035
g1019
g1026
sg1020
I8
sg1021
I3
sg1022
I8
sg1023
I67
sg1024
I48
sa(dp1036
g1019
g1030
sg1020
I9
sg1021
I3
sg1022
I50
sg1023
I63
sg1024
I27
sa(dp1037
g1019
g1028
sg1020
I10
sg1021
I2
sg1022
I59
sg1023
I71
sg1024
I43
sa(dp1038
g1019
g1030
sg1020
I11
sg1021
I2
sg1022
I70
sg1023
I75
sg1024
I42
sa(dp1039
g1019
g1030
sg1020
I12
sg1021
I2
sg1022
I45
sg1023
I79
sg1024
I41
sa(dp1040
g1019
g1030
sg1020
I13
sg1021
I1
sg1022
I65
sg1023
I83
sg1024
I5
sa(dp1041
g1019
g1026
sg1020
I14
sg1021
I2
sg1022
I8
sg1023
I87
sg1024
I46
sa(dp1042
g1019
g1030
sg1020
I15
sg1021
I2
sg1022
I38
sg1023
I77
sg1024
I18
sa(dp1043
g1019
g1026
sg1020
I16
sg1021
I3
sg1022
I6
sg1023
I43
sg1024
I20
sa(dp1044
g1019
g1030
sg1020
I17
sg1021
I1
sg1022
I42
sg1023
I57
sg1024
I6
sa(dp1045
g1019
g1026
sg1020
I18
sg1021
I2
sg1022
I40
sg1023
I47
sg1024
I22
sa(dp1046
g1019
g1030
sg1020
I19
sg1021
I2
sg1022
I41
sg1023
I51
sg1024
I21
sa(dp1047
g1019
g1028
sg1020
I20
sg1021
I1
sg1022
I42
sg1023
I59
sg1024
I31
sa(dp1048
g1019
g1030
sg1020
I21
sg1021
I0
sg1022
I44
sg1023
I67
sg1024
I0
satRp1049
(dp1050
g48
I01
sg49
(lp1051
g1020
ag1023
ag1021
ag1024
ag1022
ag1019
asg51
Nsg52
I0
sg53
g54
(g13
tRp1052
sbsS'max_archive_size'
p1053
NsS'solution_found_flag'
p1054
I01
sS'time_taken'
p1055
F273.75614285469055
sS'benchmark_name'
p1056
S'D_A4'
p1057
sa(dp1058
S'tree_str'
p1059
S'a4(a4(a4(ARG0,a4(a4(a4(ARG1,ARG2),a4(ARG1,ARG0)),a4(a4(ARG2,ARG0),a4(a4(ARG0,ARG2),ARG2)))),a4(a4(a4(ARG0,ARG2),a4(ARG0,a4(ARG0,ARG2))),a4(ARG1,a4(a4(a4(ARG1,ARG2),a4(ARG1,a4(ARG0,a4(ARG1,ARG2)))),a4(ARG0,a4(ARG1,ARG2)))))),a4(a4(ARG2,a4(a4(ARG2,a4(a4(a4(ARG2,ARG1),a4(ARG0,a4(ARG0,a4(ARG2,ARG0)))),a4(ARG1,ARG0))),a4(a4(ARG2,ARG0),ARG1))),a4(a4(a4(ARG0,ARG2),ARG2),a4(ARG1,ARG2))))'
p1060
sS'tree_len'
p1061
I85
sS'archive_size'
p1062
I14963
sS'number_of_operators'
p1063
I42
sS'alg_name'
p1064
S'small-LTI'
p1065
sS'archive_tree_deapth'
p1066
I3
sS'logbook'
p1067
g12
(g13
g14
(lp1068
(dp1069
S'status'
p1070
NsS'iteration'
p1071
I0
sS'count_wrongs'
p1072
I6
sS'picked_node'
p1073
NsS'len_master_tree'
p1074
I1
sS'total_wrongs'
p1075
I6
sa(dp1076
g1070
S'worst'
p1077
sg1071
I1
sg1072
I8
sg1073
I0
sg1074
I15
sg1075
I96
sa(dp1078
g1070
S'perfect'
p1079
sg1071
I2
sg1072
I7
sg1073
I4
sg1074
I25
sg1075
I66
sa(dp1080
g1070
S'better'
p1081
sg1071
I3
sg1072
I4
sg1073
I6
sg1074
I33
sg1075
I32
sa(dp1082
g1070
g1079
sg1071
I4
sg1072
I3
sg1073
I32
sg1074
I45
sg1075
I24
sa(dp1083
g1070
g1081
sg1071
I5
sg1072
I3
sg1073
I9
sg1074
I55
sg1075
I49
sa(dp1084
g1070
g1079
sg1071
I6
sg1072
I2
sg1073
I32
sg1074
I53
sg1075
I12
sa(dp1085
g1070
g1077
sg1071
I7
sg1072
I3
sg1073
I7
sg1074
I49
sg1075
I58
sa(dp1086
g1070
g1079
sg1071
I8
sg1072
I3
sg1073
I33
sg1074
I53
sg1075
I57
sa(dp1087
g1070
g1079
sg1071
I9
sg1072
I2
sg1073
I15
sg1074
I59
sg1075
I16
sa(dp1088
g1070
g1077
sg1071
I10
sg1072
I3
sg1073
I38
sg1074
I59
sg1075
I30
sa(dp1089
g1070
g1079
sg1071
I11
sg1072
I3
sg1073
I51
sg1074
I63
sg1075
I27
sa(dp1090
g1070
g1081
sg1071
I12
sg1072
I2
sg1073
I50
sg1074
I59
sg1075
I16
sa(dp1091
g1070
g1077
sg1071
I13
sg1072
I3
sg1073
I54
sg1074
I59
sg1075
I30
sa(dp1092
g1070
g1079
sg1071
I14
sg1072
I3
sg1073
I53
sg1074
I63
sg1075
I27
sa(dp1093
g1070
g1081
sg1071
I15
sg1072
I2
sg1073
I50
sg1074
I63
sg1075
I22
sa(dp1094
g1070
g1079
sg1071
I16
sg1072
I2
sg1073
I62
sg1074
I67
sg1075
I21
sa(dp1095
g1070
g1079
sg1071
I17
sg1072
I2
sg1073
I60
sg1074
I71
sg1075
I19
sa(dp1096
g1070
g1079
sg1071
I18
sg1072
I1
sg1073
I52
sg1074
I79
sg1075
I5
sa(dp1097
g1070
g1077
sg1071
I19
sg1072
I2
sg1073
I7
sg1074
I83
sg1075
I44
sa(dp1098
g1070
g1079
sg1071
I20
sg1072
I2
sg1073
I47
sg1074
I63
sg1075
I18
sa(dp1099
g1070
g1077
sg1071
I21
sg1072
I3
sg1073
I49
sg1074
I63
sg1075
I61
sa(dp1100
g1070
g1079
sg1071
I22
sg1072
I3
sg1073
I2
sg1074
I53
sg1075
I36
sa(dp1101
g1070
g1079
sg1071
I23
sg1072
I2
sg1073
I33
sg1074
I65
sg1075
I18
sa(dp1102
g1070
g1077
sg1071
I24
sg1072
I3
sg1073
I28
sg1074
I65
sg1075
I61
sa(dp1103
g1070
g1079
sg1071
I25
sg1072
I2
sg1073
I15
sg1074
I65
sg1075
I21
sa(dp1104
g1070
g1079
sg1071
I26
sg1072
I1
sg1073
I24
sg1074
I69
sg1075
I9
sa(dp1105
g1070
g1077
sg1071
I27
sg1072
I2
sg1073
I48
sg1074
I73
sg1075
I43
sa(dp1106
g1070
g1079
sg1071
I28
sg1072
I1
sg1073
I40
sg1074
I77
sg1075
I13
sa(dp1107
g1070
g1079
sg1071
I29
sg1072
I0
sg1073
I62
sg1074
I85
sg1075
I0
satRp1108
(dp1109
g48
I01
sg49
(lp1110
g1071
ag1074
ag1072
ag1075
ag1073
ag1070
asg51
Nsg52
I0
sg53
g54
(g13
tRp1111
sbsS'max_archive_size'
p1112
NsS'solution_found_flag'
p1113
I01
sS'time_taken'
p1114
F349.76528215408325
sS'benchmark_name'
p1115
S'D_A4'
p1116
sa(dp1117
S'tree_str'
p1118
S'a4(a4(a4(ARG0,a4(a4(a4(ARG1,ARG2),a4(ARG1,ARG0)),a4(a4(ARG2,ARG0),a4(a4(ARG0,ARG2),ARG2)))),a4(a4(a4(ARG0,ARG2),a4(ARG0,a4(ARG0,ARG2))),a4(ARG1,a4(a4(a4(ARG1,ARG2),a4(ARG1,a4(ARG0,a4(ARG1,ARG2)))),a4(ARG0,a4(ARG1,ARG2)))))),a4(a4(ARG2,a4(a4(ARG2,a4(a4(a4(ARG2,ARG1),a4(ARG0,a4(ARG0,a4(ARG2,ARG0)))),a4(ARG1,ARG2))),a4(a4(ARG2,ARG0),ARG1))),a4(a4(a4(ARG0,ARG2),ARG2),a4(ARG1,ARG2))))'
p1119
sS'tree_len'
p1120
I85
sS'archive_size'
p1121
I14963
sS'number_of_operators'
p1122
I42
sS'alg_name'
p1123
S'small-LTI'
p1124
sS'archive_tree_deapth'
p1125
I3
sS'logbook'
p1126
g12
(g13
g14
(lp1127
(dp1128
S'status'
p1129
NsS'iteration'
p1130
I0
sS'count_wrongs'
p1131
I6
sS'picked_node'
p1132
NsS'len_master_tree'
p1133
I1
sS'total_wrongs'
p1134
I6
sa(dp1135
g1129
S'worst'
p1136
sg1130
I1
sg1131
I8
sg1132
I0
sg1133
I15
sg1134
I96
sa(dp1137
g1129
S'perfect'
p1138
sg1130
I2
sg1131
I7
sg1132
I4
sg1133
I25
sg1134
I66
sa(dp1139
g1129
S'better'
p1140
sg1130
I3
sg1131
I4
sg1132
I6
sg1133
I33
sg1134
I32
sa(dp1141
g1129
g1138
sg1130
I4
sg1131
I3
sg1132
I32
sg1133
I45
sg1134
I24
sa(dp1142
g1129
g1140
sg1130
I5
sg1131
I3
sg1132
I9
sg1133
I55
sg1134
I49
sa(dp1143
g1129
g1138
sg1130
I6
sg1131
I2
sg1132
I32
sg1133
I53
sg1134
I12
sa(dp1144
g1129
g1136
sg1130
I7
sg1131
I3
sg1132
I7
sg1133
I49
sg1134
I58
sa(dp1145
g1129
g1138
sg1130
I8
sg1131
I3
sg1132
I33
sg1133
I53
sg1134
I57
sa(dp1146
g1129
g1138
sg1130
I9
sg1131
I2
sg1132
I13
sg1133
I59
sg1134
I16
sa(dp1147
g1129
g1136
sg1130
I10
sg1131
I3
sg1132
I40
sg1133
I59
sg1134
I30
sa(dp1148
g1129
g1138
sg1130
I11
sg1131
I3
sg1132
I37
sg1133
I63
sg1134
I27
sa(dp1149
g1129
g1140
sg1130
I12
sg1131
I2
sg1132
I36
sg1133
I59
sg1134
I16
sa(dp1150
g1129
g1136
sg1130
I13
sg1131
I3
sg1132
I54
sg1133
I59
sg1134
I30
sa(dp1151
g1129
g1138
sg1130
I14
sg1131
I3
sg1132
I51
sg1133
I63
sg1134
I27
sa(dp1152
g1129
g1140
sg1130
I15
sg1131
I2
sg1132
I50
sg1133
I59
sg1134
I16
sa(dp1153
g1129
g1136
sg1130
I16
sg1131
I3
sg1132
I54
sg1133
I59
sg1134
I30
sa(dp1154
g1129
g1138
sg1130
I17
sg1131
I3
sg1132
I53
sg1133
I63
sg1134
I27
sa(dp1155
g1129
g1140
sg1130
I18
sg1131
I2
sg1132
I50
sg1133
I63
sg1134
I22
sa(dp1156
g1129
g1138
sg1130
I19
sg1131
I2
sg1132
I62
sg1133
I67
sg1134
I21
sa(dp1157
g1129
g1138
sg1130
I20
sg1131
I2
sg1132
I60
sg1133
I71
sg1134
I19
sa(dp1158
g1129
g1138
sg1130
I21
sg1131
I1
sg1132
I52
sg1133
I79
sg1134
I5
sa(dp1159
g1129
g1136
sg1130
I22
sg1131
I2
sg1132
I7
sg1133
I83
sg1134
I44
sa(dp1160
g1129
g1138
sg1130
I23
sg1131
I2
sg1132
I47
sg1133
I63
sg1134
I18
sa(dp1161
g1129
g1136
sg1130
I24
sg1131
I3
sg1132
I49
sg1133
I63
sg1134
I61
sa(dp1162
g1129
g1138
sg1130
I25
sg1131
I3
sg1132
I2
sg1133
I53
sg1134
I36
sa(dp1163
g1129
g1138
sg1130
I26
sg1131
I2
sg1132
I33
sg1133
I65
sg1134
I18
sa(dp1164
g1129
g1136
sg1130
I27
sg1131
I3
sg1132
I28
sg1133
I65
sg1134
I61
sa(dp1165
g1129
g1138
sg1130
I28
sg1131
I3
sg1132
I22
sg1133
I65
sg1134
I60
sa(dp1166
g1129
g1138
sg1130
I29
sg1131
I2
sg1132
I15
sg1133
I65
sg1134
I21
sa(dp1167
g1129
g1138
sg1130
I30
sg1131
I1
sg1132
I24
sg1133
I69
sg1134
I9
sa(dp1168
g1129
g1136
sg1130
I31
sg1131
I2
sg1132
I51
sg1133
I73
sg1134
I43
sa(dp1169
g1129
g1138
sg1130
I32
sg1131
I1
sg1132
I43
sg1133
I77
sg1134
I13
sa(dp1170
g1129
g1138
sg1130
I33
sg1131
I0
sg1132
I62
sg1133
I85
sg1134
I0
satRp1171
(dp1172
g48
I01
sg49
(lp1173
g1130
ag1133
ag1131
ag1134
ag1132
ag1129
asg51
Nsg52
I0
sg53
g54
(g13
tRp1174
sbsS'max_archive_size'
p1175
NsS'solution_found_flag'
p1176
I01
sS'time_taken'
p1177
F324.87052583694458
sS'benchmark_name'
p1178
S'D_A4'
p1179
sa.