(lp1
(dp2
S'tree_str'
p3
S'a5(a5(a5(a5(a5(ARG1,a5(ARG0,ARG2)),a5(ARG2,a5(a5(a5(ARG2,a5(ARG0,ARG0)),a5(ARG1,ARG2)),ARG0))),ARG2),a5(a5(a5(a5(ARG1,ARG0),a5(ARG1,ARG2)),a5(ARG2,a5(ARG1,ARG2))),ARG2)),a5(a5(a5(a5(a5(ARG1,a5(ARG2,a5(ARG1,ARG2))),ARG0),ARG0),a5(ARG2,a5(ARG2,ARG0))),a5(ARG2,ARG0)))'
p4
sS'tree_len'
p5
I59
sS'archive_size'
p6
I20591
sS'number_of_operators'
p7
I29
sS'alg_name'
p8
S'small-LTI'
p9
sS'archive_tree_deapth'
p10
I3
sS'logbook'
p11
ccopy_reg
_reconstructor
p12
(ctreeimprove.utilities
Logbook
p13
c__builtin__
list
p14
(lp15
(dp16
S'status'
p17
NsS'iteration'
p18
I0
sS'count_wrongs'
p19
I6
sS'picked_node'
p20
NsS'len_master_tree'
p21
I1
sS'total_wrongs'
p22
I6
sa(dp23
g17
S'worst'
p24
sg18
I1
sg19
I7
sg20
I0
sg21
I15
sg22
I77
sa(dp25
g17
S'better'
p26
sg18
I2
sg19
I5
sg20
I13
sg21
I25
sg22
I52
sa(dp27
g17
S'perfect'
p28
sg18
I3
sg19
I5
sg20
I18
sg21
I33
sg22
I35
sa(dp29
g17
g26
sg18
I4
sg19
I4
sg20
I5
sg21
I41
sg22
I32
sa(dp30
g17
g28
sg18
I5
sg19
I3
sg20
I39
sg21
I47
sg22
I15
sa(dp31
g17
g26
sg18
I6
sg19
I1
sg20
I7
sg21
I59
sg22
I50
sa(dp32
g17
g28
sg18
I7
sg19
I0
sg20
I20
sg21
I59
sg22
I0
satRp33
(dp34
S'log_header'
p35
I01
sS'header'
p36
(lp37
g18
ag21
ag19
ag22
ag20
ag17
asS'columns_len'
p38
NsS'buffindex'
p39
I0
sS'chapters'
p40
ccollections
defaultdict
p41
(g13
tRp42
sbsS'max_archive_size'
p43
NsS'solution_found_flag'
p44
I01
sS'time_taken'
p45
F352.57608103752136
sS'benchmark_name'
p46
S'D_A5'
p47
sa(dp48
S'tree_str'
p49
S'a5(a5(a5(ARG2,a5(a5(a5(ARG0,ARG1),ARG1),a5(ARG0,ARG0))),a5(a5(a5(ARG1,a5(ARG0,ARG0)),a5(ARG1,a5(a5(ARG1,a5(ARG2,a5(ARG0,ARG0))),ARG2))),ARG0)),a5(a5(ARG2,ARG0),a5(a5(a5(a5(ARG1,ARG2),a5(ARG2,ARG2)),a5(a5(ARG0,ARG2),a5(ARG1,ARG2))),ARG2)))'
p50
sS'tree_len'
p51
I53
sS'archive_size'
p52
I20591
sS'number_of_operators'
p53
I26
sS'alg_name'
p54
S'small-LTI'
p55
sS'archive_tree_deapth'
p56
I3
sS'logbook'
p57
g12
(g13
g14
(lp58
(dp59
S'status'
p60
NsS'iteration'
p61
I0
sS'count_wrongs'
p62
I6
sS'picked_node'
p63
NsS'len_master_tree'
p64
I1
sS'total_wrongs'
p65
I6
sa(dp66
g60
S'worst'
p67
sg61
I1
sg62
I7
sg63
I0
sg64
I15
sg65
I74
sa(dp68
g60
S'better'
p69
sg61
I2
sg62
I4
sg63
I10
sg64
I25
sg65
I52
sa(dp70
g60
S'perfect'
p71
sg61
I3
sg62
I3
sg63
I18
sg64
I31
sg65
I32
sa(dp72
g60
g71
sg61
I4
sg62
I1
sg63
I13
sg64
I39
sg65
I8
sa(dp73
g60
g71
sg61
I5
sg62
I0
sg63
I3
sg64
I53
sg65
I0
satRp74
(dp75
g35
I01
sg36
(lp76
g61
ag64
ag62
ag65
ag63
ag60
asg38
Nsg39
I0
sg40
g41
(g13
tRp77
sbsS'max_archive_size'
p78
NsS'solution_found_flag'
p79
I01
sS'time_taken'
p80
F348.63021683692932
sS'benchmark_name'
p81
S'D_A5'
p82
sa(dp83
S'tree_str'
p84
S'a5(a5(a5(a5(a5(ARG1,a5(ARG0,a5(a5(ARG2,a5(ARG0,ARG1)),a5(ARG1,ARG1)))),a5(ARG2,a5(ARG0,ARG0))),ARG2),a5(a5(a5(a5(ARG1,ARG0),a5(ARG1,ARG2)),a5(ARG2,a5(ARG1,ARG2))),ARG2)),a5(a5(a5(ARG1,a5(a5(ARG0,ARG0),a5(a5(a5(ARG1,ARG0),a5(a5(ARG2,ARG0),ARG2)),ARG0))),ARG0),a5(ARG2,ARG0)))'
p85
sS'tree_len'
p86
I61
sS'archive_size'
p87
I20591
sS'number_of_operators'
p88
I30
sS'alg_name'
p89
S'small-LTI'
p90
sS'archive_tree_deapth'
p91
I3
sS'logbook'
p92
g12
(g13
g14
(lp93
(dp94
S'status'
p95
NsS'iteration'
p96
I0
sS'count_wrongs'
p97
I6
sS'picked_node'
p98
NsS'len_master_tree'
p99
I1
sS'total_wrongs'
p100
I6
sa(dp101
g95
S'worst'
p102
sg96
I1
sg97
I7
sg98
I0
sg99
I15
sg100
I77
sa(dp103
g95
S'better'
p104
sg96
I2
sg97
I5
sg98
I13
sg99
I25
sg100
I52
sa(dp105
g95
S'perfect'
p106
sg96
I3
sg97
I5
sg98
I24
sg99
I33
sg100
I39
sa(dp107
g95
g104
sg96
I4
sg97
I4
sg98
I6
sg99
I41
sg100
I39
sa(dp108
g95
g106
sg96
I5
sg97
I3
sg98
I36
sg99
I49
sg100
I19
sa(dp109
g95
g106
sg96
I6
sg97
I0
sg98
I9
sg99
I61
sg100
I0
satRp110
(dp111
g35
I01
sg36
(lp112
g96
ag99
ag97
ag100
ag98
ag95
asg38
Nsg39
I0
sg40
g41
(g13
tRp113
sbsS'max_archive_size'
p114
NsS'solution_found_flag'
p115
I01
sS'time_taken'
p116
F285.52138304710388
sS'benchmark_name'
p117
S'D_A5'
p118
sa(dp119
S'tree_str'
p120
S'a5(a5(a5(ARG2,a5(a5(ARG1,ARG1),a5(a5(ARG1,ARG2),a5(ARG1,ARG1)))),a5(a5(a5(a5(ARG0,a5(a5(ARG0,ARG1),ARG0)),a5(a5(a5(ARG1,ARG0),a5(ARG2,ARG2)),ARG0)),a5(ARG1,a5(ARG0,ARG2))),ARG0)),a5(a5(ARG2,ARG0),a5(a5(a5(a5(ARG1,ARG2),a5(ARG2,ARG2)),a5(a5(ARG0,ARG2),a5(ARG1,ARG2))),ARG2)))'
p121
sS'tree_len'
p122
I61
sS'archive_size'
p123
I20591
sS'number_of_operators'
p124
I30
sS'alg_name'
p125
S'small-LTI'
p126
sS'archive_tree_deapth'
p127
I3
sS'logbook'
p128
g12
(g13
g14
(lp129
(dp130
S'status'
p131
NsS'iteration'
p132
I0
sS'count_wrongs'
p133
I6
sS'picked_node'
p134
NsS'len_master_tree'
p135
I1
sS'total_wrongs'
p136
I6
sa(dp137
g131
S'worst'
p138
sg132
I1
sg133
I7
sg134
I0
sg135
I15
sg136
I74
sa(dp139
g131
S'better'
p140
sg132
I2
sg133
I4
sg134
I10
sg135
I25
sg136
I52
sa(dp141
g131
S'perfect'
p142
sg132
I3
sg133
I4
sg134
I21
sg135
I31
sg136
I51
sa(dp143
g131
g142
sg132
I4
sg133
I3
sg134
I21
sg135
I37
sg136
I32
sa(dp144
g131
g142
sg132
I5
sg133
I1
sg134
I13
sg135
I47
sg136
I8
sa(dp145
g131
g142
sg132
I6
sg133
I0
sg134
I3
sg135
I61
sg136
I0
satRp146
(dp147
g35
I01
sg36
(lp148
g132
ag135
ag133
ag136
ag134
ag131
asg38
Nsg39
I0
sg40
g41
(g13
tRp149
sbsS'max_archive_size'
p150
NsS'solution_found_flag'
p151
I01
sS'time_taken'
p152
F284.9083240032196
sS'benchmark_name'
p153
S'D_A5'
p154
sa(dp155
S'tree_str'
p156
S'a5(a5(a5(a5(a5(a5(ARG1,ARG0),a5(ARG0,ARG2)),a5(a5(ARG2,ARG1),a5(ARG1,ARG0))),ARG2),a5(a5(a5(a5(a5(ARG0,ARG0),a5(ARG0,ARG1)),a5(ARG2,a5(ARG2,ARG0))),a5(ARG1,a5(a5(ARG1,ARG1),a5(ARG0,a5(ARG2,ARG0))))),ARG0)),a5(a5(ARG2,ARG0),a5(a5(a5(a5(ARG1,ARG2),a5(ARG2,ARG2)),a5(a5(ARG0,ARG2),a5(ARG1,ARG2))),ARG2)))'
p157
sS'tree_len'
p158
I67
sS'archive_size'
p159
I20591
sS'number_of_operators'
p160
I33
sS'alg_name'
p161
S'small-LTI'
p162
sS'archive_tree_deapth'
p163
I3
sS'logbook'
p164
g12
(g13
g14
(lp165
(dp166
S'status'
p167
NsS'iteration'
p168
I0
sS'count_wrongs'
p169
I6
sS'picked_node'
p170
NsS'len_master_tree'
p171
I1
sS'total_wrongs'
p172
I6
sa(dp173
g167
S'worst'
p174
sg168
I1
sg169
I7
sg170
I0
sg171
I15
sg172
I74
sa(dp175
g167
S'better'
p176
sg168
I2
sg169
I4
sg170
I10
sg171
I25
sg172
I52
sa(dp177
g167
S'perfect'
p178
sg168
I3
sg169
I4
sg170
I23
sg171
I31
sg172
I51
sa(dp179
g167
g178
sg168
I4
sg169
I4
sg170
I22
sg171
I33
sg172
I49
sa(dp180
g167
g178
sg168
I5
sg169
I4
sg170
I17
sg171
I39
sg172
I54
sa(dp181
g167
g178
sg168
I6
sg169
I3
sg170
I17
sg171
I39
sg172
I32
sa(dp182
g167
g178
sg168
I7
sg169
I1
sg170
I12
sg171
I53
sg172
I8
sa(dp183
g167
g178
sg168
I8
sg169
I0
sg170
I3
sg171
I67
sg172
I0
satRp184
(dp185
g35
I01
sg36
(lp186
g168
ag171
ag169
ag172
ag170
ag167
asg38
Nsg39
I0
sg40
g41
(g13
tRp187
sbsS'max_archive_size'
p188
NsS'solution_found_flag'
p189
I01
sS'time_taken'
p190
F294.30651211738586
sS'benchmark_name'
p191
S'D_A5'
p192
sa(dp193
S'tree_str'
p194
S'a5(a5(a5(a5(a5(ARG1,a5(ARG0,ARG1)),a5(ARG1,a5(a5(ARG1,a5(ARG1,ARG2)),a5(a5(ARG2,ARG0),ARG2)))),a5(a5(a5(ARG0,ARG2),a5(ARG0,ARG2)),a5(a5(ARG2,ARG2),a5(ARG0,ARG2)))),a5(a5(a5(ARG2,a5(ARG0,ARG0)),a5(a5(ARG2,ARG2),ARG2)),ARG2)),a5(a5(a5(a5(a5(ARG0,ARG2),a5(ARG1,ARG1)),a5(a5(ARG1,ARG2),a5(ARG1,ARG0))),a5(a5(a5(ARG0,ARG0),a5(ARG0,ARG1)),a5(a5(ARG0,ARG0),a5(ARG0,ARG0)))),a5(ARG0,ARG2)))'
p195
sS'tree_len'
p196
I85
sS'archive_size'
p197
I20591
sS'number_of_operators'
p198
I42
sS'alg_name'
p199
S'small-LTI'
p200
sS'archive_tree_deapth'
p201
I3
sS'logbook'
p202
g12
(g13
g14
(lp203
(dp204
S'status'
p205
NsS'iteration'
p206
I0
sS'count_wrongs'
p207
I6
sS'picked_node'
p208
NsS'len_master_tree'
p209
I1
sS'total_wrongs'
p210
I6
sa(dp211
g205
S'worst'
p212
sg206
I1
sg207
I7
sg208
I0
sg209
I15
sg210
I94
sa(dp213
g205
S'better'
p214
sg206
I2
sg207
I6
sg208
I13
sg209
I25
sg210
I62
sa(dp215
g205
S'perfect'
p216
sg206
I3
sg207
I6
sg208
I18
sg209
I33
sg210
I50
sa(dp217
g205
g216
sg206
I4
sg207
I5
sg208
I13
sg209
I47
sg210
I39
sa(dp218
g205
g216
sg206
I5
sg207
I4
sg208
I10
sg209
I57
sg210
I28
sa(dp219
g205
g216
sg206
I6
sg207
I3
sg208
I6
sg209
I71
sg210
I94
sa(dp220
g205
g216
sg206
I7
sg207
I1
sg208
I14
sg209
I71
sg210
I6
sa(dp221
g205
g216
sg206
I8
sg207
I0
sg208
I6
sg209
I85
sg210
I0
satRp222
(dp223
g35
I01
sg36
(lp224
g206
ag209
ag207
ag210
ag208
ag205
asg38
Nsg39
I0
sg40
g41
(g13
tRp225
sbsS'max_archive_size'
p226
NsS'solution_found_flag'
p227
I01
sS'time_taken'
p228
F363.86845421791077
sS'benchmark_name'
p229
S'D_A5'
p230
sa(dp231
S'tree_str'
p232
S'a5(a5(a5(ARG2,a5(a5(a5(ARG0,ARG1),ARG1),a5(ARG0,ARG0))),a5(a5(a5(ARG1,a5(ARG0,ARG0)),a5(ARG1,a5(a5(ARG1,a5(ARG2,a5(ARG0,ARG0))),ARG2))),ARG0)),a5(a5(ARG2,ARG0),a5(a5(a5(a5(ARG1,ARG2),a5(ARG2,ARG2)),a5(a5(ARG0,ARG2),a5(ARG1,ARG2))),ARG2)))'
p233
sS'tree_len'
p234
I53
sS'archive_size'
p235
I20591
sS'number_of_operators'
p236
I26
sS'alg_name'
p237
S'small-LTI'
p238
sS'archive_tree_deapth'
p239
I3
sS'logbook'
p240
g12
(g13
g14
(lp241
(dp242
S'status'
p243
NsS'iteration'
p244
I0
sS'count_wrongs'
p245
I6
sS'picked_node'
p246
NsS'len_master_tree'
p247
I1
sS'total_wrongs'
p248
I6
sa(dp249
g243
S'worst'
p250
sg244
I1
sg245
I7
sg246
I0
sg247
I15
sg248
I74
sa(dp251
g243
S'better'
p252
sg244
I2
sg245
I4
sg246
I10
sg247
I25
sg248
I52
sa(dp253
g243
S'perfect'
p254
sg244
I3
sg245
I3
sg246
I18
sg247
I31
sg248
I32
sa(dp255
g243
g254
sg244
I4
sg245
I1
sg246
I13
sg247
I39
sg248
I8
sa(dp256
g243
g254
sg244
I5
sg245
I0
sg246
I3
sg247
I53
sg248
I0
satRp257
(dp258
g35
I01
sg36
(lp259
g244
ag247
ag245
ag248
ag246
ag243
asg38
Nsg39
I0
sg40
g41
(g13
tRp260
sbsS'max_archive_size'
p261
NsS'solution_found_flag'
p262
I01
sS'time_taken'
p263
F282.64085006713867
sS'benchmark_name'
p264
S'D_A5'
p265
sa(dp266
S'tree_str'
p267
S'a5(a5(a5(ARG2,a5(a5(ARG0,a5(ARG1,a5(ARG0,ARG2))),a5(a5(ARG2,ARG2),a5(ARG2,ARG2)))),a5(ARG0,ARG2)),a5(a5(a5(a5(a5(ARG2,ARG2),a5(ARG0,ARG2)),a5(a5(ARG0,ARG0),a5(ARG0,ARG2))),a5(a5(a5(ARG0,ARG0),a5(a5(ARG1,ARG2),a5(ARG1,ARG0))),a5(a5(ARG0,a5(a5(ARG1,ARG0),ARG1)),ARG1))),a5(ARG0,ARG2)))'
p268
sS'tree_len'
p269
I63
sS'archive_size'
p270
I20591
sS'number_of_operators'
p271
I31
sS'alg_name'
p272
S'small-LTI'
p273
sS'archive_tree_deapth'
p274
I3
sS'logbook'
p275
g12
(g13
g14
(lp276
(dp277
S'status'
p278
NsS'iteration'
p279
I0
sS'count_wrongs'
p280
I6
sS'picked_node'
p281
NsS'len_master_tree'
p282
I1
sS'total_wrongs'
p283
I6
sa(dp284
g278
S'worst'
p285
sg279
I1
sg280
I7
sg281
I0
sg282
I15
sg283
I94
sa(dp286
g278
S'better'
p287
sg279
I2
sg280
I5
sg281
I7
sg282
I25
sg283
I74
sa(dp288
g278
S'perfect'
p289
sg279
I3
sg280
I5
sg281
I19
sg282
I29
sg283
I71
sa(dp290
g278
g289
sg279
I4
sg280
I4
sg281
I19
sg282
I35
sg283
I50
sa(dp291
g278
g289
sg279
I5
sg280
I2
sg281
I6
sg282
I49
sg283
I22
sa(dp292
g278
g287
sg279
I6
sg280
I2
sg281
I12
sg282
I61
sg283
I94
sa(dp293
g278
g289
sg279
I7
sg280
I1
sg281
I22
sg282
I61
sg283
I24
sa(dp294
g278
g289
sg279
I8
sg280
I0
sg281
I45
sg282
I63
sg283
I0
satRp295
(dp296
g35
I01
sg36
(lp297
g279
ag282
ag280
ag283
ag281
ag278
asg38
Nsg39
I0
sg40
g41
(g13
tRp298
sbsS'max_archive_size'
p299
NsS'solution_found_flag'
p300
I01
sS'time_taken'
p301
F372.24825191497803
sS'benchmark_name'
p302
S'D_A5'
p303
sa(dp304
S'tree_str'
p305
S'a5(a5(a5(a5(a5(ARG1,a5(ARG0,a5(a5(ARG2,a5(ARG0,ARG1)),a5(ARG1,ARG1)))),a5(ARG2,a5(ARG0,ARG0))),ARG2),a5(a5(a5(a5(ARG1,ARG0),a5(ARG1,ARG2)),a5(ARG2,a5(ARG1,ARG2))),ARG2)),a5(a5(a5(a5(ARG1,ARG0),a5(a5(a5(a5(ARG2,a5(ARG1,ARG2)),a5(a5(ARG1,ARG0),a5(ARG0,ARG1))),ARG0),ARG1)),ARG0),a5(ARG2,ARG0)))'
p306
sS'tree_len'
p307
I65
sS'archive_size'
p308
I20591
sS'number_of_operators'
p309
I32
sS'alg_name'
p310
S'small-LTI'
p311
sS'archive_tree_deapth'
p312
I3
sS'logbook'
p313
g12
(g13
g14
(lp314
(dp315
S'status'
p316
NsS'iteration'
p317
I0
sS'count_wrongs'
p318
I6
sS'picked_node'
p319
NsS'len_master_tree'
p320
I1
sS'total_wrongs'
p321
I6
sa(dp322
g316
S'worst'
p323
sg317
I1
sg318
I7
sg319
I0
sg320
I15
sg321
I77
sa(dp324
g316
S'better'
p325
sg317
I2
sg318
I5
sg319
I13
sg320
I25
sg321
I52
sa(dp326
g316
S'perfect'
p327
sg317
I3
sg318
I5
sg319
I24
sg320
I33
sg321
I39
sa(dp328
g316
g325
sg317
I4
sg318
I4
sg319
I6
sg320
I41
sg321
I38
sa(dp329
g316
g327
sg317
I5
sg318
I3
sg319
I36
sg320
I53
sg321
I19
sa(dp330
g316
g327
sg317
I6
sg318
I0
sg319
I9
sg320
I65
sg321
I0
satRp331
(dp332
g35
I01
sg36
(lp333
g317
ag320
ag318
ag321
ag319
ag316
asg38
Nsg39
I0
sg40
g41
(g13
tRp334
sbsS'max_archive_size'
p335
NsS'solution_found_flag'
p336
I01
sS'time_taken'
p337
F354.26884913444519
sS'benchmark_name'
p338
S'D_A5'
p339
sa(dp340
S'tree_str'
p341
S'a5(a5(a5(a5(a5(a5(ARG1,ARG2),a5(ARG2,ARG2)),a5(a5(ARG2,ARG1),a5(ARG1,ARG2))),ARG0),a5(a5(a5(ARG2,a5(a5(ARG2,a5(ARG2,ARG0)),ARG1)),a5(a5(ARG0,ARG1),ARG1)),ARG0)),a5(a5(ARG0,a5(a5(ARG0,ARG0),ARG0)),a5(ARG2,ARG0)))'
p342
sS'tree_len'
p343
I47
sS'archive_size'
p344
I20591
sS'number_of_operators'
p345
I23
sS'alg_name'
p346
S'small-LTI'
p347
sS'archive_tree_deapth'
p348
I3
sS'logbook'
p349
g12
(g13
g14
(lp350
(dp351
S'status'
p352
NsS'iteration'
p353
I0
sS'count_wrongs'
p354
I6
sS'picked_node'
p355
NsS'len_master_tree'
p356
I1
sS'total_wrongs'
p357
I6
sa(dp358
g352
S'worst'
p359
sg353
I1
sg354
I7
sg355
I0
sg356
I15
sg357
I85
sa(dp360
g352
S'better'
p361
sg353
I2
sg354
I2
sg355
I10
sg356
I25
sg357
I30
sa(dp362
g352
S'perfect'
p363
sg353
I3
sg354
I2
sg355
I23
sg356
I29
sg357
I19
sa(dp364
g352
g363
sg353
I4
sg354
I1
sg355
I7
sg356
I33
sg357
I11
sa(dp365
g352
g363
sg353
I5
sg354
I0
sg355
I11
sg356
I47
sg357
I0
satRp366
(dp367
g35
I01
sg36
(lp368
g353
ag356
ag354
ag357
ag355
ag352
asg38
Nsg39
I0
sg40
g41
(g13
tRp369
sbsS'max_archive_size'
p370
NsS'solution_found_flag'
p371
I01
sS'time_taken'
p372
F369.70647716522217
sS'benchmark_name'
p373
S'D_A5'
p374
sa(dp375
S'tree_str'
p376
S'a5(a5(a5(a5(a5(ARG1,a5(ARG0,a5(a5(ARG2,a5(ARG0,ARG1)),a5(ARG1,ARG1)))),a5(ARG2,a5(ARG0,ARG0))),ARG2),a5(a5(a5(a5(ARG1,ARG0),a5(ARG1,ARG2)),a5(ARG2,a5(ARG1,ARG2))),ARG2)),a5(a5(a5(a5(ARG1,ARG0),a5(a5(ARG0,a5(a5(a5(ARG2,ARG0),ARG2),a5(a5(ARG0,ARG1),a5(ARG0,ARG0)))),ARG1)),ARG0),a5(ARG2,ARG0)))'
p377
sS'tree_len'
p378
I65
sS'archive_size'
p379
I20591
sS'number_of_operators'
p380
I32
sS'alg_name'
p381
S'small-LTI'
p382
sS'archive_tree_deapth'
p383
I3
sS'logbook'
p384
g12
(g13
g14
(lp385
(dp386
S'status'
p387
NsS'iteration'
p388
I0
sS'count_wrongs'
p389
I6
sS'picked_node'
p390
NsS'len_master_tree'
p391
I1
sS'total_wrongs'
p392
I6
sa(dp393
g387
S'worst'
p394
sg388
I1
sg389
I7
sg390
I0
sg391
I15
sg392
I77
sa(dp395
g387
S'better'
p396
sg388
I2
sg389
I5
sg390
I13
sg391
I25
sg392
I52
sa(dp397
g387
S'perfect'
p398
sg388
I3
sg389
I5
sg390
I24
sg391
I33
sg392
I39
sa(dp399
g387
g396
sg388
I4
sg389
I4
sg390
I6
sg391
I41
sg392
I38
sa(dp400
g387
g398
sg388
I5
sg389
I3
sg390
I37
sg391
I53
sg392
I19
sa(dp401
g387
g398
sg388
I6
sg389
I0
sg390
I9
sg391
I65
sg392
I0
satRp402
(dp403
g35
I01
sg36
(lp404
g388
ag391
ag389
ag392
ag390
ag387
asg38
Nsg39
I0
sg40
g41
(g13
tRp405
sbsS'max_archive_size'
p406
NsS'solution_found_flag'
p407
I01
sS'time_taken'
p408
F330.79800510406494
sS'benchmark_name'
p409
S'D_A5'
p410
sa(dp411
S'tree_str'
p412
S'a5(a5(a5(a5(a5(ARG1,a5(ARG0,ARG1)),a5(ARG1,a5(a5(a5(a5(ARG2,ARG0),ARG2),a5(ARG1,a5(ARG2,ARG2))),ARG2))),a5(a5(a5(ARG0,ARG2),a5(ARG0,ARG2)),a5(a5(ARG2,ARG2),a5(ARG0,ARG2)))),a5(ARG0,a5(a5(ARG2,a5(ARG0,ARG2)),a5(a5(ARG2,ARG2),ARG2)))),a5(a5(a5(a5(a5(ARG0,ARG2),a5(ARG1,ARG1)),a5(a5(ARG1,ARG2),a5(ARG1,ARG0))),a5(a5(a5(ARG0,ARG0),a5(ARG0,ARG1)),a5(a5(ARG0,ARG0),a5(ARG0,ARG0)))),a5(ARG0,ARG2)))'
p413
sS'tree_len'
p414
I87
sS'archive_size'
p415
I20591
sS'number_of_operators'
p416
I43
sS'alg_name'
p417
S'small-LTI'
p418
sS'archive_tree_deapth'
p419
I3
sS'logbook'
p420
g12
(g13
g14
(lp421
(dp422
S'status'
p423
NsS'iteration'
p424
I0
sS'count_wrongs'
p425
I6
sS'picked_node'
p426
NsS'len_master_tree'
p427
I1
sS'total_wrongs'
p428
I6
sa(dp429
g423
S'worst'
p430
sg424
I1
sg425
I7
sg426
I0
sg427
I15
sg428
I94
sa(dp431
g423
S'better'
p432
sg424
I2
sg425
I6
sg426
I13
sg427
I25
sg428
I62
sa(dp433
g423
S'perfect'
p434
sg424
I3
sg425
I6
sg426
I18
sg427
I33
sg428
I50
sa(dp435
g423
g434
sg424
I4
sg425
I5
sg426
I13
sg427
I47
sg428
I39
sa(dp436
g423
g434
sg424
I5
sg425
I4
sg426
I11
sg427
I57
sg428
I28
sa(dp437
g423
g434
sg424
I6
sg425
I3
sg426
I6
sg427
I71
sg428
I90
sa(dp438
g423
g434
sg424
I7
sg425
I1
sg426
I21
sg427
I73
sg428
I6
sa(dp439
g423
g434
sg424
I8
sg425
I0
sg426
I6
sg427
I87
sg428
I0
satRp440
(dp441
g35
I01
sg36
(lp442
g424
ag427
ag425
ag428
ag426
ag423
asg38
Nsg39
I0
sg40
g41
(g13
tRp443
sbsS'max_archive_size'
p444
NsS'solution_found_flag'
p445
I01
sS'time_taken'
p446
F334.53730702400208
sS'benchmark_name'
p447
S'D_A5'
p448
sa(dp449
S'tree_str'
p450
S'a5(a5(a5(a5(a5(ARG1,a5(ARG0,a5(a5(ARG2,a5(ARG0,ARG1)),a5(ARG1,ARG1)))),a5(ARG2,a5(ARG0,ARG0))),ARG2),a5(a5(a5(a5(ARG1,ARG0),a5(ARG1,ARG2)),a5(ARG2,a5(ARG1,ARG2))),ARG2)),a5(a5(a5(a5(ARG1,ARG0),a5(a5(ARG0,a5(a5(a5(ARG2,ARG0),ARG2),a5(a5(ARG0,ARG1),a5(ARG0,ARG0)))),ARG1)),ARG0),a5(ARG2,ARG0)))'
p451
sS'tree_len'
p452
I65
sS'archive_size'
p453
I20591
sS'number_of_operators'
p454
I32
sS'alg_name'
p455
S'small-LTI'
p456
sS'archive_tree_deapth'
p457
I3
sS'logbook'
p458
g12
(g13
g14
(lp459
(dp460
S'status'
p461
NsS'iteration'
p462
I0
sS'count_wrongs'
p463
I6
sS'picked_node'
p464
NsS'len_master_tree'
p465
I1
sS'total_wrongs'
p466
I6
sa(dp467
g461
S'worst'
p468
sg462
I1
sg463
I7
sg464
I0
sg465
I15
sg466
I77
sa(dp469
g461
S'better'
p470
sg462
I2
sg463
I5
sg464
I13
sg465
I25
sg466
I52
sa(dp471
g461
S'perfect'
p472
sg462
I3
sg463
I5
sg464
I24
sg465
I33
sg466
I39
sa(dp473
g461
g470
sg462
I4
sg463
I4
sg464
I6
sg465
I41
sg466
I38
sa(dp474
g461
g472
sg462
I5
sg463
I3
sg464
I37
sg465
I53
sg466
I19
sa(dp475
g461
g472
sg462
I6
sg463
I0
sg464
I9
sg465
I65
sg466
I0
satRp476
(dp477
g35
I01
sg36
(lp478
g462
ag465
ag463
ag466
ag464
ag461
asg38
Nsg39
I0
sg40
g41
(g13
tRp479
sbsS'max_archive_size'
p480
NsS'solution_found_flag'
p481
I01
sS'time_taken'
p482
F323.05069804191589
sS'benchmark_name'
p483
S'D_A5'
p484
sa(dp485
S'tree_str'
p486
S'a5(a5(a5(ARG2,a5(a5(a5(ARG0,ARG1),ARG1),a5(ARG0,ARG0))),a5(a5(a5(ARG1,a5(ARG0,ARG0)),a5(ARG1,a5(a5(ARG1,a5(ARG2,a5(ARG0,ARG0))),ARG2))),ARG0)),a5(a5(ARG2,ARG0),a5(a5(a5(a5(ARG1,ARG2),a5(ARG2,ARG2)),a5(a5(ARG0,ARG2),a5(ARG1,ARG2))),ARG2)))'
p487
sS'tree_len'
p488
I53
sS'archive_size'
p489
I20591
sS'number_of_operators'
p490
I26
sS'alg_name'
p491
S'small-LTI'
p492
sS'archive_tree_deapth'
p493
I3
sS'logbook'
p494
g12
(g13
g14
(lp495
(dp496
S'status'
p497
NsS'iteration'
p498
I0
sS'count_wrongs'
p499
I6
sS'picked_node'
p500
NsS'len_master_tree'
p501
I1
sS'total_wrongs'
p502
I6
sa(dp503
g497
S'worst'
p504
sg498
I1
sg499
I7
sg500
I0
sg501
I15
sg502
I74
sa(dp505
g497
S'better'
p506
sg498
I2
sg499
I4
sg500
I10
sg501
I25
sg502
I52
sa(dp507
g497
S'perfect'
p508
sg498
I3
sg499
I4
sg500
I23
sg501
I31
sg502
I51
sa(dp509
g497
g508
sg498
I4
sg499
I4
sg500
I22
sg501
I33
sg502
I49
sa(dp510
g497
g508
sg498
I5
sg499
I4
sg500
I18
sg501
I39
sg502
I54
sa(dp511
g497
g508
sg498
I6
sg499
I3
sg500
I19
sg501
I31
sg502
I32
sa(dp512
g497
g508
sg498
I7
sg499
I1
sg500
I13
sg501
I39
sg502
I8
sa(dp513
g497
g508
sg498
I8
sg499
I0
sg500
I3
sg501
I53
sg502
I0
satRp514
(dp515
g35
I01
sg36
(lp516
g498
ag501
ag499
ag502
ag500
ag497
asg38
Nsg39
I0
sg40
g41
(g13
tRp517
sbsS'max_archive_size'
p518
NsS'solution_found_flag'
p519
I01
sS'time_taken'
p520
F333.88732194900513
sS'benchmark_name'
p521
S'D_A5'
p522
sa(dp523
S'tree_str'
p524
S'a5(a5(a5(ARG2,a5(a5(a5(ARG0,ARG1),ARG1),a5(ARG0,ARG0))),a5(a5(a5(ARG1,a5(ARG0,ARG0)),a5(ARG1,a5(a5(ARG1,a5(ARG2,a5(ARG0,ARG0))),ARG2))),ARG0)),a5(a5(ARG2,ARG0),a5(a5(a5(a5(ARG1,ARG2),a5(ARG2,ARG2)),a5(a5(ARG0,ARG2),a5(ARG1,ARG2))),ARG2)))'
p525
sS'tree_len'
p526
I53
sS'archive_size'
p527
I20591
sS'number_of_operators'
p528
I26
sS'alg_name'
p529
S'small-LTI'
p530
sS'archive_tree_deapth'
p531
I3
sS'logbook'
p532
g12
(g13
g14
(lp533
(dp534
S'status'
p535
NsS'iteration'
p536
I0
sS'count_wrongs'
p537
I6
sS'picked_node'
p538
NsS'len_master_tree'
p539
I1
sS'total_wrongs'
p540
I6
sa(dp541
g535
S'worst'
p542
sg536
I1
sg537
I7
sg538
I0
sg539
I15
sg540
I74
sa(dp543
g535
S'better'
p544
sg536
I2
sg537
I4
sg538
I10
sg539
I25
sg540
I52
sa(dp545
g535
S'perfect'
p546
sg536
I3
sg537
I4
sg538
I23
sg539
I31
sg540
I51
sa(dp547
g535
g546
sg536
I4
sg537
I4
sg538
I22
sg539
I33
sg540
I49
sa(dp548
g535
g546
sg536
I5
sg537
I4
sg538
I18
sg539
I39
sg540
I54
sa(dp549
g535
g546
sg536
I6
sg537
I3
sg538
I19
sg539
I31
sg540
I32
sa(dp550
g535
g546
sg536
I7
sg537
I1
sg538
I13
sg539
I39
sg540
I8
sa(dp551
g535
g546
sg536
I8
sg537
I0
sg538
I3
sg539
I53
sg540
I0
satRp552
(dp553
g35
I01
sg36
(lp554
g536
ag539
ag537
ag540
ag538
ag535
asg38
Nsg39
I0
sg40
g41
(g13
tRp555
sbsS'max_archive_size'
p556
NsS'solution_found_flag'
p557
I01
sS'time_taken'
p558
F403.17199802398682
sS'benchmark_name'
p559
S'D_A5'
p560
sa(dp561
S'tree_str'
p562
S'a5(a5(a5(ARG2,a5(a5(a5(ARG2,ARG2),a5(ARG1,ARG2)),a5(a5(ARG1,ARG0),a5(ARG0,ARG1)))),a5(a5(a5(a5(a5(ARG0,ARG0),a5(ARG0,ARG1)),a5(ARG2,a5(ARG2,ARG0))),a5(ARG1,a5(a5(ARG1,ARG1),a5(ARG0,a5(ARG2,ARG0))))),ARG0)),a5(a5(ARG2,ARG0),a5(a5(a5(a5(ARG1,ARG2),a5(ARG2,ARG2)),a5(a5(ARG0,ARG2),a5(ARG1,ARG2))),ARG2)))'
p563
sS'tree_len'
p564
I67
sS'archive_size'
p565
I20591
sS'number_of_operators'
p566
I33
sS'alg_name'
p567
S'small-LTI'
p568
sS'archive_tree_deapth'
p569
I3
sS'logbook'
p570
g12
(g13
g14
(lp571
(dp572
S'status'
p573
NsS'iteration'
p574
I0
sS'count_wrongs'
p575
I6
sS'picked_node'
p576
NsS'len_master_tree'
p577
I1
sS'total_wrongs'
p578
I6
sa(dp579
g573
S'worst'
p580
sg574
I1
sg575
I7
sg576
I0
sg577
I15
sg578
I74
sa(dp581
g573
S'better'
p582
sg574
I2
sg575
I4
sg576
I10
sg577
I25
sg578
I52
sa(dp583
g573
S'perfect'
p584
sg574
I3
sg575
I4
sg576
I23
sg577
I31
sg578
I51
sa(dp585
g573
g584
sg574
I4
sg575
I4
sg576
I22
sg577
I33
sg578
I49
sa(dp586
g573
g584
sg574
I5
sg575
I4
sg576
I17
sg577
I39
sg578
I54
sa(dp587
g573
g584
sg574
I6
sg575
I3
sg576
I17
sg577
I39
sg578
I32
sa(dp588
g573
g584
sg574
I7
sg575
I1
sg576
I13
sg577
I53
sg578
I8
sa(dp589
g573
g584
sg574
I8
sg575
I0
sg576
I3
sg577
I67
sg578
I0
satRp590
(dp591
g35
I01
sg36
(lp592
g574
ag577
ag575
ag578
ag576
ag573
asg38
Nsg39
I0
sg40
g41
(g13
tRp593
sbsS'max_archive_size'
p594
NsS'solution_found_flag'
p595
I01
sS'time_taken'
p596
F378.99074697494507
sS'benchmark_name'
p597
S'D_A5'
p598
sa(dp599
S'tree_str'
p600
S'a5(a5(a5(a5(a5(ARG1,a5(ARG0,ARG1)),a5(ARG1,a5(a5(ARG1,a5(ARG1,ARG2)),a5(a5(ARG2,ARG0),ARG2)))),a5(a5(a5(ARG0,ARG2),a5(ARG0,ARG2)),a5(a5(ARG2,ARG2),a5(ARG0,ARG2)))),a5(a5(a5(ARG2,a5(ARG0,ARG0)),a5(a5(ARG2,ARG2),ARG2)),ARG2)),a5(a5(a5(a5(a5(ARG0,ARG2),a5(ARG1,ARG1)),a5(a5(ARG1,ARG2),a5(ARG1,ARG0))),a5(a5(a5(ARG0,ARG0),a5(ARG0,ARG1)),a5(a5(ARG0,ARG0),a5(ARG0,ARG0)))),a5(ARG0,ARG2)))'
p601
sS'tree_len'
p602
I85
sS'archive_size'
p603
I20591
sS'number_of_operators'
p604
I42
sS'alg_name'
p605
S'small-LTI'
p606
sS'archive_tree_deapth'
p607
I3
sS'logbook'
p608
g12
(g13
g14
(lp609
(dp610
S'status'
p611
NsS'iteration'
p612
I0
sS'count_wrongs'
p613
I6
sS'picked_node'
p614
NsS'len_master_tree'
p615
I1
sS'total_wrongs'
p616
I6
sa(dp617
g611
S'worst'
p618
sg612
I1
sg613
I7
sg614
I0
sg615
I15
sg616
I94
sa(dp619
g611
S'better'
p620
sg612
I2
sg613
I6
sg614
I13
sg615
I25
sg616
I62
sa(dp621
g611
S'perfect'
p622
sg612
I3
sg613
I6
sg614
I18
sg615
I33
sg616
I50
sa(dp623
g611
g622
sg612
I4
sg613
I5
sg614
I13
sg615
I47
sg616
I39
sa(dp624
g611
g622
sg612
I5
sg613
I4
sg614
I10
sg615
I57
sg616
I28
sa(dp625
g611
g622
sg612
I6
sg613
I3
sg614
I6
sg615
I71
sg616
I94
sa(dp626
g611
g622
sg612
I7
sg613
I1
sg614
I14
sg615
I71
sg616
I6
sa(dp627
g611
g622
sg612
I8
sg613
I0
sg614
I6
sg615
I85
sg616
I0
satRp628
(dp629
g35
I01
sg36
(lp630
g612
ag615
ag613
ag616
ag614
ag611
asg38
Nsg39
I0
sg40
g41
(g13
tRp631
sbsS'max_archive_size'
p632
NsS'solution_found_flag'
p633
I01
sS'time_taken'
p634
F394.67931699752808
sS'benchmark_name'
p635
S'D_A5'
p636
sa(dp637
S'tree_str'
p638
S'a5(a5(a5(ARG2,ARG2),a5(a5(a5(a5(ARG0,ARG2),a5(ARG2,ARG2)),a5(a5(ARG1,ARG2),a5(ARG1,ARG2))),ARG2)),a5(a5(a5(a5(a5(ARG0,ARG0),a5(ARG2,ARG0)),a5(a5(ARG0,ARG0),a5(ARG0,ARG0))),a5(a5(a5(ARG0,ARG2),a5(ARG1,ARG2)),a5(a5(a5(ARG0,ARG2),a5(ARG1,a5(ARG0,ARG1))),ARG1))),a5(a5(a5(ARG2,a5(ARG0,ARG0)),a5(ARG2,a5(ARG0,ARG0))),ARG2)))'
p639
sS'tree_len'
p640
I71
sS'archive_size'
p641
I20591
sS'number_of_operators'
p642
I35
sS'alg_name'
p643
S'small-LTI'
p644
sS'archive_tree_deapth'
p645
I3
sS'logbook'
p646
g12
(g13
g14
(lp647
(dp648
S'status'
p649
NsS'iteration'
p650
I0
sS'count_wrongs'
p651
I6
sS'picked_node'
p652
NsS'len_master_tree'
p653
I1
sS'total_wrongs'
p654
I6
sa(dp655
g649
S'worst'
p656
sg650
I1
sg651
I7
sg652
I0
sg653
I15
sg654
I94
sa(dp657
g649
S'better'
p658
sg650
I2
sg651
I5
sg652
I7
sg653
I25
sg654
I74
sa(dp659
g649
S'perfect'
p660
sg650
I3
sg651
I5
sg652
I17
sg653
I31
sg654
I71
sa(dp661
g649
g660
sg650
I4
sg651
I4
sg652
I17
sg653
I33
sg654
I50
sa(dp662
g649
g660
sg650
I5
sg651
I2
sg652
I9
sg653
I47
sg654
I36
sa(dp663
g649
g660
sg650
I6
sg651
I2
sg652
I16
sg653
I47
sg654
I24
sa(dp664
g649
g660
sg650
I7
sg651
I1
sg652
I6
sg653
I61
sg654
I11
sa(dp665
g649
g660
sg650
I8
sg651
I0
sg652
I3
sg653
I71
sg654
I0
satRp666
(dp667
g35
I01
sg36
(lp668
g650
ag653
ag651
ag654
ag652
ag649
asg38
Nsg39
I0
sg40
g41
(g13
tRp669
sbsS'max_archive_size'
p670
NsS'solution_found_flag'
p671
I01
sS'time_taken'
p672
F394.59208989143372
sS'benchmark_name'
p673
S'D_A5'
p674
sa(dp675
S'tree_str'
p676
S'a5(a5(a5(ARG2,ARG2),a5(a5(a5(a5(ARG0,ARG2),a5(ARG2,ARG2)),a5(a5(ARG1,ARG2),a5(ARG1,ARG2))),a5(a5(ARG2,a5(ARG0,a5(a5(ARG1,ARG2),a5(a5(ARG0,ARG2),a5(ARG1,ARG2))))),a5(a5(ARG2,ARG2),ARG2)))),a5(a5(ARG0,a5(a5(ARG1,a5(a5(a5(a5(ARG1,ARG1),ARG0),ARG2),ARG0)),a5(a5(ARG2,ARG1),a5(a5(ARG2,ARG2),a5(ARG2,ARG2))))),a5(ARG0,ARG2)))'
p677
sS'tree_len'
p678
I71
sS'archive_size'
p679
I20591
sS'number_of_operators'
p680
I35
sS'alg_name'
p681
S'small-LTI'
p682
sS'archive_tree_deapth'
p683
I3
sS'logbook'
p684
g12
(g13
g14
(lp685
(dp686
S'status'
p687
NsS'iteration'
p688
I0
sS'count_wrongs'
p689
I6
sS'picked_node'
p690
NsS'len_master_tree'
p691
I1
sS'total_wrongs'
p692
I6
sa(dp693
g687
S'worst'
p694
sg688
I1
sg689
I7
sg690
I0
sg691
I15
sg692
I94
sa(dp695
g687
S'better'
p696
sg688
I2
sg689
I5
sg690
I7
sg691
I25
sg692
I74
sa(dp697
g687
S'perfect'
p698
sg688
I3
sg689
I5
sg690
I19
sg691
I29
sg692
I71
sa(dp699
g687
g698
sg688
I4
sg689
I4
sg690
I22
sg691
I35
sg692
I50
sa(dp700
g687
g698
sg688
I5
sg689
I2
sg690
I9
sg691
I49
sg692
I31
sa(dp701
g687
g698
sg688
I6
sg689
I2
sg690
I14
sg691
I51
sg692
I24
sa(dp702
g687
g696
sg688
I7
sg689
I1
sg690
I9
sg691
I61
sg692
I17
sa(dp703
g687
g698
sg688
I8
sg689
I0
sg690
I60
sg691
I71
sg692
I0
satRp704
(dp705
g35
I01
sg36
(lp706
g688
ag691
ag689
ag692
ag690
ag687
asg38
Nsg39
I0
sg40
g41
(g13
tRp707
sbsS'max_archive_size'
p708
NsS'solution_found_flag'
p709
I01
sS'time_taken'
p710
F421.44113087654114
sS'benchmark_name'
p711
S'D_A5'
p712
sa(dp713
S'tree_str'
p714
S'a5(a5(a5(ARG2,a5(a5(ARG1,ARG1),a5(a5(ARG1,ARG2),a5(ARG1,ARG1)))),a5(a5(a5(a5(ARG0,a5(a5(ARG0,ARG1),ARG0)),a5(a5(a5(ARG1,ARG0),a5(ARG2,ARG2)),ARG0)),a5(ARG1,a5(ARG0,ARG2))),ARG0)),a5(a5(ARG2,ARG0),a5(a5(a5(a5(ARG1,ARG2),a5(ARG2,ARG2)),a5(a5(ARG0,ARG2),a5(ARG1,ARG2))),ARG2)))'
p715
sS'tree_len'
p716
I61
sS'archive_size'
p717
I20591
sS'number_of_operators'
p718
I30
sS'alg_name'
p719
S'small-LTI'
p720
sS'archive_tree_deapth'
p721
I3
sS'logbook'
p722
g12
(g13
g14
(lp723
(dp724
S'status'
p725
NsS'iteration'
p726
I0
sS'count_wrongs'
p727
I6
sS'picked_node'
p728
NsS'len_master_tree'
p729
I1
sS'total_wrongs'
p730
I6
sa(dp731
g725
S'worst'
p732
sg726
I1
sg727
I7
sg728
I0
sg729
I15
sg730
I74
sa(dp733
g725
S'better'
p734
sg726
I2
sg727
I4
sg728
I10
sg729
I25
sg730
I52
sa(dp735
g725
S'perfect'
p736
sg726
I3
sg727
I4
sg728
I21
sg729
I31
sg730
I51
sa(dp737
g725
g736
sg726
I4
sg727
I3
sg728
I22
sg729
I37
sg730
I32
sa(dp738
g725
g736
sg726
I5
sg727
I1
sg728
I13
sg729
I47
sg730
I8
sa(dp739
g725
g736
sg726
I6
sg727
I0
sg728
I3
sg729
I61
sg730
I0
satRp740
(dp741
g35
I01
sg36
(lp742
g726
ag729
ag727
ag730
ag728
ag725
asg38
Nsg39
I0
sg40
g41
(g13
tRp743
sbsS'max_archive_size'
p744
NsS'solution_found_flag'
p745
I01
sS'time_taken'
p746
F361.06650614738464
sS'benchmark_name'
p747
S'D_A5'
p748
sa.