(lp1
(dp2
S'tree_str'
p3
S'a1(a1(a1(a1(ARG2,a1(ARG2,a1(ARG0,ARG2))),ARG0),a1(a1(a1(ARG2,ARG1),ARG1),a1(ARG0,ARG1))),a1(a1(a1(a1(ARG1,a1(ARG0,ARG2)),a1(ARG0,a1(ARG1,ARG1))),ARG2),a1(ARG0,ARG1)))'
p4
sS'tree_len'
p5
I37
sS'archive_size'
p6
I12476
sS'number_of_operators'
p7
I18
sS'alg_name'
p8
S'small-LTI'
p9
sS'archive_tree_deapth'
p10
I3
sS'logbook'
p11
ccopy_reg
_reconstructor
p12
(ctreeimprove.utilities
Logbook
p13
c__builtin__
list
p14
(lp15
(dp16
S'status'
p17
NsS'iteration'
p18
I0
sS'count_wrongs'
p19
I4
sS'picked_node'
p20
NsS'len_master_tree'
p21
I11
sS'total_wrongs'
p22
I30
sa(dp23
g17
S'perfect'
p24
sg18
I1
sg19
I3
sg20
I6
sg21
I21
sg22
I12
sa(dp25
g17
g24
sg18
I2
sg19
I1
sg20
I9
sg21
I29
sg22
I3
sa(dp26
g17
S'worst'
p27
sg18
I3
sg19
I2
sg20
I7
sg21
I25
sg22
I13
sa(dp28
g17
g24
sg18
I4
sg19
I1
sg20
I20
sg21
I29
sg22
I3
sa(dp29
g17
g27
sg18
I5
sg19
I2
sg20
I18
sg21
I25
sg22
I13
sa(dp30
g17
g24
sg18
I6
sg19
I2
sg20
I22
sg21
I33
sg22
I8
sa(dp31
g17
g24
sg18
I7
sg19
I1
sg20
I21
sg21
I41
sg22
I3
sa(dp32
g17
g27
sg18
I8
sg19
I2
sg20
I18
sg21
I25
sg22
I13
sa(dp33
g17
g24
sg18
I9
sg19
I1
sg20
I20
sg21
I29
sg22
I3
sa(dp34
g17
g27
sg18
I10
sg19
I2
sg20
I18
sg21
I29
sg22
I20
sa(dp35
g17
g24
sg18
I11
sg19
I2
sg20
I20
sg21
I33
sg22
I18
sa(dp36
g17
g24
sg18
I12
sg19
I1
sg20
I19
sg21
I33
sg22
I7
sa(dp37
g17
g24
sg18
I13
sg19
I0
sg20
I21
sg21
I37
sg22
I0
satRp38
(dp39
S'log_header'
p40
I01
sS'header'
p41
(lp42
g18
ag21
ag19
ag22
ag20
ag17
asS'columns_len'
p43
NsS'buffindex'
p44
I0
sS'chapters'
p45
ccollections
defaultdict
p46
(g13
tRp47
sbsS'max_archive_size'
p48
NsS'solution_found_flag'
p49
I01
sS'time_taken'
p50
F162.51175284385681
sS'benchmark_name'
p51
S'M_A1'
p52
sa(dp53
S'tree_str'
p54
S'a1(a1(a1(a1(ARG2,a1(ARG2,a1(ARG0,ARG2))),ARG0),a1(a1(a1(ARG2,ARG1),ARG1),a1(ARG0,ARG1))),a1(a1(a1(a1(ARG1,a1(ARG0,ARG2)),a1(ARG0,a1(ARG1,ARG1))),ARG2),a1(ARG0,ARG1)))'
p55
sS'tree_len'
p56
I37
sS'archive_size'
p57
I12476
sS'number_of_operators'
p58
I18
sS'alg_name'
p59
S'small-LTI'
p60
sS'archive_tree_deapth'
p61
I3
sS'logbook'
p62
g12
(g13
g14
(lp63
(dp64
S'status'
p65
NsS'iteration'
p66
I0
sS'count_wrongs'
p67
I4
sS'picked_node'
p68
NsS'len_master_tree'
p69
I11
sS'total_wrongs'
p70
I30
sa(dp71
g65
S'perfect'
p72
sg66
I1
sg67
I3
sg68
I6
sg69
I21
sg70
I12
sa(dp73
g65
g72
sg66
I2
sg67
I1
sg68
I9
sg69
I29
sg70
I3
sa(dp74
g65
S'worst'
p75
sg66
I3
sg67
I2
sg68
I7
sg69
I25
sg70
I13
sa(dp76
g65
g72
sg66
I4
sg67
I1
sg68
I20
sg69
I29
sg70
I3
sa(dp77
g65
g75
sg66
I5
sg67
I2
sg68
I18
sg69
I25
sg70
I13
sa(dp78
g65
g72
sg66
I6
sg67
I2
sg68
I24
sg69
I33
sg70
I8
sa(dp79
g65
g72
sg66
I7
sg67
I1
sg68
I21
sg69
I41
sg70
I3
sa(dp80
g65
g75
sg66
I8
sg67
I2
sg68
I18
sg69
I25
sg70
I13
sa(dp81
g65
g72
sg66
I9
sg67
I1
sg68
I20
sg69
I29
sg70
I3
sa(dp82
g65
g75
sg66
I10
sg67
I2
sg68
I18
sg69
I29
sg70
I20
sa(dp83
g65
g72
sg66
I11
sg67
I1
sg68
I19
sg69
I33
sg70
I7
sa(dp84
g65
g72
sg66
I12
sg67
I0
sg68
I21
sg69
I37
sg70
I0
satRp85
(dp86
g40
I01
sg41
(lp87
g66
ag69
ag67
ag70
ag68
ag65
asg43
Nsg44
I0
sg45
g46
(g13
tRp88
sbsS'max_archive_size'
p89
NsS'solution_found_flag'
p90
I01
sS'time_taken'
p91
F171.19323897361755
sS'benchmark_name'
p92
S'M_A1'
p93
sa(dp94
S'tree_str'
p95
S'a1(a1(a1(a1(ARG0,a1(ARG0,a1(ARG0,ARG2))),ARG2),a1(a1(a1(ARG0,ARG0),ARG1),a1(ARG0,ARG2))),a1(a1(a1(a1(ARG1,a1(ARG0,ARG2)),a1(ARG0,a1(ARG1,ARG1))),ARG2),a1(ARG0,ARG1)))'
p96
sS'tree_len'
p97
I37
sS'archive_size'
p98
I12476
sS'number_of_operators'
p99
I18
sS'alg_name'
p100
S'small-LTI'
p101
sS'archive_tree_deapth'
p102
I3
sS'logbook'
p103
g12
(g13
g14
(lp104
(dp105
S'status'
p106
NsS'iteration'
p107
I0
sS'count_wrongs'
p108
I4
sS'picked_node'
p109
NsS'len_master_tree'
p110
I11
sS'total_wrongs'
p111
I30
sa(dp112
g106
S'perfect'
p113
sg107
I1
sg108
I3
sg109
I6
sg110
I21
sg111
I12
sa(dp114
g106
g113
sg107
I2
sg108
I1
sg109
I9
sg110
I29
sg111
I3
sa(dp115
g106
S'worst'
p116
sg107
I3
sg108
I2
sg109
I7
sg110
I25
sg111
I13
sa(dp117
g106
g113
sg107
I4
sg108
I1
sg109
I20
sg110
I29
sg111
I3
sa(dp118
g106
g116
sg107
I5
sg108
I2
sg109
I18
sg110
I25
sg111
I13
sa(dp119
g106
g113
sg107
I6
sg108
I1
sg109
I20
sg110
I29
sg111
I3
sa(dp120
g106
g116
sg107
I7
sg108
I2
sg109
I18
sg110
I25
sg111
I13
sa(dp121
g106
g113
sg107
I8
sg108
I2
sg109
I24
sg110
I33
sg111
I8
sa(dp122
g106
g113
sg107
I9
sg108
I1
sg109
I21
sg110
I41
sg111
I3
sa(dp123
g106
g116
sg107
I10
sg108
I2
sg109
I18
sg110
I29
sg111
I21
sa(dp124
g106
g113
sg107
I11
sg108
I1
sg109
I19
sg110
I33
sg111
I7
sa(dp125
g106
g113
sg107
I12
sg108
I0
sg109
I21
sg110
I37
sg111
I0
satRp126
(dp127
g40
I01
sg41
(lp128
g107
ag110
ag108
ag111
ag109
ag106
asg43
Nsg44
I0
sg45
g46
(g13
tRp129
sbsS'max_archive_size'
p130
NsS'solution_found_flag'
p131
I01
sS'time_taken'
p132
F168.96584391593933
sS'benchmark_name'
p133
S'M_A1'
p134
sa(dp135
S'tree_str'
p136
S'a1(a1(a1(a1(ARG2,a1(ARG2,a1(ARG0,ARG2))),ARG0),a1(a1(a1(ARG2,ARG1),ARG1),a1(ARG0,ARG1))),a1(a1(a1(a1(ARG1,a1(ARG0,ARG2)),a1(ARG0,a1(ARG1,ARG1))),ARG2),a1(ARG0,ARG1)))'
p137
sS'tree_len'
p138
I37
sS'archive_size'
p139
I12476
sS'number_of_operators'
p140
I18
sS'alg_name'
p141
S'small-LTI'
p142
sS'archive_tree_deapth'
p143
I3
sS'logbook'
p144
g12
(g13
g14
(lp145
(dp146
S'status'
p147
NsS'iteration'
p148
I0
sS'count_wrongs'
p149
I4
sS'picked_node'
p150
NsS'len_master_tree'
p151
I11
sS'total_wrongs'
p152
I30
sa(dp153
g147
S'perfect'
p154
sg148
I1
sg149
I3
sg150
I6
sg151
I21
sg152
I12
sa(dp155
g147
g154
sg148
I2
sg149
I1
sg150
I9
sg151
I29
sg152
I3
sa(dp156
g147
S'worst'
p157
sg148
I3
sg149
I2
sg150
I7
sg151
I25
sg152
I13
sa(dp158
g147
g154
sg148
I4
sg149
I1
sg150
I20
sg151
I29
sg152
I3
sa(dp159
g147
g157
sg148
I5
sg149
I2
sg150
I18
sg151
I25
sg152
I13
sa(dp160
g147
g154
sg148
I6
sg149
I1
sg150
I20
sg151
I29
sg152
I3
sa(dp161
g147
g157
sg148
I7
sg149
I2
sg150
I18
sg151
I25
sg152
I13
sa(dp162
g147
g154
sg148
I8
sg149
I2
sg150
I24
sg151
I33
sg152
I8
sa(dp163
g147
g154
sg148
I9
sg149
I1
sg150
I21
sg151
I41
sg152
I3
sa(dp164
g147
g157
sg148
I10
sg149
I2
sg150
I18
sg151
I29
sg152
I20
sa(dp165
g147
g154
sg148
I11
sg149
I1
sg150
I19
sg151
I33
sg152
I7
sa(dp166
g147
g154
sg148
I12
sg149
I0
sg150
I21
sg151
I37
sg152
I0
satRp167
(dp168
g40
I01
sg41
(lp169
g148
ag151
ag149
ag152
ag150
ag147
asg43
Nsg44
I0
sg45
g46
(g13
tRp170
sbsS'max_archive_size'
p171
NsS'solution_found_flag'
p172
I01
sS'time_taken'
p173
F169.03917717933655
sS'benchmark_name'
p174
S'M_A1'
p175
sa(dp176
S'tree_str'
p177
S'a1(a1(a1(a1(ARG0,a1(ARG0,a1(ARG0,ARG2))),ARG2),a1(a1(a1(ARG0,ARG0),ARG1),a1(ARG0,ARG2))),a1(a1(a1(a1(ARG1,a1(ARG0,ARG2)),a1(ARG0,a1(ARG1,ARG1))),ARG2),a1(ARG0,ARG1)))'
p178
sS'tree_len'
p179
I37
sS'archive_size'
p180
I12476
sS'number_of_operators'
p181
I18
sS'alg_name'
p182
S'small-LTI'
p183
sS'archive_tree_deapth'
p184
I3
sS'logbook'
p185
g12
(g13
g14
(lp186
(dp187
S'status'
p188
NsS'iteration'
p189
I0
sS'count_wrongs'
p190
I4
sS'picked_node'
p191
NsS'len_master_tree'
p192
I11
sS'total_wrongs'
p193
I30
sa(dp194
g188
S'perfect'
p195
sg189
I1
sg190
I3
sg191
I6
sg192
I21
sg193
I12
sa(dp196
g188
g195
sg189
I2
sg190
I1
sg191
I9
sg192
I29
sg193
I3
sa(dp197
g188
S'worst'
p198
sg189
I3
sg190
I2
sg191
I7
sg192
I25
sg193
I13
sa(dp199
g188
g195
sg189
I4
sg190
I1
sg191
I20
sg192
I29
sg193
I3
sa(dp200
g188
g198
sg189
I5
sg190
I2
sg191
I18
sg192
I25
sg193
I13
sa(dp201
g188
g195
sg189
I6
sg190
I2
sg191
I24
sg192
I33
sg193
I8
sa(dp202
g188
g195
sg189
I7
sg190
I1
sg191
I21
sg192
I41
sg193
I3
sa(dp203
g188
g198
sg189
I8
sg190
I2
sg191
I18
sg192
I25
sg193
I13
sa(dp204
g188
g195
sg189
I9
sg190
I1
sg191
I20
sg192
I29
sg193
I3
sa(dp205
g188
g198
sg189
I10
sg190
I2
sg191
I18
sg192
I29
sg193
I20
sa(dp206
g188
g195
sg189
I11
sg190
I1
sg191
I28
sg192
I33
sg193
I10
sa(dp207
g188
g195
sg189
I12
sg190
I0
sg191
I19
sg192
I37
sg193
I0
satRp208
(dp209
g40
I01
sg41
(lp210
g189
ag192
ag190
ag193
ag191
ag188
asg43
Nsg44
I0
sg45
g46
(g13
tRp211
sbsS'max_archive_size'
p212
NsS'solution_found_flag'
p213
I01
sS'time_taken'
p214
F200.63529181480408
sS'benchmark_name'
p215
S'M_A1'
p216
sa(dp217
S'tree_str'
p218
S'a1(a1(a1(a1(ARG2,a1(ARG2,a1(ARG0,ARG2))),ARG0),a1(a1(a1(ARG2,ARG1),ARG1),a1(ARG0,ARG1))),a1(a1(a1(a1(ARG1,a1(ARG0,ARG2)),a1(ARG0,a1(ARG1,ARG1))),ARG2),a1(ARG0,ARG1)))'
p219
sS'tree_len'
p220
I37
sS'archive_size'
p221
I12476
sS'number_of_operators'
p222
I18
sS'alg_name'
p223
S'small-LTI'
p224
sS'archive_tree_deapth'
p225
I3
sS'logbook'
p226
g12
(g13
g14
(lp227
(dp228
S'status'
p229
NsS'iteration'
p230
I0
sS'count_wrongs'
p231
I4
sS'picked_node'
p232
NsS'len_master_tree'
p233
I11
sS'total_wrongs'
p234
I30
sa(dp235
g229
S'perfect'
p236
sg230
I1
sg231
I3
sg232
I6
sg233
I21
sg234
I12
sa(dp237
g229
g236
sg230
I2
sg231
I1
sg232
I9
sg233
I29
sg234
I3
sa(dp238
g229
S'worst'
p239
sg230
I3
sg231
I2
sg232
I7
sg233
I25
sg234
I13
sa(dp240
g229
g236
sg230
I4
sg231
I1
sg232
I20
sg233
I29
sg234
I3
sa(dp241
g229
g239
sg230
I5
sg231
I2
sg232
I18
sg233
I25
sg234
I13
sa(dp242
g229
g236
sg230
I6
sg231
I2
sg232
I23
sg233
I33
sg234
I8
sa(dp243
g229
g236
sg230
I7
sg231
I1
sg232
I21
sg233
I41
sg234
I3
sa(dp244
g229
g239
sg230
I8
sg231
I2
sg232
I18
sg233
I25
sg234
I13
sa(dp245
g229
g236
sg230
I9
sg231
I1
sg232
I20
sg233
I29
sg234
I3
sa(dp246
g229
g239
sg230
I10
sg231
I2
sg232
I18
sg233
I29
sg234
I20
sa(dp247
g229
g236
sg230
I11
sg231
I1
sg232
I19
sg233
I33
sg234
I7
sa(dp248
g229
g236
sg230
I12
sg231
I0
sg232
I23
sg233
I37
sg234
I0
satRp249
(dp250
g40
I01
sg41
(lp251
g230
ag233
ag231
ag234
ag232
ag229
asg43
Nsg44
I0
sg45
g46
(g13
tRp252
sbsS'max_archive_size'
p253
NsS'solution_found_flag'
p254
I01
sS'time_taken'
p255
F190.44158315658569
sS'benchmark_name'
p256
S'M_A1'
p257
sa(dp258
S'tree_str'
p259
S'a1(a1(a1(a1(ARG0,a1(ARG0,a1(ARG0,ARG2))),ARG2),a1(a1(a1(ARG0,ARG0),ARG1),a1(ARG0,ARG2))),a1(a1(a1(a1(ARG1,a1(ARG0,ARG2)),a1(ARG0,a1(ARG1,ARG1))),ARG2),a1(ARG0,ARG1)))'
p260
sS'tree_len'
p261
I37
sS'archive_size'
p262
I12476
sS'number_of_operators'
p263
I18
sS'alg_name'
p264
S'small-LTI'
p265
sS'archive_tree_deapth'
p266
I3
sS'logbook'
p267
g12
(g13
g14
(lp268
(dp269
S'status'
p270
NsS'iteration'
p271
I0
sS'count_wrongs'
p272
I4
sS'picked_node'
p273
NsS'len_master_tree'
p274
I11
sS'total_wrongs'
p275
I30
sa(dp276
g270
S'perfect'
p277
sg271
I1
sg272
I3
sg273
I6
sg274
I21
sg275
I12
sa(dp278
g270
g277
sg271
I2
sg272
I1
sg273
I9
sg274
I29
sg275
I3
sa(dp279
g270
S'worst'
p280
sg271
I3
sg272
I2
sg273
I7
sg274
I25
sg275
I13
sa(dp281
g270
g277
sg271
I4
sg272
I1
sg273
I20
sg274
I29
sg275
I3
sa(dp282
g270
g280
sg271
I5
sg272
I2
sg273
I18
sg274
I25
sg275
I13
sa(dp283
g270
g277
sg271
I6
sg272
I1
sg273
I20
sg274
I29
sg275
I3
sa(dp284
g270
g280
sg271
I7
sg272
I2
sg273
I18
sg274
I25
sg275
I13
sa(dp285
g270
g277
sg271
I8
sg272
I2
sg273
I24
sg274
I33
sg275
I8
sa(dp286
g270
g277
sg271
I9
sg272
I1
sg273
I21
sg274
I41
sg275
I3
sa(dp287
g270
g280
sg271
I10
sg272
I2
sg273
I18
sg274
I29
sg275
I20
sa(dp288
g270
g277
sg271
I11
sg272
I2
sg273
I20
sg274
I33
sg275
I18
sa(dp289
g270
g277
sg271
I12
sg272
I1
sg273
I19
sg274
I33
sg275
I7
sa(dp290
g270
g277
sg271
I13
sg272
I0
sg273
I21
sg274
I37
sg275
I0
satRp291
(dp292
g40
I01
sg41
(lp293
g271
ag274
ag272
ag275
ag273
ag270
asg43
Nsg44
I0
sg45
g46
(g13
tRp294
sbsS'max_archive_size'
p295
NsS'solution_found_flag'
p296
I01
sS'time_taken'
p297
F195.71946001052856
sS'benchmark_name'
p298
S'M_A1'
p299
sa(dp300
S'tree_str'
p301
S'a1(a1(a1(a1(ARG2,a1(ARG2,a1(ARG0,ARG2))),ARG0),a1(a1(a1(ARG2,ARG1),ARG1),a1(ARG0,ARG1))),a1(a1(a1(a1(ARG1,a1(ARG0,ARG2)),a1(ARG0,a1(ARG1,ARG1))),ARG2),a1(ARG0,ARG1)))'
p302
sS'tree_len'
p303
I37
sS'archive_size'
p304
I12476
sS'number_of_operators'
p305
I18
sS'alg_name'
p306
S'small-LTI'
p307
sS'archive_tree_deapth'
p308
I3
sS'logbook'
p309
g12
(g13
g14
(lp310
(dp311
S'status'
p312
NsS'iteration'
p313
I0
sS'count_wrongs'
p314
I4
sS'picked_node'
p315
NsS'len_master_tree'
p316
I11
sS'total_wrongs'
p317
I30
sa(dp318
g312
S'perfect'
p319
sg313
I1
sg314
I3
sg315
I6
sg316
I21
sg317
I12
sa(dp320
g312
g319
sg313
I2
sg314
I1
sg315
I9
sg316
I29
sg317
I3
sa(dp321
g312
S'worst'
p322
sg313
I3
sg314
I2
sg315
I7
sg316
I25
sg317
I13
sa(dp323
g312
g319
sg313
I4
sg314
I1
sg315
I20
sg316
I29
sg317
I3
sa(dp324
g312
g322
sg313
I5
sg314
I2
sg315
I18
sg316
I25
sg317
I13
sa(dp325
g312
g319
sg313
I6
sg314
I2
sg315
I23
sg316
I33
sg317
I8
sa(dp326
g312
g319
sg313
I7
sg314
I1
sg315
I21
sg316
I41
sg317
I3
sa(dp327
g312
g322
sg313
I8
sg314
I2
sg315
I18
sg316
I25
sg317
I13
sa(dp328
g312
g319
sg313
I9
sg314
I1
sg315
I20
sg316
I29
sg317
I3
sa(dp329
g312
g322
sg313
I10
sg314
I2
sg315
I18
sg316
I29
sg317
I20
sa(dp330
g312
g319
sg313
I11
sg314
I2
sg315
I20
sg316
I33
sg317
I18
sa(dp331
g312
g319
sg313
I12
sg314
I1
sg315
I19
sg316
I33
sg317
I7
sa(dp332
g312
g319
sg313
I13
sg314
I0
sg315
I23
sg316
I37
sg317
I0
satRp333
(dp334
g40
I01
sg41
(lp335
g313
ag316
ag314
ag317
ag315
ag312
asg43
Nsg44
I0
sg45
g46
(g13
tRp336
sbsS'max_archive_size'
p337
NsS'solution_found_flag'
p338
I01
sS'time_taken'
p339
F196.17026400566101
sS'benchmark_name'
p340
S'M_A1'
p341
sa(dp342
S'tree_str'
p343
S'a1(a1(a1(a1(ARG2,a1(ARG2,a1(ARG0,ARG2))),ARG0),a1(a1(a1(ARG2,ARG1),ARG1),a1(ARG0,ARG1))),a1(a1(a1(a1(ARG1,a1(ARG0,ARG2)),a1(ARG0,a1(ARG1,ARG1))),ARG2),a1(ARG0,ARG1)))'
p344
sS'tree_len'
p345
I37
sS'archive_size'
p346
I12476
sS'number_of_operators'
p347
I18
sS'alg_name'
p348
S'small-LTI'
p349
sS'archive_tree_deapth'
p350
I3
sS'logbook'
p351
g12
(g13
g14
(lp352
(dp353
S'status'
p354
NsS'iteration'
p355
I0
sS'count_wrongs'
p356
I4
sS'picked_node'
p357
NsS'len_master_tree'
p358
I11
sS'total_wrongs'
p359
I30
sa(dp360
g354
S'perfect'
p361
sg355
I1
sg356
I3
sg357
I6
sg358
I21
sg359
I12
sa(dp362
g354
g361
sg355
I2
sg356
I1
sg357
I9
sg358
I29
sg359
I3
sa(dp363
g354
S'worst'
p364
sg355
I3
sg356
I2
sg357
I7
sg358
I25
sg359
I13
sa(dp365
g354
g361
sg355
I4
sg356
I1
sg357
I20
sg358
I29
sg359
I3
sa(dp366
g354
g364
sg355
I5
sg356
I2
sg357
I18
sg358
I25
sg359
I13
sa(dp367
g354
g361
sg355
I6
sg356
I1
sg357
I20
sg358
I29
sg359
I3
sa(dp368
g354
g364
sg355
I7
sg356
I2
sg357
I18
sg358
I25
sg359
I13
sa(dp369
g354
g361
sg355
I8
sg356
I1
sg357
I21
sg358
I33
sg359
I3
sa(dp370
g354
g364
sg355
I9
sg356
I2
sg357
I18
sg358
I29
sg359
I20
sa(dp371
g354
g361
sg355
I10
sg356
I2
sg357
I20
sg358
I33
sg359
I18
sa(dp372
g354
g361
sg355
I11
sg356
I1
sg357
I19
sg358
I33
sg359
I7
sa(dp373
g354
g361
sg355
I12
sg356
I0
sg357
I21
sg358
I37
sg359
I0
satRp374
(dp375
g40
I01
sg41
(lp376
g355
ag358
ag356
ag359
ag357
ag354
asg43
Nsg44
I0
sg45
g46
(g13
tRp377
sbsS'max_archive_size'
p378
NsS'solution_found_flag'
p379
I01
sS'time_taken'
p380
F196.52829003334045
sS'benchmark_name'
p381
S'M_A1'
p382
sa(dp383
S'tree_str'
p384
S'a1(a1(a1(a1(ARG2,a1(ARG2,a1(ARG2,ARG0))),ARG0),a1(a1(a1(ARG2,ARG1),ARG1),a1(ARG0,ARG1))),a1(a1(a1(a1(ARG1,a1(ARG0,ARG2)),a1(ARG0,a1(ARG1,ARG1))),ARG2),a1(ARG0,ARG1)))'
p385
sS'tree_len'
p386
I37
sS'archive_size'
p387
I12476
sS'number_of_operators'
p388
I18
sS'alg_name'
p389
S'small-LTI'
p390
sS'archive_tree_deapth'
p391
I3
sS'logbook'
p392
g12
(g13
g14
(lp393
(dp394
S'status'
p395
NsS'iteration'
p396
I0
sS'count_wrongs'
p397
I4
sS'picked_node'
p398
NsS'len_master_tree'
p399
I11
sS'total_wrongs'
p400
I30
sa(dp401
g395
S'perfect'
p402
sg396
I1
sg397
I3
sg398
I6
sg399
I21
sg400
I12
sa(dp403
g395
g402
sg396
I2
sg397
I1
sg398
I9
sg399
I29
sg400
I3
sa(dp404
g395
S'worst'
p405
sg396
I3
sg397
I2
sg398
I7
sg399
I25
sg400
I13
sa(dp406
g395
g402
sg396
I4
sg397
I1
sg398
I20
sg399
I29
sg400
I3
sa(dp407
g395
g405
sg396
I5
sg397
I2
sg398
I18
sg399
I25
sg400
I13
sa(dp408
g395
g402
sg396
I6
sg397
I1
sg398
I20
sg399
I29
sg400
I3
sa(dp409
g395
g405
sg396
I7
sg397
I2
sg398
I18
sg399
I25
sg400
I13
sa(dp410
g395
g402
sg396
I8
sg397
I1
sg398
I21
sg399
I33
sg400
I3
sa(dp411
g395
g405
sg396
I9
sg397
I2
sg398
I18
sg399
I29
sg400
I20
sa(dp412
g395
g402
sg396
I10
sg397
I1
sg398
I28
sg399
I33
sg400
I10
sa(dp413
g395
g402
sg396
I11
sg397
I0
sg398
I19
sg399
I37
sg400
I0
satRp414
(dp415
g40
I01
sg41
(lp416
g396
ag399
ag397
ag400
ag398
ag395
asg43
Nsg44
I0
sg45
g46
(g13
tRp417
sbsS'max_archive_size'
p418
NsS'solution_found_flag'
p419
I01
sS'time_taken'
p420
F182.03021097183228
sS'benchmark_name'
p421
S'M_A1'
p422
sa(dp423
S'tree_str'
p424
S'a1(a1(a1(a1(ARG2,a1(a1(ARG0,ARG0),a1(a1(ARG0,ARG0),ARG0))),ARG1),a1(a1(a1(a1(ARG1,ARG0),ARG2),a1(a1(ARG0,ARG1),ARG0)),ARG0)),a1(a1(a1(a1(ARG1,a1(ARG0,ARG2)),a1(ARG0,a1(ARG1,ARG1))),ARG2),a1(ARG0,ARG1)))'
p425
sS'tree_len'
p426
I45
sS'archive_size'
p427
I12476
sS'number_of_operators'
p428
I22
sS'alg_name'
p429
S'small-LTI'
p430
sS'archive_tree_deapth'
p431
I3
sS'logbook'
p432
g12
(g13
g14
(lp433
(dp434
S'status'
p435
NsS'iteration'
p436
I0
sS'count_wrongs'
p437
I4
sS'picked_node'
p438
NsS'len_master_tree'
p439
I11
sS'total_wrongs'
p440
I30
sa(dp441
g435
S'perfect'
p442
sg436
I1
sg437
I3
sg438
I6
sg439
I21
sg440
I12
sa(dp443
g435
g442
sg436
I2
sg437
I1
sg438
I9
sg439
I29
sg440
I3
sa(dp444
g435
S'worst'
p445
sg436
I3
sg437
I2
sg438
I7
sg439
I25
sg440
I13
sa(dp446
g435
g442
sg436
I4
sg437
I1
sg438
I20
sg439
I29
sg440
I3
sa(dp447
g435
g445
sg436
I5
sg437
I2
sg438
I18
sg439
I25
sg440
I13
sa(dp448
g435
g442
sg436
I6
sg437
I1
sg438
I20
sg439
I29
sg440
I3
sa(dp449
g435
g445
sg436
I7
sg437
I2
sg438
I18
sg439
I25
sg440
I13
sa(dp450
g435
g442
sg436
I8
sg437
I2
sg438
I23
sg439
I33
sg440
I8
sa(dp451
g435
g442
sg436
I9
sg437
I1
sg438
I21
sg439
I41
sg440
I3
sa(dp452
g435
g445
sg436
I10
sg437
I2
sg438
I18
sg439
I29
sg440
I17
sa(dp453
g435
g442
sg436
I11
sg437
I2
sg438
I21
sg439
I37
sg440
I14
sa(dp454
g435
g442
sg436
I12
sg437
I0
sg438
I25
sg439
I45
sg440
I0
satRp455
(dp456
g40
I01
sg41
(lp457
g436
ag439
ag437
ag440
ag438
ag435
asg43
Nsg44
I0
sg45
g46
(g13
tRp458
sbsS'max_archive_size'
p459
NsS'solution_found_flag'
p460
I01
sS'time_taken'
p461
F184.32024908065796
sS'benchmark_name'
p462
S'M_A1'
p463
sa(dp464
S'tree_str'
p465
S'a1(a1(a1(a1(ARG2,a1(ARG2,a1(ARG2,ARG0))),ARG0),a1(a1(a1(ARG2,ARG1),ARG1),a1(ARG0,ARG1))),a1(a1(a1(a1(ARG1,a1(ARG0,ARG2)),a1(ARG0,a1(ARG1,ARG1))),ARG2),a1(ARG0,ARG1)))'
p466
sS'tree_len'
p467
I37
sS'archive_size'
p468
I12476
sS'number_of_operators'
p469
I18
sS'alg_name'
p470
S'small-LTI'
p471
sS'archive_tree_deapth'
p472
I3
sS'logbook'
p473
g12
(g13
g14
(lp474
(dp475
S'status'
p476
NsS'iteration'
p477
I0
sS'count_wrongs'
p478
I4
sS'picked_node'
p479
NsS'len_master_tree'
p480
I11
sS'total_wrongs'
p481
I30
sa(dp482
g476
S'perfect'
p483
sg477
I1
sg478
I3
sg479
I6
sg480
I21
sg481
I12
sa(dp484
g476
g483
sg477
I2
sg478
I1
sg479
I9
sg480
I29
sg481
I3
sa(dp485
g476
S'worst'
p486
sg477
I3
sg478
I2
sg479
I7
sg480
I25
sg481
I13
sa(dp487
g476
g483
sg477
I4
sg478
I1
sg479
I20
sg480
I29
sg481
I3
sa(dp488
g476
g486
sg477
I5
sg478
I2
sg479
I18
sg480
I25
sg481
I13
sa(dp489
g476
g483
sg477
I6
sg478
I1
sg479
I20
sg480
I29
sg481
I3
sa(dp490
g476
g486
sg477
I7
sg478
I2
sg479
I18
sg480
I25
sg481
I13
sa(dp491
g476
g483
sg477
I8
sg478
I1
sg479
I21
sg480
I33
sg481
I3
sa(dp492
g476
g486
sg477
I9
sg478
I2
sg479
I18
sg480
I29
sg481
I20
sa(dp493
g476
g483
sg477
I10
sg478
I1
sg479
I28
sg480
I33
sg481
I10
sa(dp494
g476
g483
sg477
I11
sg478
I0
sg479
I19
sg480
I37
sg481
I0
satRp495
(dp496
g40
I01
sg41
(lp497
g477
ag480
ag478
ag481
ag479
ag476
asg43
Nsg44
I0
sg45
g46
(g13
tRp498
sbsS'max_archive_size'
p499
NsS'solution_found_flag'
p500
I01
sS'time_taken'
p501
F183.34031295776367
sS'benchmark_name'
p502
S'M_A1'
p503
sa(dp504
S'tree_str'
p505
S'a1(a1(a1(a1(ARG0,a1(ARG0,a1(ARG0,ARG2))),ARG2),a1(a1(a1(ARG0,ARG0),ARG1),a1(ARG0,ARG2))),a1(a1(a1(a1(ARG1,a1(ARG0,ARG2)),a1(ARG0,a1(ARG1,ARG1))),ARG2),a1(ARG0,ARG1)))'
p506
sS'tree_len'
p507
I37
sS'archive_size'
p508
I12476
sS'number_of_operators'
p509
I18
sS'alg_name'
p510
S'small-LTI'
p511
sS'archive_tree_deapth'
p512
I3
sS'logbook'
p513
g12
(g13
g14
(lp514
(dp515
S'status'
p516
NsS'iteration'
p517
I0
sS'count_wrongs'
p518
I4
sS'picked_node'
p519
NsS'len_master_tree'
p520
I11
sS'total_wrongs'
p521
I30
sa(dp522
g516
S'perfect'
p523
sg517
I1
sg518
I3
sg519
I6
sg520
I21
sg521
I12
sa(dp524
g516
g523
sg517
I2
sg518
I1
sg519
I9
sg520
I29
sg521
I3
sa(dp525
g516
S'worst'
p526
sg517
I3
sg518
I2
sg519
I7
sg520
I25
sg521
I13
sa(dp527
g516
g523
sg517
I4
sg518
I1
sg519
I20
sg520
I29
sg521
I3
sa(dp528
g516
g526
sg517
I5
sg518
I2
sg519
I18
sg520
I25
sg521
I13
sa(dp529
g516
g523
sg517
I6
sg518
I2
sg519
I24
sg520
I33
sg521
I8
sa(dp530
g516
g523
sg517
I7
sg518
I1
sg519
I21
sg520
I41
sg521
I3
sa(dp531
g516
g526
sg517
I8
sg518
I2
sg519
I18
sg520
I25
sg521
I13
sa(dp532
g516
g523
sg517
I9
sg518
I1
sg519
I20
sg520
I29
sg521
I3
sa(dp533
g516
g526
sg517
I10
sg518
I2
sg519
I18
sg520
I29
sg521
I20
sa(dp534
g516
g523
sg517
I11
sg518
I1
sg519
I19
sg520
I33
sg521
I7
sa(dp535
g516
g523
sg517
I12
sg518
I0
sg519
I23
sg520
I37
sg521
I0
satRp536
(dp537
g40
I01
sg41
(lp538
g517
ag520
ag518
ag521
ag519
ag516
asg43
Nsg44
I0
sg45
g46
(g13
tRp539
sbsS'max_archive_size'
p540
NsS'solution_found_flag'
p541
I01
sS'time_taken'
p542
F181.71577501296997
sS'benchmark_name'
p543
S'M_A1'
p544
sa(dp545
S'tree_str'
p546
S'a1(a1(a1(a1(ARG2,a1(a1(ARG0,ARG0),a1(a1(ARG0,ARG0),ARG0))),ARG1),a1(a1(ARG1,ARG0),ARG0)),a1(a1(a1(a1(ARG1,a1(ARG0,ARG2)),a1(ARG0,a1(ARG1,ARG1))),ARG2),a1(ARG0,ARG1)))'
p547
sS'tree_len'
p548
I37
sS'archive_size'
p549
I12476
sS'number_of_operators'
p550
I18
sS'alg_name'
p551
S'small-LTI'
p552
sS'archive_tree_deapth'
p553
I3
sS'logbook'
p554
g12
(g13
g14
(lp555
(dp556
S'status'
p557
NsS'iteration'
p558
I0
sS'count_wrongs'
p559
I4
sS'picked_node'
p560
NsS'len_master_tree'
p561
I11
sS'total_wrongs'
p562
I30
sa(dp563
g557
S'perfect'
p564
sg558
I1
sg559
I3
sg560
I6
sg561
I21
sg562
I12
sa(dp565
g557
g564
sg558
I2
sg559
I1
sg560
I9
sg561
I29
sg562
I3
sa(dp566
g557
S'worst'
p567
sg558
I3
sg559
I2
sg560
I7
sg561
I25
sg562
I13
sa(dp568
g557
g564
sg558
I4
sg559
I1
sg560
I20
sg561
I29
sg562
I3
sa(dp569
g557
g567
sg558
I5
sg559
I2
sg560
I18
sg561
I25
sg562
I13
sa(dp570
g557
g564
sg558
I6
sg559
I1
sg560
I21
sg561
I33
sg562
I3
sa(dp571
g557
g567
sg558
I7
sg559
I2
sg560
I18
sg561
I25
sg562
I13
sa(dp572
g557
g564
sg558
I8
sg559
I1
sg560
I20
sg561
I29
sg562
I3
sa(dp573
g557
g567
sg558
I9
sg559
I2
sg560
I18
sg561
I29
sg562
I17
sa(dp574
g557
g564
sg558
I10
sg559
I0
sg560
I28
sg561
I37
sg562
I0
satRp575
(dp576
g40
I01
sg41
(lp577
g558
ag561
ag559
ag562
ag560
ag557
asg43
Nsg44
I0
sg45
g46
(g13
tRp578
sbsS'max_archive_size'
p579
NsS'solution_found_flag'
p580
I01
sS'time_taken'
p581
F181.87806105613708
sS'benchmark_name'
p582
S'M_A1'
p583
sa(dp584
S'tree_str'
p585
S'a1(a1(a1(a1(ARG2,a1(ARG2,a1(ARG0,ARG2))),ARG0),a1(a1(a1(ARG2,ARG1),ARG1),a1(ARG0,ARG1))),a1(a1(a1(a1(ARG1,a1(ARG0,ARG2)),a1(ARG0,a1(ARG1,ARG1))),ARG2),a1(ARG0,ARG1)))'
p586
sS'tree_len'
p587
I37
sS'archive_size'
p588
I12476
sS'number_of_operators'
p589
I18
sS'alg_name'
p590
S'small-LTI'
p591
sS'archive_tree_deapth'
p592
I3
sS'logbook'
p593
g12
(g13
g14
(lp594
(dp595
S'status'
p596
NsS'iteration'
p597
I0
sS'count_wrongs'
p598
I4
sS'picked_node'
p599
NsS'len_master_tree'
p600
I11
sS'total_wrongs'
p601
I30
sa(dp602
g596
S'perfect'
p603
sg597
I1
sg598
I3
sg599
I6
sg600
I21
sg601
I12
sa(dp604
g596
g603
sg597
I2
sg598
I1
sg599
I9
sg600
I29
sg601
I3
sa(dp605
g596
S'worst'
p606
sg597
I3
sg598
I2
sg599
I7
sg600
I25
sg601
I13
sa(dp607
g596
g603
sg597
I4
sg598
I1
sg599
I20
sg600
I29
sg601
I3
sa(dp608
g596
g606
sg597
I5
sg598
I2
sg599
I18
sg600
I25
sg601
I13
sa(dp609
g596
g603
sg597
I6
sg598
I2
sg599
I24
sg600
I33
sg601
I8
sa(dp610
g596
g603
sg597
I7
sg598
I1
sg599
I21
sg600
I41
sg601
I3
sa(dp611
g596
g606
sg597
I8
sg598
I2
sg599
I18
sg600
I25
sg601
I13
sa(dp612
g596
g603
sg597
I9
sg598
I1
sg599
I20
sg600
I29
sg601
I3
sa(dp613
g596
g606
sg597
I10
sg598
I2
sg599
I18
sg600
I29
sg601
I20
sa(dp614
g596
g603
sg597
I11
sg598
I1
sg599
I19
sg600
I33
sg601
I7
sa(dp615
g596
g603
sg597
I12
sg598
I0
sg599
I21
sg600
I37
sg601
I0
satRp616
(dp617
g40
I01
sg41
(lp618
g597
ag600
ag598
ag601
ag599
ag596
asg43
Nsg44
I0
sg45
g46
(g13
tRp619
sbsS'max_archive_size'
p620
NsS'solution_found_flag'
p621
I01
sS'time_taken'
p622
F205.89396405220032
sS'benchmark_name'
p623
S'M_A1'
p624
sa(dp625
S'tree_str'
p626
S'a1(a1(a1(a1(ARG2,a1(ARG2,a1(ARG0,ARG2))),ARG0),a1(a1(a1(ARG2,ARG1),ARG1),a1(ARG0,ARG1))),a1(a1(a1(a1(ARG1,a1(ARG0,ARG2)),a1(ARG0,a1(ARG1,ARG1))),ARG2),a1(ARG0,ARG1)))'
p627
sS'tree_len'
p628
I37
sS'archive_size'
p629
I12476
sS'number_of_operators'
p630
I18
sS'alg_name'
p631
S'small-LTI'
p632
sS'archive_tree_deapth'
p633
I3
sS'logbook'
p634
g12
(g13
g14
(lp635
(dp636
S'status'
p637
NsS'iteration'
p638
I0
sS'count_wrongs'
p639
I4
sS'picked_node'
p640
NsS'len_master_tree'
p641
I11
sS'total_wrongs'
p642
I30
sa(dp643
g637
S'perfect'
p644
sg638
I1
sg639
I3
sg640
I6
sg641
I21
sg642
I12
sa(dp645
g637
g644
sg638
I2
sg639
I1
sg640
I9
sg641
I29
sg642
I3
sa(dp646
g637
S'worst'
p647
sg638
I3
sg639
I2
sg640
I7
sg641
I25
sg642
I13
sa(dp648
g637
g644
sg638
I4
sg639
I1
sg640
I20
sg641
I29
sg642
I3
sa(dp649
g637
g647
sg638
I5
sg639
I2
sg640
I18
sg641
I25
sg642
I13
sa(dp650
g637
g644
sg638
I6
sg639
I1
sg640
I20
sg641
I29
sg642
I3
sa(dp651
g637
g647
sg638
I7
sg639
I2
sg640
I18
sg641
I25
sg642
I13
sa(dp652
g637
g644
sg638
I8
sg639
I2
sg640
I23
sg641
I33
sg642
I8
sa(dp653
g637
g644
sg638
I9
sg639
I1
sg640
I21
sg641
I41
sg642
I3
sa(dp654
g637
g647
sg638
I10
sg639
I2
sg640
I18
sg641
I29
sg642
I20
sa(dp655
g637
g644
sg638
I11
sg639
I1
sg640
I19
sg641
I33
sg642
I7
sa(dp656
g637
g644
sg638
I12
sg639
I0
sg640
I23
sg641
I37
sg642
I0
satRp657
(dp658
g40
I01
sg41
(lp659
g638
ag641
ag639
ag642
ag640
ag637
asg43
Nsg44
I0
sg45
g46
(g13
tRp660
sbsS'max_archive_size'
p661
NsS'solution_found_flag'
p662
I01
sS'time_taken'
p663
F206.95442676544189
sS'benchmark_name'
p664
S'M_A1'
p665
sa(dp666
S'tree_str'
p667
S'a1(a1(a1(a1(a1(a1(ARG0,ARG2),a1(a1(ARG2,ARG0),ARG2)),ARG0),ARG1),a1(a1(a1(a1(ARG1,ARG0),ARG2),a1(a1(ARG0,ARG1),ARG0)),ARG0)),a1(a1(a1(a1(ARG1,a1(ARG0,ARG2)),a1(ARG0,a1(ARG1,ARG1))),ARG2),a1(ARG0,ARG1)))'
p668
sS'tree_len'
p669
I45
sS'archive_size'
p670
I12476
sS'number_of_operators'
p671
I22
sS'alg_name'
p672
S'small-LTI'
p673
sS'archive_tree_deapth'
p674
I3
sS'logbook'
p675
g12
(g13
g14
(lp676
(dp677
S'status'
p678
NsS'iteration'
p679
I0
sS'count_wrongs'
p680
I4
sS'picked_node'
p681
NsS'len_master_tree'
p682
I11
sS'total_wrongs'
p683
I30
sa(dp684
g678
S'perfect'
p685
sg679
I1
sg680
I3
sg681
I6
sg682
I21
sg683
I12
sa(dp686
g678
g685
sg679
I2
sg680
I1
sg681
I9
sg682
I29
sg683
I3
sa(dp687
g678
S'worst'
p688
sg679
I3
sg680
I2
sg681
I7
sg682
I25
sg683
I13
sa(dp689
g678
g685
sg679
I4
sg680
I1
sg681
I20
sg682
I29
sg683
I3
sa(dp690
g678
g688
sg679
I5
sg680
I2
sg681
I18
sg682
I25
sg683
I13
sa(dp691
g678
g685
sg679
I6
sg680
I2
sg681
I23
sg682
I33
sg683
I8
sa(dp692
g678
g685
sg679
I7
sg680
I1
sg681
I21
sg682
I41
sg683
I3
sa(dp693
g678
g688
sg679
I8
sg680
I2
sg681
I18
sg682
I25
sg683
I13
sa(dp694
g678
g685
sg679
I9
sg680
I1
sg681
I20
sg682
I29
sg683
I3
sa(dp695
g678
g688
sg679
I10
sg680
I2
sg681
I18
sg682
I29
sg683
I17
sa(dp696
g678
g685
sg679
I11
sg680
I2
sg681
I21
sg682
I37
sg683
I14
sa(dp697
g678
g685
sg679
I12
sg680
I0
sg681
I24
sg682
I45
sg683
I0
satRp698
(dp699
g40
I01
sg41
(lp700
g679
ag682
ag680
ag683
ag681
ag678
asg43
Nsg44
I0
sg45
g46
(g13
tRp701
sbsS'max_archive_size'
p702
NsS'solution_found_flag'
p703
I01
sS'time_taken'
p704
F209.11940479278564
sS'benchmark_name'
p705
S'M_A1'
p706
sa(dp707
S'tree_str'
p708
S'a1(a1(a1(a1(ARG0,a1(ARG0,a1(ARG0,ARG2))),ARG2),a1(a1(a1(ARG0,ARG0),ARG1),a1(ARG0,ARG2))),a1(a1(a1(a1(ARG1,a1(ARG0,ARG2)),a1(ARG0,a1(ARG1,ARG1))),ARG2),a1(ARG0,ARG1)))'
p709
sS'tree_len'
p710
I37
sS'archive_size'
p711
I12476
sS'number_of_operators'
p712
I18
sS'alg_name'
p713
S'small-LTI'
p714
sS'archive_tree_deapth'
p715
I3
sS'logbook'
p716
g12
(g13
g14
(lp717
(dp718
S'status'
p719
NsS'iteration'
p720
I0
sS'count_wrongs'
p721
I4
sS'picked_node'
p722
NsS'len_master_tree'
p723
I11
sS'total_wrongs'
p724
I30
sa(dp725
g719
S'perfect'
p726
sg720
I1
sg721
I3
sg722
I6
sg723
I21
sg724
I12
sa(dp727
g719
g726
sg720
I2
sg721
I1
sg722
I9
sg723
I29
sg724
I3
sa(dp728
g719
S'worst'
p729
sg720
I3
sg721
I2
sg722
I7
sg723
I25
sg724
I13
sa(dp730
g719
g726
sg720
I4
sg721
I1
sg722
I20
sg723
I29
sg724
I3
sa(dp731
g719
g729
sg720
I5
sg721
I2
sg722
I18
sg723
I25
sg724
I13
sa(dp732
g719
g726
sg720
I6
sg721
I2
sg722
I24
sg723
I33
sg724
I8
sa(dp733
g719
g726
sg720
I7
sg721
I1
sg722
I21
sg723
I41
sg724
I3
sa(dp734
g719
g729
sg720
I8
sg721
I2
sg722
I18
sg723
I25
sg724
I13
sa(dp735
g719
g726
sg720
I9
sg721
I1
sg722
I20
sg723
I29
sg724
I3
sa(dp736
g719
g729
sg720
I10
sg721
I2
sg722
I18
sg723
I29
sg724
I20
sa(dp737
g719
g726
sg720
I11
sg721
I1
sg722
I19
sg723
I33
sg724
I7
sa(dp738
g719
g726
sg720
I12
sg721
I0
sg722
I21
sg723
I37
sg724
I0
satRp739
(dp740
g40
I01
sg41
(lp741
g720
ag723
ag721
ag724
ag722
ag719
asg43
Nsg44
I0
sg45
g46
(g13
tRp742
sbsS'max_archive_size'
p743
NsS'solution_found_flag'
p744
I01
sS'time_taken'
p745
F213.24087905883789
sS'benchmark_name'
p746
S'M_A1'
p747
sa(dp748
S'tree_str'
p749
S'a1(a1(a1(a1(ARG2,a1(ARG2,a1(ARG0,ARG2))),ARG0),a1(a1(a1(ARG2,ARG1),ARG1),a1(ARG0,ARG1))),a1(a1(a1(a1(ARG1,a1(ARG0,ARG2)),a1(ARG0,a1(ARG1,ARG1))),ARG2),a1(ARG0,ARG1)))'
p750
sS'tree_len'
p751
I37
sS'archive_size'
p752
I12476
sS'number_of_operators'
p753
I18
sS'alg_name'
p754
S'small-LTI'
p755
sS'archive_tree_deapth'
p756
I3
sS'logbook'
p757
g12
(g13
g14
(lp758
(dp759
S'status'
p760
NsS'iteration'
p761
I0
sS'count_wrongs'
p762
I4
sS'picked_node'
p763
NsS'len_master_tree'
p764
I11
sS'total_wrongs'
p765
I30
sa(dp766
g760
S'perfect'
p767
sg761
I1
sg762
I3
sg763
I6
sg764
I21
sg765
I12
sa(dp768
g760
g767
sg761
I2
sg762
I1
sg763
I9
sg764
I29
sg765
I3
sa(dp769
g760
S'worst'
p770
sg761
I3
sg762
I2
sg763
I7
sg764
I25
sg765
I13
sa(dp771
g760
g767
sg761
I4
sg762
I1
sg763
I20
sg764
I29
sg765
I3
sa(dp772
g760
g770
sg761
I5
sg762
I2
sg763
I18
sg764
I25
sg765
I13
sa(dp773
g760
g767
sg761
I6
sg762
I1
sg763
I20
sg764
I29
sg765
I3
sa(dp774
g760
g770
sg761
I7
sg762
I2
sg763
I18
sg764
I25
sg765
I13
sa(dp775
g760
g767
sg761
I8
sg762
I2
sg763
I24
sg764
I33
sg765
I8
sa(dp776
g760
g767
sg761
I9
sg762
I1
sg763
I21
sg764
I41
sg765
I3
sa(dp777
g760
g770
sg761
I10
sg762
I2
sg763
I18
sg764
I29
sg765
I20
sa(dp778
g760
g767
sg761
I11
sg762
I1
sg763
I19
sg764
I33
sg765
I7
sa(dp779
g760
g767
sg761
I12
sg762
I0
sg763
I21
sg764
I37
sg765
I0
satRp780
(dp781
g40
I01
sg41
(lp782
g761
ag764
ag762
ag765
ag763
ag760
asg43
Nsg44
I0
sg45
g46
(g13
tRp783
sbsS'max_archive_size'
p784
NsS'solution_found_flag'
p785
I01
sS'time_taken'
p786
F212.89447402954102
sS'benchmark_name'
p787
S'M_A1'
p788
sa(dp789
S'tree_str'
p790
S'a1(a1(a1(a1(ARG0,a1(ARG0,a1(ARG0,ARG2))),ARG2),a1(a1(a1(ARG0,ARG0),ARG1),a1(ARG0,ARG2))),a1(a1(a1(a1(ARG1,a1(ARG0,ARG2)),a1(ARG0,a1(ARG1,ARG1))),ARG2),a1(ARG0,ARG1)))'
p791
sS'tree_len'
p792
I37
sS'archive_size'
p793
I12476
sS'number_of_operators'
p794
I18
sS'alg_name'
p795
S'small-LTI'
p796
sS'archive_tree_deapth'
p797
I3
sS'logbook'
p798
g12
(g13
g14
(lp799
(dp800
S'status'
p801
NsS'iteration'
p802
I0
sS'count_wrongs'
p803
I4
sS'picked_node'
p804
NsS'len_master_tree'
p805
I11
sS'total_wrongs'
p806
I30
sa(dp807
g801
S'perfect'
p808
sg802
I1
sg803
I3
sg804
I6
sg805
I21
sg806
I12
sa(dp809
g801
g808
sg802
I2
sg803
I1
sg804
I9
sg805
I29
sg806
I3
sa(dp810
g801
S'worst'
p811
sg802
I3
sg803
I2
sg804
I7
sg805
I25
sg806
I13
sa(dp812
g801
g808
sg802
I4
sg803
I1
sg804
I20
sg805
I29
sg806
I3
sa(dp813
g801
g811
sg802
I5
sg803
I2
sg804
I18
sg805
I25
sg806
I13
sa(dp814
g801
g808
sg802
I6
sg803
I2
sg804
I24
sg805
I33
sg806
I8
sa(dp815
g801
g808
sg802
I7
sg803
I1
sg804
I21
sg805
I41
sg806
I3
sa(dp816
g801
g811
sg802
I8
sg803
I2
sg804
I18
sg805
I25
sg806
I13
sa(dp817
g801
g808
sg802
I9
sg803
I1
sg804
I20
sg805
I29
sg806
I3
sa(dp818
g801
g811
sg802
I10
sg803
I2
sg804
I18
sg805
I29
sg806
I20
sa(dp819
g801
g808
sg802
I11
sg803
I1
sg804
I28
sg805
I33
sg806
I10
sa(dp820
g801
g808
sg802
I12
sg803
I0
sg804
I19
sg805
I37
sg806
I0
satRp821
(dp822
g40
I01
sg41
(lp823
g802
ag805
ag803
ag806
ag804
ag801
asg43
Nsg44
I0
sg45
g46
(g13
tRp824
sbsS'max_archive_size'
p825
NsS'solution_found_flag'
p826
I01
sS'time_taken'
p827
F212.57687997817993
sS'benchmark_name'
p828
S'M_A1'
p829
sa.