(lp1
(dp2
S'tree_str'
p3
S'a2(a2(a2(a2(ARG1,ARG0),a2(ARG0,ARG0)),a2(a2(ARG2,ARG2),ARG1)),a2(a2(a2(ARG0,a2(ARG0,ARG1)),a2(a2(a2(ARG1,ARG1),ARG0),a2(ARG0,a2(ARG1,ARG1)))),a2(a2(a2(ARG1,ARG2),a2(ARG1,ARG0)),a2(a2(ARG2,ARG2),ARG2))))'
p4
sS'tree_len'
p5
I45
sS'archive_size'
p6
I16244
sS'number_of_operators'
p7
I22
sS'alg_name'
p8
S'small-LTI'
p9
sS'archive_tree_deapth'
p10
I3
sS'logbook'
p11
ccopy_reg
_reconstructor
p12
(ctreeimprove.utilities
Logbook
p13
c__builtin__
list
p14
(lp15
(dp16
S'status'
p17
NsS'iteration'
p18
I0
sS'count_wrongs'
p19
I4
sS'picked_node'
p20
NsS'len_master_tree'
p21
I9
sS'total_wrongs'
p22
I24
sa(dp23
g17
S'perfect'
p24
sg18
I1
sg19
I4
sg20
I4
sg21
I17
sg22
I15
sa(dp25
g17
S'better'
p26
sg18
I2
sg19
I2
sg20
I2
sg21
I25
sg22
I10
sa(dp27
g17
g24
sg18
I3
sg19
I2
sg20
I18
sg21
I29
sg22
I9
sa(dp28
g17
g24
sg18
I4
sg19
I1
sg20
I17
sg21
I33
sg22
I3
sa(dp29
g17
g24
sg18
I5
sg19
I0
sg20
I2
sg21
I45
sg22
I0
satRp30
(dp31
S'log_header'
p32
I01
sS'header'
p33
(lp34
g18
ag21
ag19
ag22
ag20
ag17
asS'columns_len'
p35
NsS'buffindex'
p36
I0
sS'chapters'
p37
ccollections
defaultdict
p38
(g13
tRp39
sbsS'max_archive_size'
p40
NsS'solution_found_flag'
p41
I01
sS'time_taken'
p42
F247.88894820213318
sS'benchmark_name'
p43
S'M_A2'
p44
sa(dp45
S'tree_str'
p46
S'a2(a2(ARG2,a2(a2(ARG0,a2(ARG2,ARG0)),a2(ARG2,a2(ARG1,ARG2)))),a2(a2(a2(ARG0,a2(ARG0,ARG1)),a2(a2(a2(ARG1,ARG1),ARG0),a2(ARG0,a2(ARG1,ARG1)))),a2(a2(a2(ARG1,ARG2),a2(ARG1,ARG0)),a2(a2(ARG2,ARG2),ARG2))))'
p47
sS'tree_len'
p48
I45
sS'archive_size'
p49
I16244
sS'number_of_operators'
p50
I22
sS'alg_name'
p51
S'small-LTI'
p52
sS'archive_tree_deapth'
p53
I3
sS'logbook'
p54
g12
(g13
g14
(lp55
(dp56
S'status'
p57
NsS'iteration'
p58
I0
sS'count_wrongs'
p59
I4
sS'picked_node'
p60
NsS'len_master_tree'
p61
I9
sS'total_wrongs'
p62
I24
sa(dp63
g57
S'perfect'
p64
sg58
I1
sg59
I4
sg60
I6
sg61
I17
sg62
I15
sa(dp65
g57
S'better'
p66
sg58
I2
sg59
I2
sg60
I2
sg61
I25
sg62
I10
sa(dp67
g57
g64
sg58
I3
sg59
I1
sg60
I17
sg61
I33
sg62
I3
sa(dp68
g57
g64
sg58
I4
sg59
I0
sg60
I2
sg61
I45
sg62
I0
satRp69
(dp70
g32
I01
sg33
(lp71
g58
ag61
ag59
ag62
ag60
ag57
asg35
Nsg36
I0
sg37
g38
(g13
tRp72
sbsS'max_archive_size'
p73
NsS'solution_found_flag'
p74
I01
sS'time_taken'
p75
F250.58292102813721
sS'benchmark_name'
p76
S'M_A2'
p77
sa(dp78
S'tree_str'
p79
S'a2(a2(ARG2,a2(a2(ARG0,a2(ARG2,ARG0)),a2(ARG2,a2(ARG1,ARG2)))),a2(a2(a2(ARG0,a2(ARG0,ARG1)),a2(a2(a2(ARG1,ARG1),ARG0),a2(ARG0,a2(ARG1,ARG1)))),a2(a2(a2(ARG1,ARG2),a2(ARG1,ARG0)),a2(a2(ARG2,ARG2),ARG2))))'
p80
sS'tree_len'
p81
I45
sS'archive_size'
p82
I16244
sS'number_of_operators'
p83
I22
sS'alg_name'
p84
S'small-LTI'
p85
sS'archive_tree_deapth'
p86
I3
sS'logbook'
p87
g12
(g13
g14
(lp88
(dp89
S'status'
p90
NsS'iteration'
p91
I0
sS'count_wrongs'
p92
I4
sS'picked_node'
p93
NsS'len_master_tree'
p94
I9
sS'total_wrongs'
p95
I24
sa(dp96
g90
S'perfect'
p97
sg91
I1
sg92
I4
sg93
I6
sg94
I17
sg95
I15
sa(dp98
g90
S'better'
p99
sg91
I2
sg92
I2
sg93
I2
sg94
I25
sg95
I10
sa(dp100
g90
g97
sg91
I3
sg92
I1
sg93
I17
sg94
I33
sg95
I3
sa(dp101
g90
g97
sg91
I4
sg92
I0
sg93
I2
sg94
I45
sg95
I0
satRp102
(dp103
g32
I01
sg33
(lp104
g91
ag94
ag92
ag95
ag93
ag90
asg35
Nsg36
I0
sg37
g38
(g13
tRp105
sbsS'max_archive_size'
p106
NsS'solution_found_flag'
p107
I01
sS'time_taken'
p108
F232.67071485519409
sS'benchmark_name'
p109
S'M_A2'
p110
sa(dp111
S'tree_str'
p112
S'a2(a2(a2(a2(ARG1,ARG0),a2(ARG0,ARG0)),a2(a2(ARG2,ARG2),ARG1)),a2(a2(a2(ARG0,a2(ARG0,ARG1)),a2(a2(a2(ARG1,ARG1),ARG0),a2(ARG0,a2(ARG1,ARG1)))),a2(a2(a2(ARG1,ARG2),a2(ARG1,ARG0)),a2(a2(ARG2,ARG2),ARG2))))'
p113
sS'tree_len'
p114
I45
sS'archive_size'
p115
I16244
sS'number_of_operators'
p116
I22
sS'alg_name'
p117
S'small-LTI'
p118
sS'archive_tree_deapth'
p119
I3
sS'logbook'
p120
g12
(g13
g14
(lp121
(dp122
S'status'
p123
NsS'iteration'
p124
I0
sS'count_wrongs'
p125
I4
sS'picked_node'
p126
NsS'len_master_tree'
p127
I9
sS'total_wrongs'
p128
I24
sa(dp129
g123
S'perfect'
p130
sg124
I1
sg125
I4
sg126
I4
sg127
I17
sg128
I15
sa(dp131
g123
S'better'
p132
sg124
I2
sg125
I2
sg126
I2
sg127
I25
sg128
I10
sa(dp133
g123
g130
sg124
I3
sg125
I2
sg126
I18
sg127
I29
sg128
I9
sa(dp134
g123
g130
sg124
I4
sg125
I1
sg126
I17
sg127
I33
sg128
I3
sa(dp135
g123
g130
sg124
I5
sg125
I0
sg126
I2
sg127
I45
sg128
I0
satRp136
(dp137
g32
I01
sg33
(lp138
g124
ag127
ag125
ag128
ag126
ag123
asg35
Nsg36
I0
sg37
g38
(g13
tRp139
sbsS'max_archive_size'
p140
NsS'solution_found_flag'
p141
I01
sS'time_taken'
p142
F251.53269100189209
sS'benchmark_name'
p143
S'M_A2'
p144
sa(dp145
S'tree_str'
p146
S'a2(a2(a2(a2(ARG1,ARG0),a2(ARG0,ARG0)),a2(a2(ARG2,ARG2),ARG1)),a2(a2(a2(ARG0,a2(ARG0,ARG2)),a2(a2(a2(ARG1,ARG1),ARG0),a2(ARG0,a2(ARG1,ARG1)))),a2(a2(a2(ARG1,ARG2),a2(ARG2,ARG0)),a2(a2(ARG1,ARG1),ARG2))))'
p147
sS'tree_len'
p148
I45
sS'archive_size'
p149
I16244
sS'number_of_operators'
p150
I22
sS'alg_name'
p151
S'small-LTI'
p152
sS'archive_tree_deapth'
p153
I3
sS'logbook'
p154
g12
(g13
g14
(lp155
(dp156
S'status'
p157
NsS'iteration'
p158
I0
sS'count_wrongs'
p159
I4
sS'picked_node'
p160
NsS'len_master_tree'
p161
I9
sS'total_wrongs'
p162
I24
sa(dp163
g157
S'perfect'
p164
sg158
I1
sg159
I4
sg160
I4
sg161
I17
sg162
I15
sa(dp165
g157
S'better'
p166
sg158
I2
sg159
I2
sg160
I2
sg161
I25
sg162
I10
sa(dp167
g157
g164
sg158
I3
sg159
I2
sg160
I18
sg161
I29
sg162
I9
sa(dp168
g157
g164
sg158
I4
sg159
I1
sg160
I17
sg161
I33
sg162
I3
sa(dp169
g157
g164
sg158
I5
sg159
I0
sg160
I2
sg161
I45
sg162
I0
satRp170
(dp171
g32
I01
sg33
(lp172
g158
ag161
ag159
ag162
ag160
ag157
asg35
Nsg36
I0
sg37
g38
(g13
tRp173
sbsS'max_archive_size'
p174
NsS'solution_found_flag'
p175
I01
sS'time_taken'
p176
F233.79148197174072
sS'benchmark_name'
p177
S'M_A2'
p178
sa(dp179
S'tree_str'
p180
S'a2(a2(a2(a2(ARG1,ARG0),a2(ARG0,ARG0)),a2(a2(ARG2,ARG2),ARG1)),a2(a2(a2(ARG0,a2(ARG0,ARG2)),a2(a2(ARG1,a2(ARG2,ARG1)),a2(a2(ARG2,ARG0),ARG2))),a2(a2(a2(ARG2,ARG2),a2(ARG2,ARG0)),a2(a2(ARG2,ARG0),ARG2))))'
p181
sS'tree_len'
p182
I45
sS'archive_size'
p183
I16244
sS'number_of_operators'
p184
I22
sS'alg_name'
p185
S'small-LTI'
p186
sS'archive_tree_deapth'
p187
I3
sS'logbook'
p188
g12
(g13
g14
(lp189
(dp190
S'status'
p191
NsS'iteration'
p192
I0
sS'count_wrongs'
p193
I4
sS'picked_node'
p194
NsS'len_master_tree'
p195
I9
sS'total_wrongs'
p196
I24
sa(dp197
g191
S'perfect'
p198
sg192
I1
sg193
I4
sg194
I4
sg195
I17
sg196
I15
sa(dp199
g191
S'better'
p200
sg192
I2
sg193
I2
sg194
I2
sg195
I25
sg196
I10
sa(dp201
g191
g198
sg192
I3
sg193
I2
sg194
I18
sg195
I29
sg196
I9
sa(dp202
g191
g198
sg192
I4
sg193
I1
sg194
I18
sg195
I33
sg196
I3
sa(dp203
g191
g198
sg192
I5
sg193
I0
sg194
I2
sg195
I45
sg196
I0
satRp204
(dp205
g32
I01
sg33
(lp206
g192
ag195
ag193
ag196
ag194
ag191
asg35
Nsg36
I0
sg37
g38
(g13
tRp207
sbsS'max_archive_size'
p208
NsS'solution_found_flag'
p209
I01
sS'time_taken'
p210
F250.09283709526062
sS'benchmark_name'
p211
S'M_A2'
p212
sa(dp213
S'tree_str'
p214
S'a2(a2(a2(a2(ARG1,ARG0),a2(ARG0,ARG0)),a2(a2(ARG2,ARG2),ARG1)),a2(a2(a2(ARG0,a2(ARG0,ARG1)),a2(a2(ARG1,a2(ARG2,ARG2)),a2(ARG1,a2(ARG1,ARG0)))),a2(a2(a2(ARG1,ARG2),a2(ARG1,ARG0)),a2(ARG0,ARG2))))'
p215
sS'tree_len'
p216
I43
sS'archive_size'
p217
I16244
sS'number_of_operators'
p218
I21
sS'alg_name'
p219
S'small-LTI'
p220
sS'archive_tree_deapth'
p221
I3
sS'logbook'
p222
g12
(g13
g14
(lp223
(dp224
S'status'
p225
NsS'iteration'
p226
I0
sS'count_wrongs'
p227
I4
sS'picked_node'
p228
NsS'len_master_tree'
p229
I9
sS'total_wrongs'
p230
I24
sa(dp231
g225
S'perfect'
p232
sg226
I1
sg227
I4
sg228
I4
sg229
I17
sg230
I15
sa(dp233
g225
S'better'
p234
sg226
I2
sg227
I2
sg228
I2
sg229
I25
sg230
I10
sa(dp235
g225
g232
sg226
I3
sg227
I2
sg228
I18
sg229
I29
sg230
I9
sa(dp236
g225
g232
sg226
I4
sg227
I1
sg228
I18
sg229
I33
sg230
I3
sa(dp237
g225
g232
sg226
I5
sg227
I0
sg228
I2
sg229
I43
sg230
I0
satRp238
(dp239
g32
I01
sg33
(lp240
g226
ag229
ag227
ag230
ag228
ag225
asg35
Nsg36
I0
sg37
g38
(g13
tRp241
sbsS'max_archive_size'
p242
NsS'solution_found_flag'
p243
I01
sS'time_taken'
p244
F233.85972213745117
sS'benchmark_name'
p245
S'M_A2'
p246
sa(dp247
S'tree_str'
p248
S'a2(a2(ARG2,a2(a2(ARG0,a2(ARG2,ARG0)),a2(ARG2,a2(ARG1,ARG2)))),a2(a2(a2(ARG0,a2(ARG0,ARG1)),a2(a2(a2(ARG1,ARG1),ARG0),a2(ARG0,a2(ARG1,ARG1)))),a2(a2(a2(ARG1,ARG2),a2(ARG1,ARG0)),a2(a2(ARG2,ARG2),ARG2))))'
p249
sS'tree_len'
p250
I45
sS'archive_size'
p251
I16244
sS'number_of_operators'
p252
I22
sS'alg_name'
p253
S'small-LTI'
p254
sS'archive_tree_deapth'
p255
I3
sS'logbook'
p256
g12
(g13
g14
(lp257
(dp258
S'status'
p259
NsS'iteration'
p260
I0
sS'count_wrongs'
p261
I4
sS'picked_node'
p262
NsS'len_master_tree'
p263
I9
sS'total_wrongs'
p264
I24
sa(dp265
g259
S'perfect'
p266
sg260
I1
sg261
I4
sg262
I6
sg263
I17
sg264
I15
sa(dp267
g259
S'better'
p268
sg260
I2
sg261
I2
sg262
I2
sg263
I25
sg264
I10
sa(dp269
g259
g266
sg260
I3
sg261
I1
sg262
I17
sg263
I33
sg264
I3
sa(dp270
g259
g266
sg260
I4
sg261
I0
sg262
I2
sg263
I45
sg264
I0
satRp271
(dp272
g32
I01
sg33
(lp273
g260
ag263
ag261
ag264
ag262
ag259
asg35
Nsg36
I0
sg37
g38
(g13
tRp274
sbsS'max_archive_size'
p275
NsS'solution_found_flag'
p276
I01
sS'time_taken'
p277
F232.66271805763245
sS'benchmark_name'
p278
S'M_A2'
p279
sa(dp280
S'tree_str'
p281
S'a2(a2(ARG2,a2(a2(ARG0,a2(ARG2,ARG0)),a2(ARG2,a2(ARG1,ARG2)))),a2(a2(a2(a2(a2(ARG1,ARG1),a2(ARG1,ARG0)),a2(ARG1,ARG0)),a2(a2(ARG2,a2(ARG1,ARG2)),a2(ARG1,ARG0))),a2(a2(a2(ARG1,ARG2),a2(ARG1,ARG0)),a2(ARG0,ARG2))))'
p282
sS'tree_len'
p283
I47
sS'archive_size'
p284
I16244
sS'number_of_operators'
p285
I23
sS'alg_name'
p286
S'small-LTI'
p287
sS'archive_tree_deapth'
p288
I3
sS'logbook'
p289
g12
(g13
g14
(lp290
(dp291
S'status'
p292
NsS'iteration'
p293
I0
sS'count_wrongs'
p294
I4
sS'picked_node'
p295
NsS'len_master_tree'
p296
I9
sS'total_wrongs'
p297
I24
sa(dp298
g292
S'perfect'
p299
sg293
I1
sg294
I4
sg295
I6
sg296
I17
sg297
I15
sa(dp300
g292
S'better'
p301
sg293
I2
sg294
I2
sg295
I2
sg296
I25
sg297
I12
sa(dp302
g292
g299
sg293
I3
sg294
I2
sg295
I17
sg296
I29
sg297
I10
sa(dp303
g292
g299
sg293
I4
sg294
I1
sg295
I17
sg296
I37
sg297
I3
sa(dp304
g292
g299
sg293
I5
sg294
I0
sg295
I2
sg296
I47
sg297
I0
satRp305
(dp306
g32
I01
sg33
(lp307
g293
ag296
ag294
ag297
ag295
ag292
asg35
Nsg36
I0
sg37
g38
(g13
tRp308
sbsS'max_archive_size'
p309
NsS'solution_found_flag'
p310
I01
sS'time_taken'
p311
F250.07414507865906
sS'benchmark_name'
p312
S'M_A2'
p313
sa(dp314
S'tree_str'
p315
S'a2(a2(a2(a2(ARG1,ARG0),a2(ARG0,ARG0)),a2(a2(ARG2,ARG2),ARG1)),a2(a2(a2(ARG2,a2(a2(a2(ARG2,ARG0),a2(ARG2,ARG1)),a2(ARG1,ARG2))),a2(a2(ARG1,a2(ARG1,ARG1)),a2(ARG1,ARG0))),a2(a2(a2(ARG1,ARG2),a2(ARG1,ARG0)),a2(ARG0,ARG2))))'
p316
sS'tree_len'
p317
I49
sS'archive_size'
p318
I16244
sS'number_of_operators'
p319
I24
sS'alg_name'
p320
S'small-LTI'
p321
sS'archive_tree_deapth'
p322
I3
sS'logbook'
p323
g12
(g13
g14
(lp324
(dp325
S'status'
p326
NsS'iteration'
p327
I0
sS'count_wrongs'
p328
I4
sS'picked_node'
p329
NsS'len_master_tree'
p330
I9
sS'total_wrongs'
p331
I24
sa(dp332
g326
S'perfect'
p333
sg327
I1
sg328
I4
sg329
I4
sg330
I17
sg331
I15
sa(dp334
g326
S'better'
p335
sg327
I2
sg328
I2
sg329
I2
sg330
I25
sg331
I12
sa(dp336
g326
g333
sg327
I3
sg328
I2
sg329
I18
sg330
I29
sg331
I10
sa(dp337
g326
g333
sg327
I4
sg328
I1
sg329
I23
sg330
I39
sg331
I3
sa(dp338
g326
g333
sg327
I5
sg328
I0
sg329
I2
sg330
I49
sg331
I0
satRp339
(dp340
g32
I01
sg33
(lp341
g327
ag330
ag328
ag331
ag329
ag326
asg35
Nsg36
I0
sg37
g38
(g13
tRp342
sbsS'max_archive_size'
p343
NsS'solution_found_flag'
p344
I01
sS'time_taken'
p345
F232.74442005157471
sS'benchmark_name'
p346
S'M_A2'
p347
sa(dp348
S'tree_str'
p349
S'a2(a2(a2(a2(ARG1,ARG0),a2(ARG0,ARG0)),a2(a2(ARG2,ARG2),ARG1)),a2(a2(a2(ARG0,a2(a2(ARG0,ARG0),ARG0)),a2(a2(a2(ARG1,a2(ARG2,ARG1)),a2(ARG1,ARG2)),a2(ARG1,ARG0))),a2(a2(a2(ARG1,ARG2),a2(ARG1,ARG0)),a2(ARG0,ARG2))))'
p350
sS'tree_len'
p351
I47
sS'archive_size'
p352
I16244
sS'number_of_operators'
p353
I23
sS'alg_name'
p354
S'small-LTI'
p355
sS'archive_tree_deapth'
p356
I3
sS'logbook'
p357
g12
(g13
g14
(lp358
(dp359
S'status'
p360
NsS'iteration'
p361
I0
sS'count_wrongs'
p362
I4
sS'picked_node'
p363
NsS'len_master_tree'
p364
I9
sS'total_wrongs'
p365
I24
sa(dp366
g360
S'perfect'
p367
sg361
I1
sg362
I4
sg363
I4
sg364
I17
sg365
I15
sa(dp368
g360
S'better'
p369
sg361
I2
sg362
I2
sg363
I2
sg364
I25
sg365
I12
sa(dp370
g360
g367
sg361
I3
sg362
I2
sg363
I22
sg364
I29
sg365
I9
sa(dp371
g360
g367
sg361
I4
sg362
I1
sg363
I18
sg364
I37
sg365
I3
sa(dp372
g360
g367
sg361
I5
sg362
I0
sg363
I2
sg364
I47
sg365
I0
satRp373
(dp374
g32
I01
sg33
(lp375
g361
ag364
ag362
ag365
ag363
ag360
asg35
Nsg36
I0
sg37
g38
(g13
tRp376
sbsS'max_archive_size'
p377
NsS'solution_found_flag'
p378
I01
sS'time_taken'
p379
F230.8488941192627
sS'benchmark_name'
p380
S'M_A2'
p381
sa(dp382
S'tree_str'
p383
S'a2(a2(a2(a2(ARG1,ARG0),a2(ARG0,ARG0)),a2(a2(ARG2,ARG2),ARG1)),a2(a2(a2(ARG0,a2(ARG0,ARG2)),a2(a2(a2(ARG1,ARG1),ARG0),a2(ARG0,a2(ARG1,ARG1)))),a2(a2(a2(ARG1,ARG2),a2(ARG2,ARG0)),a2(a2(ARG1,ARG1),ARG2))))'
p384
sS'tree_len'
p385
I45
sS'archive_size'
p386
I16244
sS'number_of_operators'
p387
I22
sS'alg_name'
p388
S'small-LTI'
p389
sS'archive_tree_deapth'
p390
I3
sS'logbook'
p391
g12
(g13
g14
(lp392
(dp393
S'status'
p394
NsS'iteration'
p395
I0
sS'count_wrongs'
p396
I4
sS'picked_node'
p397
NsS'len_master_tree'
p398
I9
sS'total_wrongs'
p399
I24
sa(dp400
g394
S'perfect'
p401
sg395
I1
sg396
I4
sg397
I4
sg398
I17
sg399
I15
sa(dp402
g394
S'better'
p403
sg395
I2
sg396
I2
sg397
I2
sg398
I25
sg399
I10
sa(dp404
g394
g401
sg395
I3
sg396
I2
sg397
I18
sg398
I29
sg399
I9
sa(dp405
g394
g401
sg395
I4
sg396
I1
sg397
I17
sg398
I33
sg399
I3
sa(dp406
g394
g401
sg395
I5
sg396
I0
sg397
I2
sg398
I45
sg399
I0
satRp407
(dp408
g32
I01
sg33
(lp409
g395
ag398
ag396
ag399
ag397
ag394
asg35
Nsg36
I0
sg37
g38
(g13
tRp410
sbsS'max_archive_size'
p411
NsS'solution_found_flag'
p412
I01
sS'time_taken'
p413
F232.26183080673218
sS'benchmark_name'
p414
S'M_A2'
p415
sa(dp416
S'tree_str'
p417
S'a2(a2(ARG2,a2(a2(ARG0,a2(ARG2,ARG0)),a2(ARG2,a2(ARG1,ARG2)))),a2(a2(a2(a2(a2(ARG1,ARG1),a2(ARG1,ARG0)),a2(ARG1,ARG0)),a2(a2(ARG2,a2(ARG1,ARG2)),a2(ARG1,ARG0))),a2(a2(a2(ARG1,ARG2),a2(ARG1,ARG0)),a2(ARG0,ARG2))))'
p418
sS'tree_len'
p419
I47
sS'archive_size'
p420
I16244
sS'number_of_operators'
p421
I23
sS'alg_name'
p422
S'small-LTI'
p423
sS'archive_tree_deapth'
p424
I3
sS'logbook'
p425
g12
(g13
g14
(lp426
(dp427
S'status'
p428
NsS'iteration'
p429
I0
sS'count_wrongs'
p430
I4
sS'picked_node'
p431
NsS'len_master_tree'
p432
I9
sS'total_wrongs'
p433
I24
sa(dp434
g428
S'perfect'
p435
sg429
I1
sg430
I4
sg431
I6
sg432
I17
sg433
I15
sa(dp436
g428
S'better'
p437
sg429
I2
sg430
I2
sg431
I2
sg432
I25
sg433
I12
sa(dp438
g428
g435
sg429
I3
sg430
I2
sg431
I17
sg432
I29
sg433
I10
sa(dp439
g428
g435
sg429
I4
sg430
I1
sg431
I17
sg432
I37
sg433
I3
sa(dp440
g428
g435
sg429
I5
sg430
I0
sg431
I2
sg432
I47
sg433
I0
satRp441
(dp442
g32
I01
sg33
(lp443
g429
ag432
ag430
ag433
ag431
ag428
asg35
Nsg36
I0
sg37
g38
(g13
tRp444
sbsS'max_archive_size'
p445
NsS'solution_found_flag'
p446
I01
sS'time_taken'
p447
F232.5915470123291
sS'benchmark_name'
p448
S'M_A2'
p449
sa(dp450
S'tree_str'
p451
S'a2(a2(ARG2,a2(a2(ARG0,a2(ARG2,ARG0)),a2(ARG2,a2(ARG1,ARG2)))),a2(a2(a2(ARG0,a2(ARG0,ARG2)),a2(a2(a2(ARG1,ARG1),ARG0),a2(ARG0,a2(ARG1,ARG1)))),a2(a2(a2(ARG1,ARG1),a2(ARG2,ARG0)),a2(a2(ARG1,ARG2),ARG2))))'
p452
sS'tree_len'
p453
I45
sS'archive_size'
p454
I16244
sS'number_of_operators'
p455
I22
sS'alg_name'
p456
S'small-LTI'
p457
sS'archive_tree_deapth'
p458
I3
sS'logbook'
p459
g12
(g13
g14
(lp460
(dp461
S'status'
p462
NsS'iteration'
p463
I0
sS'count_wrongs'
p464
I4
sS'picked_node'
p465
NsS'len_master_tree'
p466
I9
sS'total_wrongs'
p467
I24
sa(dp468
g462
S'perfect'
p469
sg463
I1
sg464
I4
sg465
I6
sg466
I17
sg467
I15
sa(dp470
g462
S'better'
p471
sg463
I2
sg464
I2
sg465
I2
sg466
I25
sg467
I10
sa(dp472
g462
g469
sg463
I3
sg464
I2
sg465
I18
sg466
I29
sg467
I9
sa(dp473
g462
g469
sg463
I4
sg464
I1
sg465
I17
sg466
I33
sg467
I3
sa(dp474
g462
g469
sg463
I5
sg464
I0
sg465
I2
sg466
I45
sg467
I0
satRp475
(dp476
g32
I01
sg33
(lp477
g463
ag466
ag464
ag467
ag465
ag462
asg35
Nsg36
I0
sg37
g38
(g13
tRp478
sbsS'max_archive_size'
p479
NsS'solution_found_flag'
p480
I01
sS'time_taken'
p481
F232.69167995452881
sS'benchmark_name'
p482
S'M_A2'
p483
sa(dp484
S'tree_str'
p485
S'a2(a2(a2(a2(ARG1,ARG0),a2(ARG0,ARG0)),a2(a2(ARG2,ARG2),ARG1)),a2(a2(a2(a2(a2(ARG0,ARG0),ARG2),a2(ARG0,a2(ARG2,ARG1))),a2(a2(ARG0,a2(ARG1,ARG0)),a2(ARG0,ARG0))),a2(ARG0,a2(ARG0,ARG2))))'
p486
sS'tree_len'
p487
I41
sS'archive_size'
p488
I16244
sS'number_of_operators'
p489
I20
sS'alg_name'
p490
S'small-LTI'
p491
sS'archive_tree_deapth'
p492
I3
sS'logbook'
p493
g12
(g13
g14
(lp494
(dp495
S'status'
p496
NsS'iteration'
p497
I0
sS'count_wrongs'
p498
I4
sS'picked_node'
p499
NsS'len_master_tree'
p500
I9
sS'total_wrongs'
p501
I24
sa(dp502
g496
S'perfect'
p503
sg497
I1
sg498
I4
sg499
I4
sg500
I17
sg501
I15
sa(dp504
g496
S'better'
p505
sg497
I2
sg498
I2
sg499
I2
sg500
I25
sg501
I12
sa(dp506
g496
g503
sg497
I3
sg498
I2
sg499
I17
sg500
I29
sg501
I10
sa(dp507
g496
g503
sg497
I4
sg498
I1
sg499
I17
sg500
I37
sg501
I3
sa(dp508
g496
g503
sg497
I5
sg498
I0
sg499
I2
sg500
I41
sg501
I0
satRp509
(dp510
g32
I01
sg33
(lp511
g497
ag500
ag498
ag501
ag499
ag496
asg35
Nsg36
I0
sg37
g38
(g13
tRp512
sbsS'max_archive_size'
p513
NsS'solution_found_flag'
p514
I01
sS'time_taken'
p515
F233.56537008285522
sS'benchmark_name'
p516
S'M_A2'
p517
sa(dp518
S'tree_str'
p519
S'a2(a2(ARG2,a2(a2(ARG0,a2(ARG2,ARG0)),a2(ARG2,a2(ARG1,ARG2)))),a2(a2(a2(ARG0,a2(ARG0,ARG1)),a2(a2(a2(ARG1,ARG1),ARG0),a2(ARG0,a2(ARG1,ARG1)))),a2(a2(a2(ARG1,ARG2),a2(ARG1,ARG0)),a2(a2(ARG2,ARG2),ARG2))))'
p520
sS'tree_len'
p521
I45
sS'archive_size'
p522
I16244
sS'number_of_operators'
p523
I22
sS'alg_name'
p524
S'small-LTI'
p525
sS'archive_tree_deapth'
p526
I3
sS'logbook'
p527
g12
(g13
g14
(lp528
(dp529
S'status'
p530
NsS'iteration'
p531
I0
sS'count_wrongs'
p532
I4
sS'picked_node'
p533
NsS'len_master_tree'
p534
I9
sS'total_wrongs'
p535
I24
sa(dp536
g530
S'perfect'
p537
sg531
I1
sg532
I4
sg533
I6
sg534
I17
sg535
I15
sa(dp538
g530
S'better'
p539
sg531
I2
sg532
I2
sg533
I2
sg534
I25
sg535
I10
sa(dp540
g530
g537
sg531
I3
sg532
I1
sg533
I17
sg534
I33
sg535
I3
sa(dp541
g530
g537
sg531
I4
sg532
I0
sg533
I2
sg534
I45
sg535
I0
satRp542
(dp543
g32
I01
sg33
(lp544
g531
ag534
ag532
ag535
ag533
ag530
asg35
Nsg36
I0
sg37
g38
(g13
tRp545
sbsS'max_archive_size'
p546
NsS'solution_found_flag'
p547
I01
sS'time_taken'
p548
F246.38336181640625
sS'benchmark_name'
p549
S'M_A2'
p550
sa(dp551
S'tree_str'
p552
S'a2(a2(ARG2,a2(a2(ARG0,a2(ARG2,ARG0)),a2(ARG2,a2(ARG1,ARG2)))),a2(a2(a2(ARG0,a2(ARG0,ARG2)),a2(a2(a2(ARG1,ARG1),ARG0),a2(ARG0,a2(ARG1,ARG1)))),a2(a2(a2(ARG1,ARG1),a2(ARG2,ARG0)),a2(a2(ARG1,ARG2),ARG2))))'
p553
sS'tree_len'
p554
I45
sS'archive_size'
p555
I16244
sS'number_of_operators'
p556
I22
sS'alg_name'
p557
S'small-LTI'
p558
sS'archive_tree_deapth'
p559
I3
sS'logbook'
p560
g12
(g13
g14
(lp561
(dp562
S'status'
p563
NsS'iteration'
p564
I0
sS'count_wrongs'
p565
I4
sS'picked_node'
p566
NsS'len_master_tree'
p567
I9
sS'total_wrongs'
p568
I24
sa(dp569
g563
S'perfect'
p570
sg564
I1
sg565
I4
sg566
I6
sg567
I17
sg568
I15
sa(dp571
g563
S'better'
p572
sg564
I2
sg565
I2
sg566
I2
sg567
I25
sg568
I10
sa(dp573
g563
g570
sg564
I3
sg565
I2
sg566
I18
sg567
I29
sg568
I9
sa(dp574
g563
g570
sg564
I4
sg565
I1
sg566
I17
sg567
I33
sg568
I3
sa(dp575
g563
g570
sg564
I5
sg565
I0
sg566
I2
sg567
I45
sg568
I0
satRp576
(dp577
g32
I01
sg33
(lp578
g564
ag567
ag565
ag568
ag566
ag563
asg35
Nsg36
I0
sg37
g38
(g13
tRp579
sbsS'max_archive_size'
p580
NsS'solution_found_flag'
p581
I01
sS'time_taken'
p582
F247.12633514404297
sS'benchmark_name'
p583
S'M_A2'
p584
sa(dp585
S'tree_str'
p586
S'a2(a2(a2(a2(ARG1,ARG0),a2(ARG0,ARG0)),a2(a2(ARG2,ARG2),ARG1)),a2(a2(a2(ARG0,a2(ARG0,ARG1)),a2(a2(a2(ARG1,ARG1),ARG0),a2(ARG0,a2(ARG1,ARG1)))),a2(a2(a2(ARG1,ARG2),a2(ARG1,ARG0)),a2(a2(ARG2,ARG2),ARG2))))'
p587
sS'tree_len'
p588
I45
sS'archive_size'
p589
I16244
sS'number_of_operators'
p590
I22
sS'alg_name'
p591
S'small-LTI'
p592
sS'archive_tree_deapth'
p593
I3
sS'logbook'
p594
g12
(g13
g14
(lp595
(dp596
S'status'
p597
NsS'iteration'
p598
I0
sS'count_wrongs'
p599
I4
sS'picked_node'
p600
NsS'len_master_tree'
p601
I9
sS'total_wrongs'
p602
I24
sa(dp603
g597
S'perfect'
p604
sg598
I1
sg599
I4
sg600
I4
sg601
I17
sg602
I15
sa(dp605
g597
S'better'
p606
sg598
I2
sg599
I2
sg600
I2
sg601
I25
sg602
I10
sa(dp607
g597
g604
sg598
I3
sg599
I2
sg600
I18
sg601
I29
sg602
I9
sa(dp608
g597
g604
sg598
I4
sg599
I1
sg600
I17
sg601
I33
sg602
I3
sa(dp609
g597
g604
sg598
I5
sg599
I0
sg600
I2
sg601
I45
sg602
I0
satRp610
(dp611
g32
I01
sg33
(lp612
g598
ag601
ag599
ag602
ag600
ag597
asg35
Nsg36
I0
sg37
g38
(g13
tRp613
sbsS'max_archive_size'
p614
NsS'solution_found_flag'
p615
I01
sS'time_taken'
p616
F252.42117595672607
sS'benchmark_name'
p617
S'M_A2'
p618
sa(dp619
S'tree_str'
p620
S'a2(a2(a2(a2(ARG2,ARG2),a2(ARG0,ARG1)),ARG0),a2(a2(a2(ARG0,a2(ARG1,ARG0)),a2(ARG0,ARG1)),a2(a2(a2(ARG1,ARG2),a2(ARG1,ARG0)),a2(a2(ARG2,ARG2),ARG2))))'
p621
sS'tree_len'
p622
I33
sS'archive_size'
p623
I16244
sS'number_of_operators'
p624
I16
sS'alg_name'
p625
S'small-LTI'
p626
sS'archive_tree_deapth'
p627
I3
sS'logbook'
p628
g12
(g13
g14
(lp629
(dp630
S'status'
p631
NsS'iteration'
p632
I0
sS'count_wrongs'
p633
I4
sS'picked_node'
p634
NsS'len_master_tree'
p635
I9
sS'total_wrongs'
p636
I24
sa(dp637
g631
S'perfect'
p638
sg632
I1
sg633
I4
sg634
I4
sg635
I17
sg636
I15
sa(dp639
g631
S'better'
p640
sg632
I2
sg633
I2
sg634
I2
sg635
I25
sg636
I26
sa(dp641
g631
g638
sg632
I3
sg633
I1
sg634
I3
sg635
I21
sg636
I3
sa(dp642
g631
g638
sg632
I4
sg633
I0
sg634
I2
sg635
I33
sg636
I0
satRp643
(dp644
g32
I01
sg33
(lp645
g632
ag635
ag633
ag636
ag634
ag631
asg35
Nsg36
I0
sg37
g38
(g13
tRp646
sbsS'max_archive_size'
p647
NsS'solution_found_flag'
p648
I01
sS'time_taken'
p649
F250.56418800354004
sS'benchmark_name'
p650
S'M_A2'
p651
sa(dp652
S'tree_str'
p653
S'a2(a2(a2(a2(ARG1,ARG0),a2(ARG0,ARG0)),a2(a2(ARG2,ARG2),ARG1)),a2(a2(a2(ARG0,a2(ARG1,a2(ARG0,ARG1))),a2(a2(a2(ARG1,ARG1),a2(ARG0,ARG2)),a2(a2(ARG1,ARG0),ARG0))),a2(a2(a2(ARG2,ARG0),a2(ARG0,ARG2)),a2(a2(ARG0,ARG0),ARG2))))'
p654
sS'tree_len'
p655
I49
sS'archive_size'
p656
I16244
sS'number_of_operators'
p657
I24
sS'alg_name'
p658
S'small-LTI'
p659
sS'archive_tree_deapth'
p660
I3
sS'logbook'
p661
g12
(g13
g14
(lp662
(dp663
S'status'
p664
NsS'iteration'
p665
I0
sS'count_wrongs'
p666
I4
sS'picked_node'
p667
NsS'len_master_tree'
p668
I9
sS'total_wrongs'
p669
I24
sa(dp670
g664
S'perfect'
p671
sg665
I1
sg666
I4
sg667
I4
sg668
I17
sg669
I15
sa(dp672
g664
S'better'
p673
sg665
I2
sg666
I2
sg667
I2
sg668
I25
sg669
I12
sa(dp674
g664
g671
sg665
I3
sg666
I2
sg667
I22
sg668
I29
sg669
I9
sa(dp675
g664
g671
sg665
I4
sg666
I1
sg667
I17
sg668
I37
sg669
I3
sa(dp676
g664
g671
sg665
I5
sg666
I0
sg667
I2
sg668
I49
sg669
I0
satRp677
(dp678
g32
I01
sg33
(lp679
g665
ag668
ag666
ag669
ag667
ag664
asg35
Nsg36
I0
sg37
g38
(g13
tRp680
sbsS'max_archive_size'
p681
NsS'solution_found_flag'
p682
I01
sS'time_taken'
p683
F250.42249202728271
sS'benchmark_name'
p684
S'M_A2'
p685
sa.