(lp1
(dp2
S'tree_str'
p3
S'a3(a3(a3(a3(ARG2,ARG0),ARG2),a3(ARG2,a3(ARG1,ARG1))),a3(a3(a3(a3(ARG0,a3(ARG2,ARG0)),a3(ARG1,ARG0)),ARG0),a3(a3(a3(a3(ARG0,ARG0),ARG2),a3(a3(ARG0,ARG0),a3(ARG0,ARG0))),a3(a3(ARG2,ARG0),a3(a3(ARG1,ARG1),a3(ARG1,ARG0))))))'
p4
sS'tree_len'
p5
I49
sS'archive_size'
p6
I10387
sS'number_of_operators'
p7
I24
sS'alg_name'
p8
S'small-LTI'
p9
sS'archive_tree_deapth'
p10
I3
sS'logbook'
p11
ccopy_reg
_reconstructor
p12
(ctreeimprove.utilities
Logbook
p13
c__builtin__
list
p14
(lp15
(dp16
S'status'
p17
NsS'iteration'
p18
I0
sS'count_wrongs'
p19
I4
sS'picked_node'
p20
NsS'len_master_tree'
p21
I13
sS'total_wrongs'
p22
I32
sa(dp23
g17
S'perfect'
p24
sg18
I1
sg19
I4
sg20
I12
sg21
I15
sg22
I29
sa(dp25
g17
g24
sg18
I2
sg19
I3
sg20
I8
sg21
I19
sg22
I24
sa(dp26
g17
g24
sg18
I3
sg19
I2
sg20
I6
sg21
I27
sg22
I12
sa(dp27
g17
g24
sg18
I4
sg19
I1
sg20
I4
sg21
I37
sg22
I6
sa(dp28
g17
S'worst'
p29
sg18
I5
sg19
I2
sg20
I2
sg21
I27
sg22
I12
sa(dp30
g17
g24
sg18
I6
sg19
I1
sg20
I26
sg21
I37
sg22
I6
sa(dp31
g17
g29
sg18
I7
sg19
I2
sg20
I24
sg21
I27
sg22
I12
sa(dp32
g17
g24
sg18
I8
sg19
I1
sg20
I26
sg21
I37
sg22
I6
sa(dp33
g17
g24
sg18
I9
sg19
I0
sg20
I25
sg21
I49
sg22
I0
satRp34
(dp35
S'log_header'
p36
I01
sS'header'
p37
(lp38
g18
ag21
ag19
ag22
ag20
ag17
asS'columns_len'
p39
NsS'buffindex'
p40
I0
sS'chapters'
p41
ccollections
defaultdict
p42
(g13
tRp43
sbsS'max_archive_size'
p44
NsS'solution_found_flag'
p45
I01
sS'time_taken'
p46
F156.36662602424622
sS'benchmark_name'
p47
S'M_A3'
p48
sa(dp49
S'tree_str'
p50
S'a3(a3(a3(a3(ARG2,ARG0),ARG2),a3(ARG2,a3(ARG1,ARG1))),a3(a3(a3(a3(ARG0,a3(ARG2,ARG0)),a3(ARG1,ARG0)),ARG0),a3(a3(a3(a3(ARG0,ARG0),ARG2),a3(a3(ARG0,ARG0),a3(ARG0,ARG0))),a3(a3(ARG2,ARG0),a3(a3(ARG1,ARG1),a3(ARG1,ARG0))))))'
p51
sS'tree_len'
p52
I49
sS'archive_size'
p53
I10387
sS'number_of_operators'
p54
I24
sS'alg_name'
p55
S'small-LTI'
p56
sS'archive_tree_deapth'
p57
I3
sS'logbook'
p58
g12
(g13
g14
(lp59
(dp60
S'status'
p61
NsS'iteration'
p62
I0
sS'count_wrongs'
p63
I4
sS'picked_node'
p64
NsS'len_master_tree'
p65
I13
sS'total_wrongs'
p66
I32
sa(dp67
g61
S'perfect'
p68
sg62
I1
sg63
I4
sg64
I12
sg65
I15
sg66
I29
sa(dp69
g61
g68
sg62
I2
sg63
I3
sg64
I8
sg65
I19
sg66
I24
sa(dp70
g61
g68
sg62
I3
sg63
I2
sg64
I6
sg65
I27
sg66
I12
sa(dp71
g61
g68
sg62
I4
sg63
I1
sg64
I4
sg65
I37
sg66
I6
sa(dp72
g61
S'worst'
p73
sg62
I5
sg63
I2
sg64
I2
sg65
I27
sg66
I12
sa(dp74
g61
g68
sg62
I6
sg63
I1
sg64
I26
sg65
I37
sg66
I6
sa(dp75
g61
g73
sg62
I7
sg63
I2
sg64
I24
sg65
I27
sg66
I12
sa(dp76
g61
g68
sg62
I8
sg63
I1
sg64
I26
sg65
I37
sg66
I6
sa(dp77
g61
g68
sg62
I9
sg63
I0
sg64
I25
sg65
I49
sg66
I0
satRp78
(dp79
g36
I01
sg37
(lp80
g62
ag65
ag63
ag66
ag64
ag61
asg39
Nsg40
I0
sg41
g42
(g13
tRp81
sbsS'max_archive_size'
p82
NsS'solution_found_flag'
p83
I01
sS'time_taken'
p84
F166.46292209625244
sS'benchmark_name'
p85
S'M_A3'
p86
sa(dp87
S'tree_str'
p88
S'a3(a3(a3(a3(ARG2,ARG0),ARG2),a3(ARG2,a3(ARG1,ARG1))),a3(a3(a3(a3(ARG0,a3(ARG2,ARG0)),a3(ARG1,ARG0)),ARG0),a3(a3(a3(a3(ARG0,ARG0),ARG2),a3(a3(ARG0,ARG0),a3(ARG0,ARG0))),a3(a3(ARG2,ARG0),a3(a3(ARG1,ARG1),a3(ARG1,ARG0))))))'
p89
sS'tree_len'
p90
I49
sS'archive_size'
p91
I10387
sS'number_of_operators'
p92
I24
sS'alg_name'
p93
S'small-LTI'
p94
sS'archive_tree_deapth'
p95
I3
sS'logbook'
p96
g12
(g13
g14
(lp97
(dp98
S'status'
p99
NsS'iteration'
p100
I0
sS'count_wrongs'
p101
I4
sS'picked_node'
p102
NsS'len_master_tree'
p103
I13
sS'total_wrongs'
p104
I32
sa(dp105
g99
S'perfect'
p106
sg100
I1
sg101
I4
sg102
I10
sg103
I15
sg104
I29
sa(dp107
g99
g106
sg100
I2
sg101
I3
sg102
I8
sg103
I19
sg104
I24
sa(dp108
g99
g106
sg100
I3
sg101
I2
sg102
I6
sg103
I27
sg104
I12
sa(dp109
g99
g106
sg100
I4
sg101
I1
sg102
I4
sg103
I37
sg104
I6
sa(dp110
g99
S'worst'
p111
sg100
I5
sg101
I2
sg102
I2
sg103
I27
sg104
I12
sa(dp112
g99
g106
sg100
I6
sg101
I1
sg102
I26
sg103
I37
sg104
I6
sa(dp113
g99
g111
sg100
I7
sg101
I2
sg102
I24
sg103
I27
sg104
I12
sa(dp114
g99
g106
sg100
I8
sg101
I1
sg102
I26
sg103
I37
sg104
I6
sa(dp115
g99
g106
sg100
I9
sg101
I0
sg102
I25
sg103
I49
sg104
I0
satRp116
(dp117
g36
I01
sg37
(lp118
g100
ag103
ag101
ag104
ag102
ag99
asg39
Nsg40
I0
sg41
g42
(g13
tRp119
sbsS'max_archive_size'
p120
NsS'solution_found_flag'
p121
I01
sS'time_taken'
p122
F158.23155689239502
sS'benchmark_name'
p123
S'M_A3'
p124
sa(dp125
S'tree_str'
p126
S'a3(a3(a3(a3(ARG2,ARG0),ARG2),a3(ARG2,a3(ARG1,ARG1))),a3(a3(a3(a3(ARG0,a3(ARG2,ARG0)),a3(ARG1,ARG0)),ARG0),a3(a3(a3(a3(ARG0,ARG0),ARG2),a3(a3(ARG0,ARG0),a3(ARG0,ARG0))),a3(a3(ARG2,ARG0),a3(a3(ARG1,ARG1),a3(ARG1,ARG0))))))'
p127
sS'tree_len'
p128
I49
sS'archive_size'
p129
I10387
sS'number_of_operators'
p130
I24
sS'alg_name'
p131
S'small-LTI'
p132
sS'archive_tree_deapth'
p133
I3
sS'logbook'
p134
g12
(g13
g14
(lp135
(dp136
S'status'
p137
NsS'iteration'
p138
I0
sS'count_wrongs'
p139
I4
sS'picked_node'
p140
NsS'len_master_tree'
p141
I13
sS'total_wrongs'
p142
I32
sa(dp143
g137
S'perfect'
p144
sg138
I1
sg139
I4
sg140
I12
sg141
I15
sg142
I29
sa(dp145
g137
g144
sg138
I2
sg139
I3
sg140
I8
sg141
I19
sg142
I24
sa(dp146
g137
g144
sg138
I3
sg139
I2
sg140
I6
sg141
I27
sg142
I12
sa(dp147
g137
g144
sg138
I4
sg139
I1
sg140
I4
sg141
I37
sg142
I6
sa(dp148
g137
S'worst'
p149
sg138
I5
sg139
I2
sg140
I2
sg141
I27
sg142
I12
sa(dp150
g137
g144
sg138
I6
sg139
I1
sg140
I26
sg141
I37
sg142
I6
sa(dp151
g137
g149
sg138
I7
sg139
I2
sg140
I24
sg141
I27
sg142
I12
sa(dp152
g137
g144
sg138
I8
sg139
I1
sg140
I26
sg141
I37
sg142
I6
sa(dp153
g137
g144
sg138
I9
sg139
I0
sg140
I25
sg141
I49
sg142
I0
satRp154
(dp155
g36
I01
sg37
(lp156
g138
ag141
ag139
ag142
ag140
ag137
asg39
Nsg40
I0
sg41
g42
(g13
tRp157
sbsS'max_archive_size'
p158
NsS'solution_found_flag'
p159
I01
sS'time_taken'
p160
F168.23340582847595
sS'benchmark_name'
p161
S'M_A3'
p162
sa(dp163
S'tree_str'
p164
S'a3(a3(a3(a3(ARG2,ARG0),ARG2),a3(ARG2,a3(ARG1,ARG1))),a3(a3(a3(a3(ARG0,a3(ARG2,ARG0)),a3(ARG1,ARG0)),ARG0),a3(a3(a3(a3(ARG0,ARG0),ARG2),a3(a3(ARG0,ARG0),a3(ARG0,ARG0))),a3(a3(ARG2,ARG0),a3(a3(ARG1,ARG1),a3(ARG1,ARG0))))))'
p165
sS'tree_len'
p166
I49
sS'archive_size'
p167
I10387
sS'number_of_operators'
p168
I24
sS'alg_name'
p169
S'small-LTI'
p170
sS'archive_tree_deapth'
p171
I3
sS'logbook'
p172
g12
(g13
g14
(lp173
(dp174
S'status'
p175
NsS'iteration'
p176
I0
sS'count_wrongs'
p177
I4
sS'picked_node'
p178
NsS'len_master_tree'
p179
I13
sS'total_wrongs'
p180
I32
sa(dp181
g175
S'perfect'
p182
sg176
I1
sg177
I4
sg178
I12
sg179
I15
sg180
I29
sa(dp183
g175
g182
sg176
I2
sg177
I3
sg178
I8
sg179
I19
sg180
I24
sa(dp184
g175
g182
sg176
I3
sg177
I2
sg178
I6
sg179
I27
sg180
I12
sa(dp185
g175
g182
sg176
I4
sg177
I1
sg178
I4
sg179
I37
sg180
I6
sa(dp186
g175
S'worst'
p187
sg176
I5
sg177
I2
sg178
I2
sg179
I27
sg180
I12
sa(dp188
g175
g182
sg176
I6
sg177
I1
sg178
I26
sg179
I37
sg180
I6
sa(dp189
g175
g187
sg176
I7
sg177
I2
sg178
I24
sg179
I27
sg180
I12
sa(dp190
g175
g182
sg176
I8
sg177
I1
sg178
I26
sg179
I37
sg180
I6
sa(dp191
g175
g182
sg176
I9
sg177
I0
sg178
I25
sg179
I49
sg180
I0
satRp192
(dp193
g36
I01
sg37
(lp194
g176
ag179
ag177
ag180
ag178
ag175
asg39
Nsg40
I0
sg41
g42
(g13
tRp195
sbsS'max_archive_size'
p196
NsS'solution_found_flag'
p197
I01
sS'time_taken'
p198
F157.82385683059692
sS'benchmark_name'
p199
S'M_A3'
p200
sa(dp201
S'tree_str'
p202
S'a3(a3(a3(a3(ARG2,ARG0),ARG2),a3(ARG2,a3(ARG1,ARG1))),a3(a3(a3(a3(ARG0,a3(ARG2,ARG0)),a3(ARG1,ARG0)),ARG0),a3(a3(a3(a3(ARG0,ARG0),ARG2),a3(a3(ARG0,ARG0),a3(ARG0,ARG0))),a3(a3(ARG2,ARG0),a3(a3(ARG1,ARG1),a3(ARG1,ARG0))))))'
p203
sS'tree_len'
p204
I49
sS'archive_size'
p205
I10387
sS'number_of_operators'
p206
I24
sS'alg_name'
p207
S'small-LTI'
p208
sS'archive_tree_deapth'
p209
I3
sS'logbook'
p210
g12
(g13
g14
(lp211
(dp212
S'status'
p213
NsS'iteration'
p214
I0
sS'count_wrongs'
p215
I4
sS'picked_node'
p216
NsS'len_master_tree'
p217
I13
sS'total_wrongs'
p218
I32
sa(dp219
g213
S'perfect'
p220
sg214
I1
sg215
I4
sg216
I10
sg217
I15
sg218
I29
sa(dp221
g213
g220
sg214
I2
sg215
I3
sg216
I8
sg217
I19
sg218
I24
sa(dp222
g213
g220
sg214
I3
sg215
I2
sg216
I6
sg217
I27
sg218
I12
sa(dp223
g213
g220
sg214
I4
sg215
I1
sg216
I4
sg217
I37
sg218
I6
sa(dp224
g213
S'worst'
p225
sg214
I5
sg215
I2
sg216
I2
sg217
I27
sg218
I12
sa(dp226
g213
g220
sg214
I6
sg215
I1
sg216
I26
sg217
I37
sg218
I6
sa(dp227
g213
g225
sg214
I7
sg215
I2
sg216
I24
sg217
I27
sg218
I12
sa(dp228
g213
g220
sg214
I8
sg215
I1
sg216
I26
sg217
I37
sg218
I6
sa(dp229
g213
g220
sg214
I9
sg215
I0
sg216
I25
sg217
I49
sg218
I0
satRp230
(dp231
g36
I01
sg37
(lp232
g214
ag217
ag215
ag218
ag216
ag213
asg39
Nsg40
I0
sg41
g42
(g13
tRp233
sbsS'max_archive_size'
p234
NsS'solution_found_flag'
p235
I01
sS'time_taken'
p236
F165.90062999725342
sS'benchmark_name'
p237
S'M_A3'
p238
sa(dp239
S'tree_str'
p240
S'a3(a3(a3(a3(ARG2,ARG0),ARG2),a3(ARG2,a3(ARG1,ARG1))),a3(a3(a3(a3(ARG0,a3(ARG2,ARG0)),a3(ARG1,ARG0)),ARG0),a3(a3(a3(a3(ARG0,ARG0),ARG2),a3(a3(ARG0,ARG0),a3(ARG0,ARG0))),a3(a3(ARG2,ARG0),a3(a3(ARG1,ARG1),a3(ARG1,ARG0))))))'
p241
sS'tree_len'
p242
I49
sS'archive_size'
p243
I10387
sS'number_of_operators'
p244
I24
sS'alg_name'
p245
S'small-LTI'
p246
sS'archive_tree_deapth'
p247
I3
sS'logbook'
p248
g12
(g13
g14
(lp249
(dp250
S'status'
p251
NsS'iteration'
p252
I0
sS'count_wrongs'
p253
I4
sS'picked_node'
p254
NsS'len_master_tree'
p255
I13
sS'total_wrongs'
p256
I32
sa(dp257
g251
S'perfect'
p258
sg252
I1
sg253
I4
sg254
I12
sg255
I15
sg256
I29
sa(dp259
g251
g258
sg252
I2
sg253
I3
sg254
I8
sg255
I19
sg256
I24
sa(dp260
g251
g258
sg252
I3
sg253
I2
sg254
I6
sg255
I27
sg256
I12
sa(dp261
g251
g258
sg252
I4
sg253
I1
sg254
I4
sg255
I37
sg256
I6
sa(dp262
g251
S'worst'
p263
sg252
I5
sg253
I2
sg254
I2
sg255
I27
sg256
I12
sa(dp264
g251
g258
sg252
I6
sg253
I1
sg254
I26
sg255
I37
sg256
I6
sa(dp265
g251
g263
sg252
I7
sg253
I2
sg254
I24
sg255
I27
sg256
I12
sa(dp266
g251
g258
sg252
I8
sg253
I1
sg254
I26
sg255
I37
sg256
I6
sa(dp267
g251
g258
sg252
I9
sg253
I0
sg254
I25
sg255
I49
sg256
I0
satRp268
(dp269
g36
I01
sg37
(lp270
g252
ag255
ag253
ag256
ag254
ag251
asg39
Nsg40
I0
sg41
g42
(g13
tRp271
sbsS'max_archive_size'
p272
NsS'solution_found_flag'
p273
I01
sS'time_taken'
p274
F166.8979229927063
sS'benchmark_name'
p275
S'M_A3'
p276
sa(dp277
S'tree_str'
p278
S'a3(a3(a3(a3(ARG2,ARG0),ARG2),a3(ARG2,a3(ARG1,ARG1))),a3(a3(a3(a3(ARG0,a3(ARG2,ARG0)),a3(ARG1,ARG0)),ARG0),a3(a3(a3(a3(ARG0,ARG0),ARG2),a3(a3(ARG0,ARG0),a3(ARG0,ARG0))),a3(a3(ARG2,ARG0),a3(a3(ARG1,ARG1),a3(ARG1,ARG0))))))'
p279
sS'tree_len'
p280
I49
sS'archive_size'
p281
I10387
sS'number_of_operators'
p282
I24
sS'alg_name'
p283
S'small-LTI'
p284
sS'archive_tree_deapth'
p285
I3
sS'logbook'
p286
g12
(g13
g14
(lp287
(dp288
S'status'
p289
NsS'iteration'
p290
I0
sS'count_wrongs'
p291
I4
sS'picked_node'
p292
NsS'len_master_tree'
p293
I13
sS'total_wrongs'
p294
I32
sa(dp295
g289
S'perfect'
p296
sg290
I1
sg291
I4
sg292
I12
sg293
I15
sg294
I29
sa(dp297
g289
g296
sg290
I2
sg291
I3
sg292
I8
sg293
I19
sg294
I24
sa(dp298
g289
g296
sg290
I3
sg291
I2
sg292
I6
sg293
I27
sg294
I12
sa(dp299
g289
g296
sg290
I4
sg291
I1
sg292
I4
sg293
I37
sg294
I6
sa(dp300
g289
S'worst'
p301
sg290
I5
sg291
I2
sg292
I2
sg293
I27
sg294
I12
sa(dp302
g289
g296
sg290
I6
sg291
I1
sg292
I26
sg293
I37
sg294
I6
sa(dp303
g289
g301
sg290
I7
sg291
I2
sg292
I24
sg293
I27
sg294
I12
sa(dp304
g289
g296
sg290
I8
sg291
I1
sg292
I26
sg293
I37
sg294
I6
sa(dp305
g289
g296
sg290
I9
sg291
I0
sg292
I25
sg293
I49
sg294
I0
satRp306
(dp307
g36
I01
sg37
(lp308
g290
ag293
ag291
ag294
ag292
ag289
asg39
Nsg40
I0
sg41
g42
(g13
tRp309
sbsS'max_archive_size'
p310
NsS'solution_found_flag'
p311
I01
sS'time_taken'
p312
F156.18927502632141
sS'benchmark_name'
p313
S'M_A3'
p314
sa(dp315
S'tree_str'
p316
S'a3(a3(a3(a3(ARG2,ARG0),ARG2),a3(ARG2,a3(ARG1,ARG1))),a3(a3(a3(a3(ARG0,a3(ARG2,ARG0)),a3(ARG1,ARG0)),ARG0),a3(a3(a3(a3(ARG0,ARG0),ARG2),a3(a3(ARG0,ARG0),a3(ARG0,ARG0))),a3(a3(ARG2,ARG0),a3(a3(ARG1,ARG1),a3(ARG1,ARG0))))))'
p317
sS'tree_len'
p318
I49
sS'archive_size'
p319
I10387
sS'number_of_operators'
p320
I24
sS'alg_name'
p321
S'small-LTI'
p322
sS'archive_tree_deapth'
p323
I3
sS'logbook'
p324
g12
(g13
g14
(lp325
(dp326
S'status'
p327
NsS'iteration'
p328
I0
sS'count_wrongs'
p329
I4
sS'picked_node'
p330
NsS'len_master_tree'
p331
I13
sS'total_wrongs'
p332
I32
sa(dp333
g327
S'perfect'
p334
sg328
I1
sg329
I4
sg330
I10
sg331
I15
sg332
I29
sa(dp335
g327
g334
sg328
I2
sg329
I3
sg330
I8
sg331
I19
sg332
I24
sa(dp336
g327
g334
sg328
I3
sg329
I2
sg330
I6
sg331
I27
sg332
I12
sa(dp337
g327
g334
sg328
I4
sg329
I1
sg330
I4
sg331
I37
sg332
I6
sa(dp338
g327
S'worst'
p339
sg328
I5
sg329
I2
sg330
I2
sg331
I27
sg332
I12
sa(dp340
g327
g334
sg328
I6
sg329
I1
sg330
I26
sg331
I37
sg332
I6
sa(dp341
g327
g339
sg328
I7
sg329
I2
sg330
I24
sg331
I27
sg332
I12
sa(dp342
g327
g334
sg328
I8
sg329
I1
sg330
I26
sg331
I37
sg332
I6
sa(dp343
g327
g334
sg328
I9
sg329
I0
sg330
I25
sg331
I49
sg332
I0
satRp344
(dp345
g36
I01
sg37
(lp346
g328
ag331
ag329
ag332
ag330
ag327
asg39
Nsg40
I0
sg41
g42
(g13
tRp347
sbsS'max_archive_size'
p348
NsS'solution_found_flag'
p349
I01
sS'time_taken'
p350
F167.6474711894989
sS'benchmark_name'
p351
S'M_A3'
p352
sa(dp353
S'tree_str'
p354
S'a3(a3(a3(a3(ARG2,ARG0),ARG2),a3(ARG2,a3(ARG1,ARG1))),a3(a3(a3(a3(ARG0,a3(ARG2,ARG0)),a3(ARG1,ARG0)),ARG0),a3(a3(a3(a3(ARG0,ARG0),ARG2),a3(a3(ARG0,ARG0),a3(ARG0,ARG0))),a3(a3(ARG2,ARG0),a3(a3(ARG1,ARG1),a3(ARG1,ARG0))))))'
p355
sS'tree_len'
p356
I49
sS'archive_size'
p357
I10387
sS'number_of_operators'
p358
I24
sS'alg_name'
p359
S'small-LTI'
p360
sS'archive_tree_deapth'
p361
I3
sS'logbook'
p362
g12
(g13
g14
(lp363
(dp364
S'status'
p365
NsS'iteration'
p366
I0
sS'count_wrongs'
p367
I4
sS'picked_node'
p368
NsS'len_master_tree'
p369
I13
sS'total_wrongs'
p370
I32
sa(dp371
g365
S'perfect'
p372
sg366
I1
sg367
I4
sg368
I12
sg369
I15
sg370
I29
sa(dp373
g365
g372
sg366
I2
sg367
I3
sg368
I8
sg369
I19
sg370
I24
sa(dp374
g365
g372
sg366
I3
sg367
I2
sg368
I6
sg369
I27
sg370
I12
sa(dp375
g365
g372
sg366
I4
sg367
I1
sg368
I4
sg369
I37
sg370
I6
sa(dp376
g365
S'worst'
p377
sg366
I5
sg367
I2
sg368
I2
sg369
I27
sg370
I12
sa(dp378
g365
g372
sg366
I6
sg367
I1
sg368
I26
sg369
I37
sg370
I6
sa(dp379
g365
g377
sg366
I7
sg367
I2
sg368
I24
sg369
I27
sg370
I12
sa(dp380
g365
g372
sg366
I8
sg367
I1
sg368
I26
sg369
I37
sg370
I6
sa(dp381
g365
g372
sg366
I9
sg367
I0
sg368
I25
sg369
I49
sg370
I0
satRp382
(dp383
g36
I01
sg37
(lp384
g366
ag369
ag367
ag370
ag368
ag365
asg39
Nsg40
I0
sg41
g42
(g13
tRp385
sbsS'max_archive_size'
p386
NsS'solution_found_flag'
p387
I01
sS'time_taken'
p388
F156.56326603889465
sS'benchmark_name'
p389
S'M_A3'
p390
sa(dp391
S'tree_str'
p392
S'a3(a3(a3(a3(ARG2,ARG0),ARG2),a3(ARG2,a3(ARG1,ARG1))),a3(a3(a3(a3(ARG0,a3(ARG2,ARG0)),a3(ARG1,ARG0)),ARG0),a3(a3(a3(a3(ARG0,ARG0),ARG2),a3(a3(ARG0,ARG0),a3(ARG0,ARG0))),a3(a3(ARG2,ARG0),a3(a3(ARG1,ARG1),a3(ARG1,ARG0))))))'
p393
sS'tree_len'
p394
I49
sS'archive_size'
p395
I10387
sS'number_of_operators'
p396
I24
sS'alg_name'
p397
S'small-LTI'
p398
sS'archive_tree_deapth'
p399
I3
sS'logbook'
p400
g12
(g13
g14
(lp401
(dp402
S'status'
p403
NsS'iteration'
p404
I0
sS'count_wrongs'
p405
I4
sS'picked_node'
p406
NsS'len_master_tree'
p407
I13
sS'total_wrongs'
p408
I32
sa(dp409
g403
S'perfect'
p410
sg404
I1
sg405
I4
sg406
I12
sg407
I15
sg408
I29
sa(dp411
g403
g410
sg404
I2
sg405
I3
sg406
I8
sg407
I19
sg408
I24
sa(dp412
g403
g410
sg404
I3
sg405
I2
sg406
I6
sg407
I27
sg408
I12
sa(dp413
g403
g410
sg404
I4
sg405
I1
sg406
I4
sg407
I37
sg408
I6
sa(dp414
g403
S'worst'
p415
sg404
I5
sg405
I2
sg406
I2
sg407
I27
sg408
I12
sa(dp416
g403
g410
sg404
I6
sg405
I1
sg406
I26
sg407
I37
sg408
I6
sa(dp417
g403
g415
sg404
I7
sg405
I2
sg406
I24
sg407
I27
sg408
I12
sa(dp418
g403
g410
sg404
I8
sg405
I1
sg406
I26
sg407
I37
sg408
I6
sa(dp419
g403
g410
sg404
I9
sg405
I0
sg406
I25
sg407
I49
sg408
I0
satRp420
(dp421
g36
I01
sg37
(lp422
g404
ag407
ag405
ag408
ag406
ag403
asg39
Nsg40
I0
sg41
g42
(g13
tRp423
sbsS'max_archive_size'
p424
NsS'solution_found_flag'
p425
I01
sS'time_taken'
p426
F149.47293019294739
sS'benchmark_name'
p427
S'M_A3'
p428
sa(dp429
S'tree_str'
p430
S'a3(a3(a3(a3(ARG2,ARG0),ARG2),a3(ARG2,a3(ARG1,ARG1))),a3(a3(a3(a3(ARG0,a3(ARG2,ARG0)),a3(ARG1,ARG0)),ARG0),a3(a3(a3(a3(ARG0,ARG0),ARG2),a3(a3(ARG0,ARG0),a3(ARG0,ARG0))),a3(a3(ARG2,ARG0),a3(a3(ARG1,ARG1),a3(ARG1,ARG0))))))'
p431
sS'tree_len'
p432
I49
sS'archive_size'
p433
I10387
sS'number_of_operators'
p434
I24
sS'alg_name'
p435
S'small-LTI'
p436
sS'archive_tree_deapth'
p437
I3
sS'logbook'
p438
g12
(g13
g14
(lp439
(dp440
S'status'
p441
NsS'iteration'
p442
I0
sS'count_wrongs'
p443
I4
sS'picked_node'
p444
NsS'len_master_tree'
p445
I13
sS'total_wrongs'
p446
I32
sa(dp447
g441
S'perfect'
p448
sg442
I1
sg443
I4
sg444
I10
sg445
I15
sg446
I29
sa(dp449
g441
g448
sg442
I2
sg443
I3
sg444
I8
sg445
I19
sg446
I24
sa(dp450
g441
g448
sg442
I3
sg443
I2
sg444
I6
sg445
I27
sg446
I12
sa(dp451
g441
g448
sg442
I4
sg443
I1
sg444
I4
sg445
I37
sg446
I6
sa(dp452
g441
S'worst'
p453
sg442
I5
sg443
I2
sg444
I2
sg445
I27
sg446
I12
sa(dp454
g441
g448
sg442
I6
sg443
I1
sg444
I26
sg445
I37
sg446
I6
sa(dp455
g441
g453
sg442
I7
sg443
I2
sg444
I24
sg445
I27
sg446
I12
sa(dp456
g441
g448
sg442
I8
sg443
I1
sg444
I26
sg445
I37
sg446
I6
sa(dp457
g441
g448
sg442
I9
sg443
I0
sg444
I25
sg445
I49
sg446
I0
satRp458
(dp459
g36
I01
sg37
(lp460
g442
ag445
ag443
ag446
ag444
ag441
asg39
Nsg40
I0
sg41
g42
(g13
tRp461
sbsS'max_archive_size'
p462
NsS'solution_found_flag'
p463
I01
sS'time_taken'
p464
F167.23228192329407
sS'benchmark_name'
p465
S'M_A3'
p466
sa(dp467
S'tree_str'
p468
S'a3(a3(a3(a3(ARG2,ARG0),ARG2),a3(ARG2,a3(ARG1,ARG1))),a3(a3(a3(a3(ARG0,a3(ARG2,ARG0)),a3(ARG1,ARG0)),ARG0),a3(a3(a3(a3(ARG0,ARG0),ARG2),a3(a3(ARG0,ARG0),a3(ARG0,ARG0))),a3(a3(ARG2,ARG0),a3(a3(ARG1,ARG1),a3(ARG1,ARG0))))))'
p469
sS'tree_len'
p470
I49
sS'archive_size'
p471
I10387
sS'number_of_operators'
p472
I24
sS'alg_name'
p473
S'small-LTI'
p474
sS'archive_tree_deapth'
p475
I3
sS'logbook'
p476
g12
(g13
g14
(lp477
(dp478
S'status'
p479
NsS'iteration'
p480
I0
sS'count_wrongs'
p481
I4
sS'picked_node'
p482
NsS'len_master_tree'
p483
I13
sS'total_wrongs'
p484
I32
sa(dp485
g479
S'perfect'
p486
sg480
I1
sg481
I4
sg482
I10
sg483
I15
sg484
I29
sa(dp487
g479
g486
sg480
I2
sg481
I3
sg482
I8
sg483
I19
sg484
I24
sa(dp488
g479
g486
sg480
I3
sg481
I2
sg482
I6
sg483
I27
sg484
I12
sa(dp489
g479
g486
sg480
I4
sg481
I1
sg482
I4
sg483
I37
sg484
I6
sa(dp490
g479
S'worst'
p491
sg480
I5
sg481
I2
sg482
I2
sg483
I27
sg484
I12
sa(dp492
g479
g486
sg480
I6
sg481
I1
sg482
I26
sg483
I37
sg484
I6
sa(dp493
g479
g491
sg480
I7
sg481
I2
sg482
I24
sg483
I27
sg484
I12
sa(dp494
g479
g486
sg480
I8
sg481
I1
sg482
I26
sg483
I37
sg484
I6
sa(dp495
g479
g486
sg480
I9
sg481
I0
sg482
I25
sg483
I49
sg484
I0
satRp496
(dp497
g36
I01
sg37
(lp498
g480
ag483
ag481
ag484
ag482
ag479
asg39
Nsg40
I0
sg41
g42
(g13
tRp499
sbsS'max_archive_size'
p500
NsS'solution_found_flag'
p501
I01
sS'time_taken'
p502
F147.97689986228943
sS'benchmark_name'
p503
S'M_A3'
p504
sa(dp505
S'tree_str'
p506
S'a3(a3(a3(a3(ARG2,ARG0),ARG2),a3(ARG2,a3(ARG1,ARG1))),a3(a3(a3(a3(ARG0,a3(ARG2,ARG0)),a3(ARG1,ARG0)),ARG0),a3(a3(a3(a3(ARG0,ARG0),ARG2),a3(a3(ARG0,ARG0),a3(ARG0,ARG0))),a3(a3(ARG2,ARG0),a3(a3(ARG1,ARG1),a3(ARG1,ARG0))))))'
p507
sS'tree_len'
p508
I49
sS'archive_size'
p509
I10387
sS'number_of_operators'
p510
I24
sS'alg_name'
p511
S'small-LTI'
p512
sS'archive_tree_deapth'
p513
I3
sS'logbook'
p514
g12
(g13
g14
(lp515
(dp516
S'status'
p517
NsS'iteration'
p518
I0
sS'count_wrongs'
p519
I4
sS'picked_node'
p520
NsS'len_master_tree'
p521
I13
sS'total_wrongs'
p522
I32
sa(dp523
g517
S'perfect'
p524
sg518
I1
sg519
I4
sg520
I12
sg521
I15
sg522
I29
sa(dp525
g517
g524
sg518
I2
sg519
I3
sg520
I8
sg521
I19
sg522
I24
sa(dp526
g517
g524
sg518
I3
sg519
I2
sg520
I6
sg521
I27
sg522
I12
sa(dp527
g517
g524
sg518
I4
sg519
I1
sg520
I4
sg521
I37
sg522
I6
sa(dp528
g517
S'worst'
p529
sg518
I5
sg519
I2
sg520
I2
sg521
I27
sg522
I12
sa(dp530
g517
g524
sg518
I6
sg519
I1
sg520
I26
sg521
I37
sg522
I6
sa(dp531
g517
g529
sg518
I7
sg519
I2
sg520
I24
sg521
I27
sg522
I12
sa(dp532
g517
g524
sg518
I8
sg519
I1
sg520
I26
sg521
I37
sg522
I6
sa(dp533
g517
g524
sg518
I9
sg519
I0
sg520
I25
sg521
I49
sg522
I0
satRp534
(dp535
g36
I01
sg37
(lp536
g518
ag521
ag519
ag522
ag520
ag517
asg39
Nsg40
I0
sg41
g42
(g13
tRp537
sbsS'max_archive_size'
p538
NsS'solution_found_flag'
p539
I01
sS'time_taken'
p540
F151.41791796684265
sS'benchmark_name'
p541
S'M_A3'
p542
sa(dp543
S'tree_str'
p544
S'a3(a3(a3(a3(ARG2,ARG0),ARG2),a3(ARG2,a3(ARG1,ARG1))),a3(a3(a3(a3(ARG0,a3(ARG2,ARG0)),a3(ARG1,ARG0)),ARG0),a3(a3(a3(a3(ARG0,ARG0),ARG2),a3(a3(ARG0,ARG0),a3(ARG0,ARG0))),a3(a3(ARG2,ARG0),a3(a3(ARG1,ARG1),a3(ARG1,ARG0))))))'
p545
sS'tree_len'
p546
I49
sS'archive_size'
p547
I10387
sS'number_of_operators'
p548
I24
sS'alg_name'
p549
S'small-LTI'
p550
sS'archive_tree_deapth'
p551
I3
sS'logbook'
p552
g12
(g13
g14
(lp553
(dp554
S'status'
p555
NsS'iteration'
p556
I0
sS'count_wrongs'
p557
I4
sS'picked_node'
p558
NsS'len_master_tree'
p559
I13
sS'total_wrongs'
p560
I32
sa(dp561
g555
S'perfect'
p562
sg556
I1
sg557
I4
sg558
I10
sg559
I15
sg560
I29
sa(dp563
g555
g562
sg556
I2
sg557
I3
sg558
I8
sg559
I19
sg560
I24
sa(dp564
g555
g562
sg556
I3
sg557
I2
sg558
I6
sg559
I27
sg560
I12
sa(dp565
g555
g562
sg556
I4
sg557
I1
sg558
I4
sg559
I37
sg560
I6
sa(dp566
g555
S'worst'
p567
sg556
I5
sg557
I2
sg558
I2
sg559
I27
sg560
I12
sa(dp568
g555
g562
sg556
I6
sg557
I1
sg558
I26
sg559
I37
sg560
I6
sa(dp569
g555
g567
sg556
I7
sg557
I2
sg558
I24
sg559
I27
sg560
I12
sa(dp570
g555
g562
sg556
I8
sg557
I1
sg558
I26
sg559
I37
sg560
I6
sa(dp571
g555
g562
sg556
I9
sg557
I0
sg558
I25
sg559
I49
sg560
I0
satRp572
(dp573
g36
I01
sg37
(lp574
g556
ag559
ag557
ag560
ag558
ag555
asg39
Nsg40
I0
sg41
g42
(g13
tRp575
sbsS'max_archive_size'
p576
NsS'solution_found_flag'
p577
I01
sS'time_taken'
p578
F152.68051981925964
sS'benchmark_name'
p579
S'M_A3'
p580
sa(dp581
S'tree_str'
p582
S'a3(a3(a3(a3(ARG2,ARG0),ARG2),a3(ARG2,a3(ARG1,ARG1))),a3(a3(a3(a3(ARG0,a3(ARG2,ARG0)),a3(ARG1,ARG0)),ARG0),a3(a3(a3(a3(ARG0,ARG0),ARG2),a3(a3(ARG0,ARG0),a3(ARG0,ARG0))),a3(a3(ARG2,ARG0),a3(a3(ARG1,ARG1),a3(ARG1,ARG0))))))'
p583
sS'tree_len'
p584
I49
sS'archive_size'
p585
I10387
sS'number_of_operators'
p586
I24
sS'alg_name'
p587
S'small-LTI'
p588
sS'archive_tree_deapth'
p589
I3
sS'logbook'
p590
g12
(g13
g14
(lp591
(dp592
S'status'
p593
NsS'iteration'
p594
I0
sS'count_wrongs'
p595
I4
sS'picked_node'
p596
NsS'len_master_tree'
p597
I13
sS'total_wrongs'
p598
I32
sa(dp599
g593
S'perfect'
p600
sg594
I1
sg595
I4
sg596
I12
sg597
I15
sg598
I29
sa(dp601
g593
g600
sg594
I2
sg595
I3
sg596
I8
sg597
I19
sg598
I24
sa(dp602
g593
g600
sg594
I3
sg595
I2
sg596
I6
sg597
I27
sg598
I12
sa(dp603
g593
g600
sg594
I4
sg595
I1
sg596
I4
sg597
I37
sg598
I6
sa(dp604
g593
S'worst'
p605
sg594
I5
sg595
I2
sg596
I2
sg597
I27
sg598
I12
sa(dp606
g593
g600
sg594
I6
sg595
I1
sg596
I26
sg597
I37
sg598
I6
sa(dp607
g593
g605
sg594
I7
sg595
I2
sg596
I24
sg597
I27
sg598
I12
sa(dp608
g593
g600
sg594
I8
sg595
I1
sg596
I26
sg597
I37
sg598
I6
sa(dp609
g593
g600
sg594
I9
sg595
I0
sg596
I25
sg597
I49
sg598
I0
satRp610
(dp611
g36
I01
sg37
(lp612
g594
ag597
ag595
ag598
ag596
ag593
asg39
Nsg40
I0
sg41
g42
(g13
tRp613
sbsS'max_archive_size'
p614
NsS'solution_found_flag'
p615
I01
sS'time_taken'
p616
F164.65952706336975
sS'benchmark_name'
p617
S'M_A3'
p618
sa(dp619
S'tree_str'
p620
S'a3(a3(a3(a3(ARG2,ARG0),ARG2),a3(ARG2,a3(ARG1,ARG1))),a3(a3(a3(a3(ARG0,a3(ARG2,ARG0)),a3(ARG1,ARG0)),ARG0),a3(a3(a3(a3(ARG0,ARG0),ARG2),a3(a3(ARG0,ARG0),a3(ARG0,ARG0))),a3(a3(ARG2,ARG0),a3(a3(ARG1,ARG1),a3(ARG1,ARG0))))))'
p621
sS'tree_len'
p622
I49
sS'archive_size'
p623
I10387
sS'number_of_operators'
p624
I24
sS'alg_name'
p625
S'small-LTI'
p626
sS'archive_tree_deapth'
p627
I3
sS'logbook'
p628
g12
(g13
g14
(lp629
(dp630
S'status'
p631
NsS'iteration'
p632
I0
sS'count_wrongs'
p633
I4
sS'picked_node'
p634
NsS'len_master_tree'
p635
I13
sS'total_wrongs'
p636
I32
sa(dp637
g631
S'perfect'
p638
sg632
I1
sg633
I4
sg634
I10
sg635
I15
sg636
I29
sa(dp639
g631
g638
sg632
I2
sg633
I3
sg634
I8
sg635
I19
sg636
I24
sa(dp640
g631
g638
sg632
I3
sg633
I2
sg634
I6
sg635
I27
sg636
I12
sa(dp641
g631
g638
sg632
I4
sg633
I1
sg634
I4
sg635
I37
sg636
I6
sa(dp642
g631
S'worst'
p643
sg632
I5
sg633
I2
sg634
I2
sg635
I27
sg636
I12
sa(dp644
g631
g638
sg632
I6
sg633
I1
sg634
I26
sg635
I37
sg636
I6
sa(dp645
g631
g643
sg632
I7
sg633
I2
sg634
I24
sg635
I27
sg636
I12
sa(dp646
g631
g638
sg632
I8
sg633
I1
sg634
I26
sg635
I37
sg636
I6
sa(dp647
g631
g638
sg632
I9
sg633
I0
sg634
I25
sg635
I49
sg636
I0
satRp648
(dp649
g36
I01
sg37
(lp650
g632
ag635
ag633
ag636
ag634
ag631
asg39
Nsg40
I0
sg41
g42
(g13
tRp651
sbsS'max_archive_size'
p652
NsS'solution_found_flag'
p653
I01
sS'time_taken'
p654
F168.77785491943359
sS'benchmark_name'
p655
S'M_A3'
p656
sa(dp657
S'tree_str'
p658
S'a3(a3(a3(a3(ARG2,ARG0),ARG2),a3(ARG2,a3(ARG1,ARG1))),a3(a3(a3(a3(ARG0,a3(ARG2,ARG0)),a3(ARG1,ARG0)),ARG0),a3(a3(a3(a3(ARG0,ARG0),ARG2),a3(a3(ARG0,ARG0),a3(ARG0,ARG0))),a3(a3(ARG2,ARG0),a3(a3(ARG1,ARG1),a3(ARG1,ARG0))))))'
p659
sS'tree_len'
p660
I49
sS'archive_size'
p661
I10387
sS'number_of_operators'
p662
I24
sS'alg_name'
p663
S'small-LTI'
p664
sS'archive_tree_deapth'
p665
I3
sS'logbook'
p666
g12
(g13
g14
(lp667
(dp668
S'status'
p669
NsS'iteration'
p670
I0
sS'count_wrongs'
p671
I4
sS'picked_node'
p672
NsS'len_master_tree'
p673
I13
sS'total_wrongs'
p674
I32
sa(dp675
g669
S'perfect'
p676
sg670
I1
sg671
I4
sg672
I12
sg673
I15
sg674
I29
sa(dp677
g669
g676
sg670
I2
sg671
I3
sg672
I8
sg673
I19
sg674
I24
sa(dp678
g669
g676
sg670
I3
sg671
I2
sg672
I6
sg673
I27
sg674
I12
sa(dp679
g669
g676
sg670
I4
sg671
I1
sg672
I4
sg673
I37
sg674
I6
sa(dp680
g669
S'worst'
p681
sg670
I5
sg671
I2
sg672
I2
sg673
I27
sg674
I12
sa(dp682
g669
g676
sg670
I6
sg671
I1
sg672
I26
sg673
I37
sg674
I6
sa(dp683
g669
g681
sg670
I7
sg671
I2
sg672
I24
sg673
I27
sg674
I12
sa(dp684
g669
g676
sg670
I8
sg671
I1
sg672
I26
sg673
I37
sg674
I6
sa(dp685
g669
g676
sg670
I9
sg671
I0
sg672
I25
sg673
I49
sg674
I0
satRp686
(dp687
g36
I01
sg37
(lp688
g670
ag673
ag671
ag674
ag672
ag669
asg39
Nsg40
I0
sg41
g42
(g13
tRp689
sbsS'max_archive_size'
p690
NsS'solution_found_flag'
p691
I01
sS'time_taken'
p692
F167.19805002212524
sS'benchmark_name'
p693
S'M_A3'
p694
sa(dp695
S'tree_str'
p696
S'a3(a3(a3(a3(ARG2,ARG0),ARG2),a3(ARG2,a3(ARG1,ARG1))),a3(a3(a3(a3(ARG0,a3(ARG2,ARG0)),a3(ARG1,ARG0)),ARG0),a3(a3(a3(a3(ARG0,ARG0),ARG2),a3(a3(ARG0,ARG0),a3(ARG0,ARG0))),a3(a3(ARG2,ARG0),a3(a3(ARG1,ARG1),a3(ARG1,ARG0))))))'
p697
sS'tree_len'
p698
I49
sS'archive_size'
p699
I10387
sS'number_of_operators'
p700
I24
sS'alg_name'
p701
S'small-LTI'
p702
sS'archive_tree_deapth'
p703
I3
sS'logbook'
p704
g12
(g13
g14
(lp705
(dp706
S'status'
p707
NsS'iteration'
p708
I0
sS'count_wrongs'
p709
I4
sS'picked_node'
p710
NsS'len_master_tree'
p711
I13
sS'total_wrongs'
p712
I32
sa(dp713
g707
S'perfect'
p714
sg708
I1
sg709
I4
sg710
I10
sg711
I15
sg712
I29
sa(dp715
g707
g714
sg708
I2
sg709
I3
sg710
I8
sg711
I19
sg712
I24
sa(dp716
g707
g714
sg708
I3
sg709
I2
sg710
I6
sg711
I27
sg712
I12
sa(dp717
g707
g714
sg708
I4
sg709
I1
sg710
I4
sg711
I37
sg712
I6
sa(dp718
g707
S'worst'
p719
sg708
I5
sg709
I2
sg710
I2
sg711
I27
sg712
I12
sa(dp720
g707
g714
sg708
I6
sg709
I1
sg710
I26
sg711
I37
sg712
I6
sa(dp721
g707
g719
sg708
I7
sg709
I2
sg710
I24
sg711
I27
sg712
I12
sa(dp722
g707
g714
sg708
I8
sg709
I1
sg710
I26
sg711
I37
sg712
I6
sa(dp723
g707
g714
sg708
I9
sg709
I0
sg710
I25
sg711
I49
sg712
I0
satRp724
(dp725
g36
I01
sg37
(lp726
g708
ag711
ag709
ag712
ag710
ag707
asg39
Nsg40
I0
sg41
g42
(g13
tRp727
sbsS'max_archive_size'
p728
NsS'solution_found_flag'
p729
I01
sS'time_taken'
p730
F171.75746417045593
sS'benchmark_name'
p731
S'M_A3'
p732
sa(dp733
S'tree_str'
p734
S'a3(a3(a3(a3(ARG2,ARG0),ARG2),a3(ARG2,a3(ARG1,ARG1))),a3(a3(a3(a3(ARG0,a3(ARG2,ARG0)),a3(ARG1,ARG0)),ARG0),a3(a3(a3(a3(ARG0,ARG0),ARG2),a3(a3(ARG0,ARG0),a3(ARG0,ARG0))),a3(a3(ARG2,ARG0),a3(a3(ARG1,ARG1),a3(ARG1,ARG0))))))'
p735
sS'tree_len'
p736
I49
sS'archive_size'
p737
I10387
sS'number_of_operators'
p738
I24
sS'alg_name'
p739
S'small-LTI'
p740
sS'archive_tree_deapth'
p741
I3
sS'logbook'
p742
g12
(g13
g14
(lp743
(dp744
S'status'
p745
NsS'iteration'
p746
I0
sS'count_wrongs'
p747
I4
sS'picked_node'
p748
NsS'len_master_tree'
p749
I13
sS'total_wrongs'
p750
I32
sa(dp751
g745
S'perfect'
p752
sg746
I1
sg747
I4
sg748
I10
sg749
I15
sg750
I29
sa(dp753
g745
g752
sg746
I2
sg747
I3
sg748
I8
sg749
I19
sg750
I24
sa(dp754
g745
g752
sg746
I3
sg747
I2
sg748
I6
sg749
I27
sg750
I12
sa(dp755
g745
g752
sg746
I4
sg747
I1
sg748
I4
sg749
I37
sg750
I6
sa(dp756
g745
S'worst'
p757
sg746
I5
sg747
I2
sg748
I2
sg749
I27
sg750
I12
sa(dp758
g745
g752
sg746
I6
sg747
I1
sg748
I26
sg749
I37
sg750
I6
sa(dp759
g745
g757
sg746
I7
sg747
I2
sg748
I24
sg749
I27
sg750
I12
sa(dp760
g745
g752
sg746
I8
sg747
I1
sg748
I26
sg749
I37
sg750
I6
sa(dp761
g745
g752
sg746
I9
sg747
I0
sg748
I25
sg749
I49
sg750
I0
satRp762
(dp763
g36
I01
sg37
(lp764
g746
ag749
ag747
ag750
ag748
ag745
asg39
Nsg40
I0
sg41
g42
(g13
tRp765
sbsS'max_archive_size'
p766
NsS'solution_found_flag'
p767
I01
sS'time_taken'
p768
F172.01871800422668
sS'benchmark_name'
p769
S'M_A3'
p770
sa.