(lp1
(dp2
S'tree_str'
p3
S'a4(a4(a4(a4(ARG1,ARG1),a4(ARG0,a4(a4(ARG0,ARG2),a4(ARG0,a4(ARG2,ARG0))))),a4(a4(ARG2,ARG0),a4(a4(ARG1,a4(ARG0,ARG1)),a4(ARG0,ARG2)))),a4(a4(a4(a4(a4(ARG1,ARG2),a4(ARG2,ARG0)),a4(a4(ARG1,ARG0),ARG2)),a4(ARG2,ARG1)),ARG0))'
p4
sS'tree_len'
p5
I49
sS'archive_size'
p6
I11424
sS'number_of_operators'
p7
I24
sS'alg_name'
p8
S'small-LTI'
p9
sS'archive_tree_deapth'
p10
I3
sS'logbook'
p11
ccopy_reg
_reconstructor
p12
(ctreeimprove.utilities
Logbook
p13
c__builtin__
list
p14
(lp15
(dp16
S'status'
p17
NsS'iteration'
p18
I0
sS'count_wrongs'
p19
I4
sS'picked_node'
p20
NsS'len_master_tree'
p21
I9
sS'total_wrongs'
p22
I33
sa(dp23
g17
S'perfect'
p24
sg18
I1
sg19
I4
sg20
I8
sg21
I17
sg22
I22
sa(dp25
g17
g24
sg18
I2
sg19
I4
sg20
I7
sg21
I29
sg22
I18
sa(dp26
g17
S'better'
p27
sg18
I3
sg19
I3
sg20
I3
sg21
I37
sg22
I38
sa(dp28
g17
g24
sg18
I4
sg19
I2
sg20
I21
sg21
I37
sg22
I6
sa(dp29
g17
S'worst'
p30
sg18
I5
sg19
I3
sg20
I1
sg21
I33
sg22
I38
sa(dp31
g17
g24
sg18
I6
sg19
I2
sg20
I21
sg21
I37
sg22
I8
sa(dp32
g17
g24
sg18
I7
sg19
I1
sg20
I23
sg21
I41
sg22
I3
sa(dp33
g17
g30
sg18
I8
sg19
I2
sg20
I1
sg21
I25
sg22
I33
sa(dp34
g17
g24
sg18
I9
sg19
I2
sg20
I14
sg21
I33
sg22
I28
sa(dp35
g17
g24
sg18
I10
sg19
I2
sg20
I7
sg21
I41
sg22
I31
sa(dp36
g17
g24
sg18
I11
sg19
I2
sg20
I20
sg21
I41
sg22
I28
sa(dp37
g17
g24
sg18
I12
sg19
I1
sg20
I24
sg21
I41
sg22
I9
sa(dp38
g17
g24
sg18
I13
sg19
I0
sg20
I15
sg21
I49
sg22
I0
satRp39
(dp40
S'log_header'
p41
I01
sS'header'
p42
(lp43
g18
ag21
ag19
ag22
ag20
ag17
asS'columns_len'
p44
NsS'buffindex'
p45
I0
sS'chapters'
p46
ccollections
defaultdict
p47
(g13
tRp48
sbsS'max_archive_size'
p49
NsS'solution_found_flag'
p50
I01
sS'time_taken'
p51
F172.22429299354553
sS'benchmark_name'
p52
S'M_A4'
p53
sa(dp54
S'tree_str'
p55
S'a4(a4(a4(a4(ARG1,ARG1),a4(ARG0,a4(a4(ARG0,ARG2),a4(ARG0,a4(ARG2,ARG0))))),a4(a4(ARG2,ARG0),a4(a4(ARG1,a4(ARG0,ARG1)),a4(ARG0,ARG2)))),a4(a4(a4(a4(a4(ARG1,a4(ARG2,ARG0)),a4(a4(ARG1,ARG0),ARG2)),ARG2),a4(ARG2,ARG1)),ARG0))'
p56
sS'tree_len'
p57
I49
sS'archive_size'
p58
I11424
sS'number_of_operators'
p59
I24
sS'alg_name'
p60
S'small-LTI'
p61
sS'archive_tree_deapth'
p62
I3
sS'logbook'
p63
g12
(g13
g14
(lp64
(dp65
S'status'
p66
NsS'iteration'
p67
I0
sS'count_wrongs'
p68
I4
sS'picked_node'
p69
NsS'len_master_tree'
p70
I9
sS'total_wrongs'
p71
I33
sa(dp72
g66
S'perfect'
p73
sg67
I1
sg68
I4
sg69
I8
sg70
I17
sg71
I22
sa(dp74
g66
g73
sg67
I2
sg68
I4
sg69
I7
sg70
I29
sg71
I18
sa(dp75
g66
S'better'
p76
sg67
I3
sg68
I3
sg69
I3
sg70
I37
sg71
I40
sa(dp77
g66
g73
sg67
I4
sg68
I2
sg69
I15
sg70
I37
sg71
I6
sa(dp78
g66
S'worst'
p79
sg67
I5
sg68
I3
sg69
I1
sg70
I33
sg71
I40
sa(dp80
g66
g73
sg67
I6
sg68
I2
sg69
I19
sg70
I35
sg71
I10
sa(dp81
g66
g73
sg67
I7
sg68
I1
sg69
I21
sg70
I39
sg71
I3
sa(dp82
g66
g79
sg67
I8
sg68
I2
sg69
I1
sg70
I25
sg71
I33
sa(dp83
g66
g73
sg67
I9
sg68
I2
sg69
I14
sg70
I33
sg71
I28
sa(dp84
g66
g73
sg67
I10
sg68
I2
sg69
I9
sg70
I41
sg71
I31
sa(dp85
g66
g73
sg67
I11
sg68
I2
sg69
I22
sg70
I41
sg71
I28
sa(dp86
g66
g73
sg67
I12
sg68
I1
sg69
I26
sg70
I41
sg71
I9
sa(dp87
g66
g73
sg67
I13
sg68
I0
sg69
I17
sg70
I49
sg71
I0
satRp88
(dp89
g41
I01
sg42
(lp90
g67
ag70
ag68
ag71
ag69
ag66
asg44
Nsg45
I0
sg46
g47
(g13
tRp91
sbsS'max_archive_size'
p92
NsS'solution_found_flag'
p93
I01
sS'time_taken'
p94
F182.32946705818176
sS'benchmark_name'
p95
S'M_A4'
p96
sa(dp97
S'tree_str'
p98
S'a4(a4(a4(a4(ARG2,ARG1),a4(ARG2,a4(a4(ARG2,ARG1),ARG0))),a4(a4(ARG0,ARG2),a4(a4(ARG0,a4(ARG2,ARG0)),a4(ARG2,ARG0)))),a4(a4(a4(a4(ARG2,ARG2),a4(ARG1,ARG1)),a4(a4(a4(ARG0,ARG1),a4(ARG0,ARG0)),a4(ARG2,a4(ARG0,ARG0)))),ARG0))'
p99
sS'tree_len'
p100
I49
sS'archive_size'
p101
I11424
sS'number_of_operators'
p102
I24
sS'alg_name'
p103
S'small-LTI'
p104
sS'archive_tree_deapth'
p105
I3
sS'logbook'
p106
g12
(g13
g14
(lp107
(dp108
S'status'
p109
NsS'iteration'
p110
I0
sS'count_wrongs'
p111
I4
sS'picked_node'
p112
NsS'len_master_tree'
p113
I9
sS'total_wrongs'
p114
I33
sa(dp115
g109
S'perfect'
p116
sg110
I1
sg111
I4
sg112
I8
sg113
I17
sg114
I22
sa(dp117
g109
g116
sg110
I2
sg111
I4
sg112
I7
sg113
I29
sg114
I18
sa(dp118
g109
S'better'
p119
sg110
I3
sg111
I2
sg112
I2
sg113
I37
sg114
I14
sa(dp120
g109
g116
sg110
I4
sg111
I1
sg112
I29
sg113
I45
sg114
I3
sa(dp121
g109
S'worst'
p122
sg110
I5
sg111
I2
sg112
I3
sg113
I33
sg114
I23
sa(dp123
g109
g116
sg110
I6
sg111
I2
sg112
I22
sg113
I41
sg114
I18
sa(dp124
g109
g119
sg110
I7
sg111
I1
sg112
I26
sg113
I45
sg114
I36
sa(dp125
g109
g116
sg110
I8
sg111
I1
sg112
I18
sg113
I49
sg114
I35
sa(dp126
g109
g116
sg110
I9
sg111
I0
sg112
I11
sg113
I49
sg114
I0
satRp127
(dp128
g41
I01
sg42
(lp129
g110
ag113
ag111
ag114
ag112
ag109
asg44
Nsg45
I0
sg46
g47
(g13
tRp130
sbsS'max_archive_size'
p131
NsS'solution_found_flag'
p132
I01
sS'time_taken'
p133
F168.47506189346313
sS'benchmark_name'
p134
S'M_A4'
p135
sa(dp136
S'tree_str'
p137
S'a4(a4(a4(a4(ARG2,ARG1),a4(ARG2,a4(a4(ARG2,ARG1),ARG0))),a4(a4(ARG0,ARG2),a4(a4(ARG0,a4(ARG2,ARG0)),a4(ARG2,ARG0)))),a4(a4(a4(a4(ARG2,ARG2),a4(ARG1,ARG1)),a4(a4(a4(ARG0,ARG1),a4(ARG0,ARG0)),a4(ARG2,a4(ARG0,ARG0)))),ARG0))'
p138
sS'tree_len'
p139
I49
sS'archive_size'
p140
I11424
sS'number_of_operators'
p141
I24
sS'alg_name'
p142
S'small-LTI'
p143
sS'archive_tree_deapth'
p144
I3
sS'logbook'
p145
g12
(g13
g14
(lp146
(dp147
S'status'
p148
NsS'iteration'
p149
I0
sS'count_wrongs'
p150
I4
sS'picked_node'
p151
NsS'len_master_tree'
p152
I9
sS'total_wrongs'
p153
I33
sa(dp154
g148
S'perfect'
p155
sg149
I1
sg150
I4
sg151
I8
sg152
I17
sg153
I22
sa(dp156
g148
g155
sg149
I2
sg150
I4
sg151
I7
sg152
I29
sg153
I18
sa(dp157
g148
S'better'
p158
sg149
I3
sg150
I2
sg151
I2
sg152
I37
sg153
I14
sa(dp159
g148
g155
sg149
I4
sg150
I1
sg151
I29
sg152
I45
sg153
I3
sa(dp160
g148
S'worst'
p161
sg149
I5
sg150
I2
sg151
I3
sg152
I33
sg153
I23
sa(dp162
g148
g155
sg149
I6
sg150
I2
sg151
I22
sg152
I41
sg153
I18
sa(dp163
g148
g158
sg149
I7
sg150
I1
sg151
I28
sg152
I45
sg153
I36
sa(dp164
g148
g155
sg149
I8
sg150
I0
sg151
I11
sg152
I49
sg153
I0
satRp165
(dp166
g41
I01
sg42
(lp167
g149
ag152
ag150
ag153
ag151
ag148
asg44
Nsg45
I0
sg46
g47
(g13
tRp168
sbsS'max_archive_size'
p169
NsS'solution_found_flag'
p170
I01
sS'time_taken'
p171
F176.96198797225952
sS'benchmark_name'
p172
S'M_A4'
p173
sa(dp174
S'tree_str'
p175
S'a4(a4(a4(a4(ARG2,ARG1),a4(ARG2,a4(a4(ARG2,ARG0),ARG0))),a4(a4(ARG0,ARG2),a4(a4(ARG0,a4(ARG2,ARG0)),a4(ARG2,ARG0)))),a4(a4(a4(a4(ARG2,ARG2),a4(ARG1,ARG1)),a4(a4(a4(ARG0,ARG1),a4(ARG0,ARG0)),a4(ARG2,a4(ARG0,ARG0)))),ARG0))'
p176
sS'tree_len'
p177
I49
sS'archive_size'
p178
I11424
sS'number_of_operators'
p179
I24
sS'alg_name'
p180
S'small-LTI'
p181
sS'archive_tree_deapth'
p182
I3
sS'logbook'
p183
g12
(g13
g14
(lp184
(dp185
S'status'
p186
NsS'iteration'
p187
I0
sS'count_wrongs'
p188
I4
sS'picked_node'
p189
NsS'len_master_tree'
p190
I9
sS'total_wrongs'
p191
I33
sa(dp192
g186
S'perfect'
p193
sg187
I1
sg188
I4
sg189
I8
sg190
I17
sg191
I22
sa(dp194
g186
g193
sg187
I2
sg188
I4
sg189
I7
sg190
I29
sg191
I18
sa(dp195
g186
S'better'
p196
sg187
I3
sg188
I2
sg189
I2
sg190
I37
sg191
I14
sa(dp197
g186
g193
sg187
I4
sg188
I1
sg189
I29
sg190
I45
sg191
I3
sa(dp198
g186
S'worst'
p199
sg187
I5
sg188
I2
sg189
I3
sg190
I33
sg191
I23
sa(dp200
g186
g193
sg187
I6
sg188
I2
sg189
I22
sg190
I41
sg191
I18
sa(dp201
g186
g196
sg187
I7
sg188
I1
sg189
I26
sg190
I45
sg191
I36
sa(dp202
g186
g193
sg187
I8
sg188
I1
sg189
I18
sg190
I49
sg191
I35
sa(dp203
g186
g193
sg187
I9
sg188
I0
sg189
I11
sg190
I49
sg191
I0
satRp204
(dp205
g41
I01
sg42
(lp206
g187
ag190
ag188
ag191
ag189
ag186
asg44
Nsg45
I0
sg46
g47
(g13
tRp207
sbsS'max_archive_size'
p208
NsS'solution_found_flag'
p209
I01
sS'time_taken'
p210
F169.11441683769226
sS'benchmark_name'
p211
S'M_A4'
p212
sa(dp213
S'tree_str'
p214
S'a4(a4(a4(a4(ARG2,ARG1),a4(ARG2,a4(a4(ARG2,ARG0),a4(ARG2,a4(ARG0,a4(ARG1,ARG0)))))),a4(a4(ARG0,ARG2),a4(a4(ARG0,a4(ARG2,ARG0)),a4(ARG2,ARG0)))),a4(a4(a4(a4(ARG2,ARG2),a4(a4(a4(ARG1,ARG0),ARG0),a4(ARG2,a4(ARG1,ARG0)))),ARG1),ARG0))'
p215
sS'tree_len'
p216
I51
sS'archive_size'
p217
I11424
sS'number_of_operators'
p218
I25
sS'alg_name'
p219
S'small-LTI'
p220
sS'archive_tree_deapth'
p221
I3
sS'logbook'
p222
g12
(g13
g14
(lp223
(dp224
S'status'
p225
NsS'iteration'
p226
I0
sS'count_wrongs'
p227
I4
sS'picked_node'
p228
NsS'len_master_tree'
p229
I9
sS'total_wrongs'
p230
I33
sa(dp231
g225
S'perfect'
p232
sg226
I1
sg227
I4
sg228
I8
sg229
I17
sg230
I22
sa(dp233
g225
g232
sg226
I2
sg227
I4
sg228
I7
sg229
I29
sg230
I18
sa(dp234
g225
S'better'
p235
sg226
I3
sg227
I2
sg228
I2
sg229
I37
sg230
I14
sa(dp236
g225
g232
sg226
I4
sg227
I1
sg228
I31
sg229
I45
sg230
I3
sa(dp237
g225
S'worst'
p238
sg226
I5
sg227
I2
sg228
I3
sg229
I33
sg230
I23
sa(dp239
g225
g232
sg226
I6
sg227
I2
sg228
I22
sg229
I41
sg230
I18
sa(dp240
g225
g235
sg226
I7
sg227
I1
sg228
I28
sg229
I45
sg230
I31
sa(dp241
g225
g232
sg226
I8
sg227
I0
sg228
I41
sg229
I51
sg230
I0
satRp242
(dp243
g41
I01
sg42
(lp244
g226
ag229
ag227
ag230
ag228
ag225
asg44
Nsg45
I0
sg46
g47
(g13
tRp245
sbsS'max_archive_size'
p246
NsS'solution_found_flag'
p247
I01
sS'time_taken'
p248
F176.6932270526886
sS'benchmark_name'
p249
S'M_A4'
p250
sa(dp251
S'tree_str'
p252
S'a4(a4(a4(a4(ARG1,ARG1),a4(ARG0,a4(a4(ARG0,ARG2),a4(ARG0,a4(ARG2,ARG0))))),a4(a4(ARG2,ARG0),a4(a4(ARG1,a4(ARG0,ARG1)),a4(ARG0,ARG2)))),a4(a4(a4(a4(ARG2,a4(a4(ARG1,ARG1),a4(a4(ARG1,ARG2),ARG1))),ARG2),a4(ARG2,ARG1)),ARG0))'
p253
sS'tree_len'
p254
I49
sS'archive_size'
p255
I11424
sS'number_of_operators'
p256
I24
sS'alg_name'
p257
S'small-LTI'
p258
sS'archive_tree_deapth'
p259
I3
sS'logbook'
p260
g12
(g13
g14
(lp261
(dp262
S'status'
p263
NsS'iteration'
p264
I0
sS'count_wrongs'
p265
I4
sS'picked_node'
p266
NsS'len_master_tree'
p267
I9
sS'total_wrongs'
p268
I33
sa(dp269
g263
S'perfect'
p270
sg264
I1
sg265
I4
sg266
I8
sg267
I17
sg268
I22
sa(dp271
g263
g270
sg264
I2
sg265
I4
sg266
I7
sg267
I29
sg268
I18
sa(dp272
g263
S'better'
p273
sg264
I3
sg265
I3
sg266
I3
sg267
I37
sg268
I40
sa(dp274
g263
g270
sg264
I4
sg265
I2
sg266
I15
sg267
I37
sg268
I6
sa(dp275
g263
S'worst'
p276
sg264
I5
sg265
I3
sg266
I1
sg267
I33
sg268
I40
sa(dp277
g263
g270
sg264
I6
sg265
I2
sg266
I19
sg267
I35
sg268
I10
sa(dp278
g263
g270
sg264
I7
sg265
I1
sg266
I21
sg267
I39
sg268
I3
sa(dp279
g263
g276
sg264
I8
sg265
I2
sg266
I1
sg267
I25
sg268
I33
sa(dp280
g263
g270
sg264
I9
sg265
I2
sg266
I11
sg267
I33
sg268
I28
sa(dp281
g263
g270
sg264
I10
sg265
I1
sg266
I13
sg267
I41
sg268
I9
sa(dp282
g263
g270
sg264
I11
sg265
I0
sg266
I19
sg267
I49
sg268
I0
satRp283
(dp284
g41
I01
sg42
(lp285
g264
ag267
ag265
ag268
ag266
ag263
asg44
Nsg45
I0
sg46
g47
(g13
tRp286
sbsS'max_archive_size'
p287
NsS'solution_found_flag'
p288
I01
sS'time_taken'
p289
F179.92263603210449
sS'benchmark_name'
p290
S'M_A4'
p291
sa(dp292
S'tree_str'
p293
S'a4(a4(a4(a4(ARG2,ARG1),a4(ARG2,a4(a4(ARG2,ARG0),a4(ARG2,a4(ARG0,a4(ARG1,ARG0)))))),a4(a4(ARG0,ARG2),a4(a4(ARG0,a4(ARG2,ARG0)),a4(ARG2,ARG0)))),a4(a4(a4(a4(ARG2,ARG2),a4(a4(a4(ARG1,ARG0),ARG0),a4(ARG2,a4(ARG1,ARG0)))),ARG1),ARG0))'
p294
sS'tree_len'
p295
I51
sS'archive_size'
p296
I11424
sS'number_of_operators'
p297
I25
sS'alg_name'
p298
S'small-LTI'
p299
sS'archive_tree_deapth'
p300
I3
sS'logbook'
p301
g12
(g13
g14
(lp302
(dp303
S'status'
p304
NsS'iteration'
p305
I0
sS'count_wrongs'
p306
I4
sS'picked_node'
p307
NsS'len_master_tree'
p308
I9
sS'total_wrongs'
p309
I33
sa(dp310
g304
S'perfect'
p311
sg305
I1
sg306
I4
sg307
I8
sg308
I17
sg309
I22
sa(dp312
g304
g311
sg305
I2
sg306
I4
sg307
I7
sg308
I29
sg309
I18
sa(dp313
g304
S'better'
p314
sg305
I3
sg306
I2
sg307
I2
sg308
I37
sg309
I14
sa(dp315
g304
g311
sg305
I4
sg306
I1
sg307
I31
sg308
I45
sg309
I3
sa(dp316
g304
S'worst'
p317
sg305
I5
sg306
I2
sg307
I3
sg308
I33
sg309
I23
sa(dp318
g304
g311
sg305
I6
sg306
I2
sg307
I22
sg308
I41
sg309
I18
sa(dp319
g304
g314
sg305
I7
sg306
I1
sg307
I28
sg308
I45
sg309
I31
sa(dp320
g304
g311
sg305
I8
sg306
I0
sg307
I41
sg308
I51
sg309
I0
satRp321
(dp322
g41
I01
sg42
(lp323
g305
ag308
ag306
ag309
ag307
ag304
asg44
Nsg45
I0
sg46
g47
(g13
tRp324
sbsS'max_archive_size'
p325
NsS'solution_found_flag'
p326
I01
sS'time_taken'
p327
F165.48154997825623
sS'benchmark_name'
p328
S'M_A4'
p329
sa(dp330
S'tree_str'
p331
S'a4(a4(a4(a4(ARG2,ARG1),a4(ARG2,a4(a4(ARG2,ARG0),ARG0))),a4(a4(ARG0,ARG2),a4(a4(ARG0,a4(ARG2,ARG0)),a4(ARG2,ARG0)))),a4(a4(a4(a4(ARG2,ARG2),a4(ARG1,a4(a4(ARG2,ARG2),a4(a4(ARG0,ARG1),ARG2)))),ARG1),ARG0))'
p332
sS'tree_len'
p333
I45
sS'archive_size'
p334
I11424
sS'number_of_operators'
p335
I22
sS'alg_name'
p336
S'small-LTI'
p337
sS'archive_tree_deapth'
p338
I3
sS'logbook'
p339
g12
(g13
g14
(lp340
(dp341
S'status'
p342
NsS'iteration'
p343
I0
sS'count_wrongs'
p344
I4
sS'picked_node'
p345
NsS'len_master_tree'
p346
I9
sS'total_wrongs'
p347
I33
sa(dp348
g342
S'perfect'
p349
sg343
I1
sg344
I4
sg345
I8
sg346
I17
sg347
I22
sa(dp350
g342
g349
sg343
I2
sg344
I4
sg345
I7
sg346
I29
sg347
I18
sa(dp351
g342
S'better'
p352
sg343
I3
sg344
I2
sg345
I2
sg346
I37
sg347
I14
sa(dp353
g342
g349
sg343
I4
sg344
I1
sg345
I33
sg346
I45
sg347
I3
sa(dp354
g342
S'worst'
p355
sg343
I5
sg344
I2
sg345
I3
sg346
I33
sg347
I23
sa(dp356
g342
g349
sg343
I6
sg344
I2
sg345
I22
sg346
I41
sg347
I18
sa(dp357
g342
g352
sg343
I7
sg344
I1
sg345
I28
sg346
I45
sg347
I36
sa(dp358
g342
g349
sg343
I8
sg344
I0
sg345
I15
sg346
I45
sg347
I0
satRp359
(dp360
g41
I01
sg42
(lp361
g343
ag346
ag344
ag347
ag345
ag342
asg44
Nsg45
I0
sg46
g47
(g13
tRp362
sbsS'max_archive_size'
p363
NsS'solution_found_flag'
p364
I01
sS'time_taken'
p365
F176.19207501411438
sS'benchmark_name'
p366
S'M_A4'
p367
sa(dp368
S'tree_str'
p369
S'a4(a4(a4(a4(ARG2,ARG1),a4(ARG2,a4(a4(ARG2,ARG2),ARG0))),a4(a4(ARG0,ARG2),a4(a4(ARG0,a4(ARG2,ARG0)),a4(ARG2,ARG0)))),a4(a4(a4(a4(ARG2,a4(a4(ARG2,ARG0),a4(a4(ARG0,ARG2),ARG2))),a4(ARG1,ARG0)),ARG1),ARG0))'
p370
sS'tree_len'
p371
I45
sS'archive_size'
p372
I11424
sS'number_of_operators'
p373
I22
sS'alg_name'
p374
S'small-LTI'
p375
sS'archive_tree_deapth'
p376
I3
sS'logbook'
p377
g12
(g13
g14
(lp378
(dp379
S'status'
p380
NsS'iteration'
p381
I0
sS'count_wrongs'
p382
I4
sS'picked_node'
p383
NsS'len_master_tree'
p384
I9
sS'total_wrongs'
p385
I33
sa(dp386
g380
S'perfect'
p387
sg381
I1
sg382
I4
sg383
I8
sg384
I17
sg385
I22
sa(dp388
g380
g387
sg381
I2
sg382
I4
sg383
I7
sg384
I29
sg385
I18
sa(dp389
g380
S'better'
p390
sg381
I3
sg382
I2
sg383
I2
sg384
I37
sg385
I14
sa(dp391
g380
g387
sg381
I4
sg382
I1
sg383
I36
sg384
I45
sg385
I3
sa(dp392
g380
S'worst'
p393
sg381
I5
sg382
I2
sg383
I3
sg384
I33
sg385
I23
sa(dp394
g380
g387
sg381
I6
sg382
I2
sg383
I22
sg384
I41
sg385
I18
sa(dp395
g380
g390
sg381
I7
sg382
I1
sg383
I26
sg384
I45
sg385
I36
sa(dp396
g380
g387
sg381
I8
sg382
I0
sg383
I11
sg384
I45
sg385
I0
satRp397
(dp398
g41
I01
sg42
(lp399
g381
ag384
ag382
ag385
ag383
ag380
asg44
Nsg45
I0
sg46
g47
(g13
tRp400
sbsS'max_archive_size'
p401
NsS'solution_found_flag'
p402
I01
sS'time_taken'
p403
F167.26896095275879
sS'benchmark_name'
p404
S'M_A4'
p405
sa(dp406
S'tree_str'
p407
S'a4(a4(a4(a4(ARG1,ARG1),a4(ARG0,a4(a4(ARG1,ARG2),a4(ARG2,a4(ARG0,ARG0))))),a4(a4(ARG2,ARG0),a4(a4(ARG1,a4(ARG0,ARG2)),a4(ARG0,ARG1)))),a4(a4(a4(a4(ARG2,a4(a4(ARG1,ARG1),a4(a4(ARG1,ARG2),ARG1))),ARG2),a4(ARG2,ARG1)),ARG0))'
p408
sS'tree_len'
p409
I49
sS'archive_size'
p410
I11424
sS'number_of_operators'
p411
I24
sS'alg_name'
p412
S'small-LTI'
p413
sS'archive_tree_deapth'
p414
I3
sS'logbook'
p415
g12
(g13
g14
(lp416
(dp417
S'status'
p418
NsS'iteration'
p419
I0
sS'count_wrongs'
p420
I4
sS'picked_node'
p421
NsS'len_master_tree'
p422
I9
sS'total_wrongs'
p423
I33
sa(dp424
g418
S'perfect'
p425
sg419
I1
sg420
I4
sg421
I8
sg422
I17
sg423
I22
sa(dp426
g418
g425
sg419
I2
sg420
I4
sg421
I7
sg422
I29
sg423
I18
sa(dp427
g418
S'better'
p428
sg419
I3
sg420
I3
sg421
I3
sg422
I37
sg423
I40
sa(dp429
g418
g425
sg419
I4
sg420
I2
sg421
I9
sg422
I37
sg423
I6
sa(dp430
g418
S'worst'
p431
sg419
I5
sg420
I3
sg421
I1
sg422
I33
sg423
I40
sa(dp432
g418
g425
sg419
I6
sg420
I2
sg421
I12
sg422
I35
sg423
I10
sa(dp433
g418
g425
sg419
I7
sg420
I2
sg421
I19
sg422
I39
sg423
I9
sa(dp434
g418
g425
sg419
I8
sg420
I1
sg421
I15
sg422
I39
sg423
I3
sa(dp435
g418
g431
sg419
I9
sg420
I2
sg421
I1
sg422
I25
sg423
I33
sa(dp436
g418
g425
sg419
I10
sg420
I2
sg421
I11
sg422
I33
sg423
I28
sa(dp437
g418
g425
sg419
I11
sg420
I1
sg421
I20
sg422
I41
sg423
I11
sa(dp438
g418
g425
sg419
I12
sg420
I0
sg421
I13
sg422
I49
sg423
I0
satRp439
(dp440
g41
I01
sg42
(lp441
g419
ag422
ag420
ag423
ag421
ag418
asg44
Nsg45
I0
sg46
g47
(g13
tRp442
sbsS'max_archive_size'
p443
NsS'solution_found_flag'
p444
I01
sS'time_taken'
p445
F176.31185388565063
sS'benchmark_name'
p446
S'M_A4'
p447
sa(dp448
S'tree_str'
p449
S'a4(a4(a4(a4(ARG2,ARG1),a4(ARG2,a4(a4(ARG2,ARG1),ARG0))),a4(a4(ARG0,ARG2),a4(a4(ARG0,a4(ARG2,ARG0)),a4(ARG2,ARG0)))),a4(a4(a4(a4(ARG2,ARG2),a4(ARG1,a4(a4(ARG2,ARG2),a4(a4(ARG0,ARG0),ARG2)))),ARG1),ARG0))'
p450
sS'tree_len'
p451
I45
sS'archive_size'
p452
I11424
sS'number_of_operators'
p453
I22
sS'alg_name'
p454
S'small-LTI'
p455
sS'archive_tree_deapth'
p456
I3
sS'logbook'
p457
g12
(g13
g14
(lp458
(dp459
S'status'
p460
NsS'iteration'
p461
I0
sS'count_wrongs'
p462
I4
sS'picked_node'
p463
NsS'len_master_tree'
p464
I9
sS'total_wrongs'
p465
I33
sa(dp466
g460
S'perfect'
p467
sg461
I1
sg462
I4
sg463
I8
sg464
I17
sg465
I22
sa(dp468
g460
g467
sg461
I2
sg462
I4
sg463
I7
sg464
I29
sg465
I18
sa(dp469
g460
S'better'
p470
sg461
I3
sg462
I2
sg463
I2
sg464
I37
sg465
I14
sa(dp471
g460
g467
sg461
I4
sg462
I1
sg463
I33
sg464
I45
sg465
I3
sa(dp472
g460
S'worst'
p473
sg461
I5
sg462
I2
sg463
I3
sg464
I33
sg465
I23
sa(dp474
g460
g467
sg461
I6
sg462
I2
sg463
I22
sg464
I41
sg465
I18
sa(dp475
g460
g470
sg461
I7
sg462
I1
sg463
I26
sg464
I45
sg465
I36
sa(dp476
g460
g467
sg461
I8
sg462
I0
sg463
I14
sg464
I45
sg465
I0
satRp477
(dp478
g41
I01
sg42
(lp479
g461
ag464
ag462
ag465
ag463
ag460
asg44
Nsg45
I0
sg46
g47
(g13
tRp480
sbsS'max_archive_size'
p481
NsS'solution_found_flag'
p482
I01
sS'time_taken'
p483
F162.44894504547119
sS'benchmark_name'
p484
S'M_A4'
p485
sa(dp486
S'tree_str'
p487
S'a4(a4(a4(a4(ARG1,ARG1),a4(ARG0,a4(a4(ARG0,ARG2),a4(ARG0,a4(ARG2,ARG0))))),a4(a4(ARG2,ARG0),a4(a4(ARG1,a4(ARG0,ARG1)),a4(ARG0,ARG2)))),a4(a4(a4(a4(ARG2,ARG2),a4(a4(ARG1,ARG1),a4(a4(ARG1,ARG2),ARG1))),a4(ARG2,ARG1)),ARG0))'
p488
sS'tree_len'
p489
I49
sS'archive_size'
p490
I11424
sS'number_of_operators'
p491
I24
sS'alg_name'
p492
S'small-LTI'
p493
sS'archive_tree_deapth'
p494
I3
sS'logbook'
p495
g12
(g13
g14
(lp496
(dp497
S'status'
p498
NsS'iteration'
p499
I0
sS'count_wrongs'
p500
I4
sS'picked_node'
p501
NsS'len_master_tree'
p502
I9
sS'total_wrongs'
p503
I33
sa(dp504
g498
S'perfect'
p505
sg499
I1
sg500
I4
sg501
I8
sg502
I17
sg503
I22
sa(dp506
g498
g505
sg499
I2
sg500
I4
sg501
I7
sg502
I29
sg503
I18
sa(dp507
g498
S'better'
p508
sg499
I3
sg500
I3
sg501
I3
sg502
I37
sg503
I40
sa(dp509
g498
g505
sg499
I4
sg500
I2
sg501
I7
sg502
I37
sg503
I6
sa(dp510
g498
S'worst'
p511
sg499
I5
sg500
I3
sg501
I1
sg502
I33
sg503
I38
sa(dp512
g498
g505
sg499
I6
sg500
I2
sg501
I10
sg502
I35
sg503
I8
sa(dp513
g498
g505
sg499
I7
sg500
I1
sg501
I15
sg502
I39
sg503
I3
sa(dp514
g498
g511
sg499
I8
sg500
I2
sg501
I1
sg502
I25
sg503
I33
sa(dp515
g498
g505
sg499
I9
sg500
I2
sg501
I8
sg502
I33
sg503
I28
sa(dp516
g498
g505
sg499
I10
sg500
I1
sg501
I13
sg502
I41
sg503
I9
sa(dp517
g498
g505
sg499
I11
sg500
I0
sg501
I19
sg502
I49
sg503
I0
satRp518
(dp519
g41
I01
sg42
(lp520
g499
ag502
ag500
ag503
ag501
ag498
asg44
Nsg45
I0
sg46
g47
(g13
tRp521
sbsS'max_archive_size'
p522
NsS'solution_found_flag'
p523
I01
sS'time_taken'
p524
F166.76141285896301
sS'benchmark_name'
p525
S'M_A4'
p526
sa(dp527
S'tree_str'
p528
S'a4(a4(a4(a4(ARG1,ARG1),a4(ARG0,a4(a4(ARG0,ARG1),a4(ARG0,a4(ARG2,ARG0))))),a4(a4(ARG2,ARG0),a4(a4(ARG1,a4(ARG0,ARG1)),a4(ARG0,ARG2)))),a4(a4(a4(a4(ARG2,ARG2),a4(ARG2,ARG2)),ARG1),ARG0))'
p529
sS'tree_len'
p530
I41
sS'archive_size'
p531
I11424
sS'number_of_operators'
p532
I20
sS'alg_name'
p533
S'small-LTI'
p534
sS'archive_tree_deapth'
p535
I3
sS'logbook'
p536
g12
(g13
g14
(lp537
(dp538
S'status'
p539
NsS'iteration'
p540
I0
sS'count_wrongs'
p541
I4
sS'picked_node'
p542
NsS'len_master_tree'
p543
I9
sS'total_wrongs'
p544
I33
sa(dp545
g539
S'perfect'
p546
sg540
I1
sg541
I4
sg542
I8
sg543
I17
sg544
I22
sa(dp547
g539
g546
sg540
I2
sg541
I4
sg542
I7
sg543
I29
sg544
I18
sa(dp548
g539
S'better'
p549
sg540
I3
sg541
I3
sg542
I3
sg543
I37
sg544
I38
sa(dp550
g539
g546
sg540
I4
sg541
I2
sg542
I7
sg543
I37
sg544
I6
sa(dp551
g539
S'worst'
p552
sg540
I5
sg541
I3
sg542
I1
sg543
I33
sg544
I41
sa(dp553
g539
g546
sg540
I6
sg541
I2
sg542
I10
sg543
I35
sg544
I11
sa(dp554
g539
g546
sg540
I7
sg541
I2
sg542
I15
sg543
I37
sg544
I6
sa(dp555
g539
g552
sg540
I8
sg541
I3
sg542
I1
sg543
I23
sg544
I35
sa(dp556
g539
g546
sg540
I9
sg541
I3
sg542
I4
sg543
I25
sg544
I32
sa(dp557
g539
g546
sg540
I10
sg541
I3
sg542
I4
sg543
I33
sg544
I31
sa(dp558
g539
g546
sg540
I11
sg541
I2
sg542
I6
sg543
I41
sg544
I12
sa(dp559
g539
g546
sg540
I12
sg541
I1
sg542
I12
sg543
I49
sg544
I3
sa(dp560
g539
g552
sg540
I13
sg541
I2
sg542
I1
sg543
I37
sg544
I37
sa(dp561
g539
g546
sg540
I14
sg541
I1
sg542
I29
sg543
I37
sg544
I6
sa(dp562
g539
g546
sg540
I15
sg541
I0
sg542
I31
sg543
I41
sg544
I0
satRp563
(dp564
g41
I01
sg42
(lp565
g540
ag543
ag541
ag544
ag542
ag539
asg44
Nsg45
I0
sg46
g47
(g13
tRp566
sbsS'max_archive_size'
p567
NsS'solution_found_flag'
p568
I01
sS'time_taken'
p569
F169.5657479763031
sS'benchmark_name'
p570
S'M_A4'
p571
sa(dp572
S'tree_str'
p573
S'a4(a4(a4(a4(ARG2,ARG1),a4(ARG2,a4(a4(ARG2,ARG2),a4(a4(ARG1,ARG1),a4(a4(ARG0,ARG0),ARG1))))),a4(a4(ARG0,ARG2),a4(a4(ARG0,a4(ARG2,ARG0)),a4(ARG2,ARG0)))),a4(a4(a4(a4(ARG2,ARG2),a4(a4(a4(ARG1,ARG0),ARG0),a4(ARG2,a4(ARG1,ARG0)))),ARG1),ARG0))'
p574
sS'tree_len'
p575
I53
sS'archive_size'
p576
I11424
sS'number_of_operators'
p577
I26
sS'alg_name'
p578
S'small-LTI'
p579
sS'archive_tree_deapth'
p580
I3
sS'logbook'
p581
g12
(g13
g14
(lp582
(dp583
S'status'
p584
NsS'iteration'
p585
I0
sS'count_wrongs'
p586
I4
sS'picked_node'
p587
NsS'len_master_tree'
p588
I9
sS'total_wrongs'
p589
I33
sa(dp590
g584
S'perfect'
p591
sg585
I1
sg586
I4
sg587
I8
sg588
I17
sg589
I22
sa(dp592
g584
g591
sg585
I2
sg586
I4
sg587
I7
sg588
I29
sg589
I18
sa(dp593
g584
S'better'
p594
sg585
I3
sg586
I2
sg587
I2
sg588
I37
sg589
I14
sa(dp595
g584
g591
sg585
I4
sg586
I1
sg587
I31
sg588
I45
sg589
I3
sa(dp596
g584
S'worst'
p597
sg585
I5
sg586
I2
sg587
I3
sg588
I33
sg589
I23
sa(dp598
g584
g591
sg585
I6
sg586
I2
sg587
I22
sg588
I41
sg589
I18
sa(dp599
g584
g594
sg585
I7
sg586
I1
sg587
I26
sg588
I45
sg589
I31
sa(dp600
g584
g591
sg585
I8
sg586
I0
sg587
I41
sg588
I53
sg589
I0
satRp601
(dp602
g41
I01
sg42
(lp603
g585
ag588
ag586
ag589
ag587
ag584
asg44
Nsg45
I0
sg46
g47
(g13
tRp604
sbsS'max_archive_size'
p605
NsS'solution_found_flag'
p606
I01
sS'time_taken'
p607
F160.7368540763855
sS'benchmark_name'
p608
S'M_A4'
p609
sa(dp610
S'tree_str'
p611
S'a4(a4(a4(a4(ARG2,ARG1),a4(ARG2,a4(a4(ARG2,ARG0),a4(ARG2,a4(ARG0,a4(ARG1,ARG0)))))),a4(a4(ARG0,ARG2),a4(a4(ARG0,a4(ARG2,ARG0)),a4(ARG2,ARG0)))),a4(a4(a4(a4(ARG2,ARG2),a4(a4(a4(ARG1,ARG0),ARG0),a4(ARG2,a4(ARG1,ARG0)))),ARG1),ARG0))'
p612
sS'tree_len'
p613
I51
sS'archive_size'
p614
I11424
sS'number_of_operators'
p615
I25
sS'alg_name'
p616
S'small-LTI'
p617
sS'archive_tree_deapth'
p618
I3
sS'logbook'
p619
g12
(g13
g14
(lp620
(dp621
S'status'
p622
NsS'iteration'
p623
I0
sS'count_wrongs'
p624
I4
sS'picked_node'
p625
NsS'len_master_tree'
p626
I9
sS'total_wrongs'
p627
I33
sa(dp628
g622
S'perfect'
p629
sg623
I1
sg624
I4
sg625
I8
sg626
I17
sg627
I22
sa(dp630
g622
g629
sg623
I2
sg624
I4
sg625
I7
sg626
I29
sg627
I18
sa(dp631
g622
S'better'
p632
sg623
I3
sg624
I2
sg625
I2
sg626
I37
sg627
I14
sa(dp633
g622
g629
sg623
I4
sg624
I1
sg625
I31
sg626
I45
sg627
I3
sa(dp634
g622
S'worst'
p635
sg623
I5
sg624
I2
sg625
I3
sg626
I33
sg627
I23
sa(dp636
g622
g629
sg623
I6
sg624
I2
sg625
I22
sg626
I41
sg627
I18
sa(dp637
g622
g632
sg623
I7
sg624
I1
sg625
I26
sg626
I45
sg627
I31
sa(dp638
g622
g629
sg623
I8
sg624
I0
sg625
I41
sg626
I51
sg627
I0
satRp639
(dp640
g41
I01
sg42
(lp641
g623
ag626
ag624
ag627
ag625
ag622
asg44
Nsg45
I0
sg46
g47
(g13
tRp642
sbsS'max_archive_size'
p643
NsS'solution_found_flag'
p644
I01
sS'time_taken'
p645
F169.40384793281555
sS'benchmark_name'
p646
S'M_A4'
p647
sa(dp648
S'tree_str'
p649
S'a4(a4(a4(a4(ARG2,ARG1),a4(ARG2,a4(a4(ARG2,ARG0),ARG0))),a4(a4(ARG0,ARG2),a4(a4(ARG0,a4(ARG2,ARG0)),a4(ARG2,ARG0)))),a4(a4(a4(a4(ARG2,a4(a4(ARG2,ARG0),a4(a4(ARG0,ARG2),ARG2))),a4(ARG1,ARG0)),ARG1),ARG0))'
p650
sS'tree_len'
p651
I45
sS'archive_size'
p652
I11424
sS'number_of_operators'
p653
I22
sS'alg_name'
p654
S'small-LTI'
p655
sS'archive_tree_deapth'
p656
I3
sS'logbook'
p657
g12
(g13
g14
(lp658
(dp659
S'status'
p660
NsS'iteration'
p661
I0
sS'count_wrongs'
p662
I4
sS'picked_node'
p663
NsS'len_master_tree'
p664
I9
sS'total_wrongs'
p665
I33
sa(dp666
g660
S'perfect'
p667
sg661
I1
sg662
I4
sg663
I8
sg664
I17
sg665
I22
sa(dp668
g660
g667
sg661
I2
sg662
I4
sg663
I7
sg664
I29
sg665
I18
sa(dp669
g660
S'better'
p670
sg661
I3
sg662
I2
sg663
I2
sg664
I37
sg665
I14
sa(dp671
g660
g667
sg661
I4
sg662
I1
sg663
I36
sg664
I45
sg665
I3
sa(dp672
g660
S'worst'
p673
sg661
I5
sg662
I2
sg663
I3
sg664
I33
sg665
I23
sa(dp674
g660
g667
sg661
I6
sg662
I2
sg663
I22
sg664
I41
sg665
I18
sa(dp675
g660
g670
sg661
I7
sg662
I1
sg663
I28
sg664
I45
sg665
I36
sa(dp676
g660
g667
sg661
I8
sg662
I0
sg663
I11
sg664
I45
sg665
I0
satRp677
(dp678
g41
I01
sg42
(lp679
g661
ag664
ag662
ag665
ag663
ag660
asg44
Nsg45
I0
sg46
g47
(g13
tRp680
sbsS'max_archive_size'
p681
NsS'solution_found_flag'
p682
I01
sS'time_taken'
p683
F177.16304206848145
sS'benchmark_name'
p684
S'M_A4'
p685
sa(dp686
S'tree_str'
p687
S'a4(a4(a4(a4(ARG2,ARG1),a4(ARG2,a4(a4(ARG2,ARG1),ARG0))),a4(a4(ARG0,ARG2),a4(a4(ARG0,a4(ARG2,ARG0)),a4(ARG2,ARG0)))),a4(a4(a4(a4(ARG2,a4(a4(ARG2,ARG0),a4(a4(ARG0,ARG2),ARG2))),a4(ARG1,ARG1)),ARG1),ARG0))'
p688
sS'tree_len'
p689
I45
sS'archive_size'
p690
I11424
sS'number_of_operators'
p691
I22
sS'alg_name'
p692
S'small-LTI'
p693
sS'archive_tree_deapth'
p694
I3
sS'logbook'
p695
g12
(g13
g14
(lp696
(dp697
S'status'
p698
NsS'iteration'
p699
I0
sS'count_wrongs'
p700
I4
sS'picked_node'
p701
NsS'len_master_tree'
p702
I9
sS'total_wrongs'
p703
I33
sa(dp704
g698
S'perfect'
p705
sg699
I1
sg700
I4
sg701
I8
sg702
I17
sg703
I22
sa(dp706
g698
g705
sg699
I2
sg700
I4
sg701
I7
sg702
I29
sg703
I18
sa(dp707
g698
S'better'
p708
sg699
I3
sg700
I2
sg701
I2
sg702
I37
sg703
I14
sa(dp709
g698
g705
sg699
I4
sg700
I1
sg701
I36
sg702
I45
sg703
I3
sa(dp710
g698
S'worst'
p711
sg699
I5
sg700
I2
sg701
I3
sg702
I33
sg703
I23
sa(dp712
g698
g705
sg699
I6
sg700
I2
sg701
I22
sg702
I41
sg703
I18
sa(dp713
g698
g708
sg699
I7
sg700
I1
sg701
I26
sg702
I45
sg703
I36
sa(dp714
g698
g705
sg699
I8
sg700
I0
sg701
I11
sg702
I45
sg703
I0
satRp715
(dp716
g41
I01
sg42
(lp717
g699
ag702
ag700
ag703
ag701
ag698
asg44
Nsg45
I0
sg46
g47
(g13
tRp718
sbsS'max_archive_size'
p719
NsS'solution_found_flag'
p720
I01
sS'time_taken'
p721
F168.20358300209045
sS'benchmark_name'
p722
S'M_A4'
p723
sa(dp724
S'tree_str'
p725
S'a4(a4(a4(a4(ARG2,ARG1),a4(ARG2,a4(a4(ARG2,ARG0),ARG0))),a4(a4(ARG0,ARG2),a4(a4(ARG0,a4(ARG2,ARG0)),a4(ARG2,ARG0)))),a4(a4(a4(a4(ARG2,ARG2),a4(ARG1,a4(a4(ARG2,ARG2),a4(a4(ARG0,ARG0),ARG2)))),ARG1),ARG0))'
p726
sS'tree_len'
p727
I45
sS'archive_size'
p728
I11424
sS'number_of_operators'
p729
I22
sS'alg_name'
p730
S'small-LTI'
p731
sS'archive_tree_deapth'
p732
I3
sS'logbook'
p733
g12
(g13
g14
(lp734
(dp735
S'status'
p736
NsS'iteration'
p737
I0
sS'count_wrongs'
p738
I4
sS'picked_node'
p739
NsS'len_master_tree'
p740
I9
sS'total_wrongs'
p741
I33
sa(dp742
g736
S'perfect'
p743
sg737
I1
sg738
I4
sg739
I8
sg740
I17
sg741
I22
sa(dp744
g736
g743
sg737
I2
sg738
I4
sg739
I7
sg740
I29
sg741
I18
sa(dp745
g736
S'better'
p746
sg737
I3
sg738
I2
sg739
I2
sg740
I37
sg741
I14
sa(dp747
g736
g743
sg737
I4
sg738
I1
sg739
I33
sg740
I45
sg741
I3
sa(dp748
g736
S'worst'
p749
sg737
I5
sg738
I2
sg739
I3
sg740
I33
sg741
I23
sa(dp750
g736
g743
sg737
I6
sg738
I2
sg739
I22
sg740
I41
sg741
I18
sa(dp751
g736
g746
sg737
I7
sg738
I1
sg739
I28
sg740
I45
sg741
I36
sa(dp752
g736
g743
sg737
I8
sg738
I0
sg739
I12
sg740
I45
sg741
I0
satRp753
(dp754
g41
I01
sg42
(lp755
g737
ag740
ag738
ag741
ag739
ag736
asg44
Nsg45
I0
sg46
g47
(g13
tRp756
sbsS'max_archive_size'
p757
NsS'solution_found_flag'
p758
I01
sS'time_taken'
p759
F165.76753211021423
sS'benchmark_name'
p760
S'M_A4'
p761
sa(dp762
S'tree_str'
p763
S'a4(a4(a4(a4(ARG1,ARG1),a4(ARG0,a4(a4(ARG0,ARG2),a4(ARG0,a4(ARG2,ARG0))))),a4(a4(ARG2,ARG0),a4(a4(ARG1,a4(ARG0,ARG1)),a4(ARG0,ARG2)))),a4(a4(a4(a4(a4(ARG1,ARG2),a4(ARG2,ARG0)),a4(a4(ARG1,ARG0),ARG2)),a4(ARG2,ARG1)),ARG0))'
p764
sS'tree_len'
p765
I49
sS'archive_size'
p766
I11424
sS'number_of_operators'
p767
I24
sS'alg_name'
p768
S'small-LTI'
p769
sS'archive_tree_deapth'
p770
I3
sS'logbook'
p771
g12
(g13
g14
(lp772
(dp773
S'status'
p774
NsS'iteration'
p775
I0
sS'count_wrongs'
p776
I4
sS'picked_node'
p777
NsS'len_master_tree'
p778
I9
sS'total_wrongs'
p779
I33
sa(dp780
g774
S'perfect'
p781
sg775
I1
sg776
I4
sg777
I8
sg778
I17
sg779
I22
sa(dp782
g774
g781
sg775
I2
sg776
I4
sg777
I7
sg778
I29
sg779
I18
sa(dp783
g774
S'better'
p784
sg775
I3
sg776
I3
sg777
I3
sg778
I37
sg779
I40
sa(dp785
g774
g781
sg775
I4
sg776
I2
sg777
I6
sg778
I37
sg779
I6
sa(dp786
g774
S'worst'
p787
sg775
I5
sg776
I3
sg777
I1
sg778
I33
sg779
I40
sa(dp788
g774
g781
sg775
I6
sg776
I2
sg777
I4
sg778
I35
sg779
I10
sa(dp789
g774
g781
sg775
I7
sg776
I1
sg777
I15
sg778
I39
sg779
I3
sa(dp790
g774
g787
sg775
I8
sg776
I2
sg777
I1
sg778
I25
sg779
I33
sa(dp791
g774
g781
sg775
I9
sg776
I2
sg777
I7
sg778
I33
sg779
I28
sa(dp792
g774
g781
sg775
I10
sg776
I1
sg777
I9
sg778
I41
sg779
I9
sa(dp793
g774
g781
sg775
I11
sg776
I0
sg777
I15
sg778
I49
sg779
I0
satRp794
(dp795
g41
I01
sg42
(lp796
g775
ag778
ag776
ag779
ag777
ag774
asg44
Nsg45
I0
sg46
g47
(g13
tRp797
sbsS'max_archive_size'
p798
NsS'solution_found_flag'
p799
I01
sS'time_taken'
p800
F170.59579396247864
sS'benchmark_name'
p801
S'M_A4'
p802
sa.