(lp1
(dp2
S'tree_str'
p3
S'a5(a5(a5(a5(a5(ARG2,a5(ARG2,ARG0)),a5(ARG0,a5(ARG1,ARG2))),ARG0),a5(a5(a5(ARG0,ARG2),a5(ARG0,a5(ARG1,ARG0))),ARG0)),a5(a5(ARG2,a5(ARG2,a5(ARG1,a5(ARG2,ARG1)))),a5(ARG0,ARG1)))'
p4
sS'tree_len'
p5
I39
sS'archive_size'
p6
I19766
sS'number_of_operators'
p7
I19
sS'alg_name'
p8
S'small-LTI'
p9
sS'archive_tree_deapth'
p10
I3
sS'logbook'
p11
ccopy_reg
_reconstructor
p12
(ctreeimprove.utilities
Logbook
p13
c__builtin__
list
p14
(lp15
(dp16
S'status'
p17
NsS'iteration'
p18
I0
sS'count_wrongs'
p19
I3
sS'picked_node'
p20
NsS'len_master_tree'
p21
I15
sS'total_wrongs'
p22
I29
sa(dp23
g17
S'perfect'
p24
sg18
I1
sg19
I1
sg20
I7
sg21
I21
sg22
I11
sa(dp25
g17
g24
sg18
I2
sg19
I1
sg20
I12
sg21
I31
sg22
I5
sa(dp26
g17
g24
sg18
I3
sg19
I0
sg20
I9
sg21
I39
sg22
I0
satRp27
(dp28
S'log_header'
p29
I01
sS'header'
p30
(lp31
g18
ag21
ag19
ag22
ag20
ag17
asS'columns_len'
p32
NsS'buffindex'
p33
I0
sS'chapters'
p34
ccollections
defaultdict
p35
(g13
tRp36
sbsS'max_archive_size'
p37
NsS'solution_found_flag'
p38
I01
sS'time_taken'
p39
F300.9674220085144
sS'benchmark_name'
p40
S'M_A5'
p41
sa(dp42
S'tree_str'
p43
S'a5(a5(a5(ARG2,a5(a5(ARG2,ARG2),a5(a5(ARG0,ARG0),a5(ARG1,ARG1)))),a5(a5(a5(ARG1,ARG1),ARG1),ARG0)),a5(a5(ARG2,a5(ARG2,a5(ARG1,a5(ARG2,ARG1)))),a5(ARG0,ARG1)))'
p44
sS'tree_len'
p45
I35
sS'archive_size'
p46
I19766
sS'number_of_operators'
p47
I17
sS'alg_name'
p48
S'small-LTI'
p49
sS'archive_tree_deapth'
p50
I3
sS'logbook'
p51
g12
(g13
g14
(lp52
(dp53
S'status'
p54
NsS'iteration'
p55
I0
sS'count_wrongs'
p56
I3
sS'picked_node'
p57
NsS'len_master_tree'
p58
I15
sS'total_wrongs'
p59
I29
sa(dp60
g54
S'perfect'
p61
sg55
I1
sg56
I1
sg57
I7
sg58
I21
sg59
I11
sa(dp62
g54
g61
sg55
I2
sg56
I1
sg57
I13
sg58
I31
sg59
I5
sa(dp63
g54
g61
sg55
I3
sg56
I0
sg57
I9
sg58
I35
sg59
I0
satRp64
(dp65
g29
I01
sg30
(lp66
g55
ag58
ag56
ag59
ag57
ag54
asg32
Nsg33
I0
sg34
g35
(g13
tRp67
sbsS'max_archive_size'
p68
NsS'solution_found_flag'
p69
I01
sS'time_taken'
p70
F302.19081902503967
sS'benchmark_name'
p71
S'M_A5'
p72
sa(dp73
S'tree_str'
p74
S'a5(a5(a5(a5(a5(ARG2,a5(ARG2,ARG0)),a5(ARG0,a5(ARG1,ARG2))),ARG0),a5(a5(a5(ARG0,ARG2),a5(ARG0,a5(ARG1,ARG0))),ARG0)),a5(a5(ARG2,a5(ARG2,a5(ARG1,a5(ARG2,ARG1)))),a5(ARG0,ARG1)))'
p75
sS'tree_len'
p76
I39
sS'archive_size'
p77
I19766
sS'number_of_operators'
p78
I19
sS'alg_name'
p79
S'small-LTI'
p80
sS'archive_tree_deapth'
p81
I3
sS'logbook'
p82
g12
(g13
g14
(lp83
(dp84
S'status'
p85
NsS'iteration'
p86
I0
sS'count_wrongs'
p87
I3
sS'picked_node'
p88
NsS'len_master_tree'
p89
I15
sS'total_wrongs'
p90
I29
sa(dp91
g85
S'perfect'
p92
sg86
I1
sg87
I1
sg88
I7
sg89
I21
sg90
I11
sa(dp93
g85
g92
sg86
I2
sg87
I1
sg88
I12
sg89
I31
sg90
I5
sa(dp94
g85
g92
sg86
I3
sg87
I0
sg88
I9
sg89
I39
sg90
I0
satRp95
(dp96
g29
I01
sg30
(lp97
g86
ag89
ag87
ag90
ag88
ag85
asg32
Nsg33
I0
sg34
g35
(g13
tRp98
sbsS'max_archive_size'
p99
NsS'solution_found_flag'
p100
I01
sS'time_taken'
p101
F289.41451501846313
sS'benchmark_name'
p102
S'M_A5'
p103
sa(dp104
S'tree_str'
p105
S'a5(a5(a5(a5(a5(ARG2,a5(ARG2,ARG0)),a5(ARG0,a5(ARG1,ARG2))),ARG0),a5(a5(a5(ARG0,ARG2),a5(ARG0,a5(ARG1,ARG0))),ARG0)),a5(a5(ARG2,a5(ARG2,a5(ARG1,a5(ARG2,ARG1)))),a5(ARG0,ARG1)))'
p106
sS'tree_len'
p107
I39
sS'archive_size'
p108
I19766
sS'number_of_operators'
p109
I19
sS'alg_name'
p110
S'small-LTI'
p111
sS'archive_tree_deapth'
p112
I3
sS'logbook'
p113
g12
(g13
g14
(lp114
(dp115
S'status'
p116
NsS'iteration'
p117
I0
sS'count_wrongs'
p118
I3
sS'picked_node'
p119
NsS'len_master_tree'
p120
I15
sS'total_wrongs'
p121
I29
sa(dp122
g116
S'perfect'
p123
sg117
I1
sg118
I1
sg119
I7
sg120
I21
sg121
I11
sa(dp124
g116
g123
sg117
I2
sg118
I1
sg119
I12
sg120
I31
sg121
I5
sa(dp125
g116
g123
sg117
I3
sg118
I0
sg119
I9
sg120
I39
sg121
I0
satRp126
(dp127
g29
I01
sg30
(lp128
g117
ag120
ag118
ag121
ag119
ag116
asg32
Nsg33
I0
sg34
g35
(g13
tRp129
sbsS'max_archive_size'
p130
NsS'solution_found_flag'
p131
I01
sS'time_taken'
p132
F302.71788501739502
sS'benchmark_name'
p133
S'M_A5'
p134
sa(dp135
S'tree_str'
p136
S'a5(a5(a5(a5(a5(ARG2,a5(ARG2,ARG0)),a5(ARG0,a5(ARG1,ARG2))),ARG0),a5(a5(a5(ARG0,ARG2),a5(ARG0,a5(ARG1,ARG0))),ARG0)),a5(a5(ARG2,a5(ARG2,a5(ARG1,a5(ARG2,ARG1)))),a5(ARG0,ARG1)))'
p137
sS'tree_len'
p138
I39
sS'archive_size'
p139
I19766
sS'number_of_operators'
p140
I19
sS'alg_name'
p141
S'small-LTI'
p142
sS'archive_tree_deapth'
p143
I3
sS'logbook'
p144
g12
(g13
g14
(lp145
(dp146
S'status'
p147
NsS'iteration'
p148
I0
sS'count_wrongs'
p149
I3
sS'picked_node'
p150
NsS'len_master_tree'
p151
I15
sS'total_wrongs'
p152
I29
sa(dp153
g147
S'perfect'
p154
sg148
I1
sg149
I1
sg150
I7
sg151
I21
sg152
I11
sa(dp155
g147
g154
sg148
I2
sg149
I1
sg150
I12
sg151
I31
sg152
I5
sa(dp156
g147
g154
sg148
I3
sg149
I0
sg150
I9
sg151
I39
sg152
I0
satRp157
(dp158
g29
I01
sg30
(lp159
g148
ag151
ag149
ag152
ag150
ag147
asg32
Nsg33
I0
sg34
g35
(g13
tRp160
sbsS'max_archive_size'
p161
NsS'solution_found_flag'
p162
I01
sS'time_taken'
p163
F292.00472402572632
sS'benchmark_name'
p164
S'M_A5'
p165
sa(dp166
S'tree_str'
p167
S'a5(a5(a5(a5(a5(ARG2,a5(ARG2,ARG0)),a5(ARG0,a5(ARG1,ARG2))),ARG0),a5(a5(a5(ARG0,ARG2),a5(ARG0,a5(ARG1,ARG0))),ARG0)),a5(a5(ARG2,a5(ARG2,a5(ARG1,a5(ARG2,ARG1)))),a5(ARG0,ARG1)))'
p168
sS'tree_len'
p169
I39
sS'archive_size'
p170
I19766
sS'number_of_operators'
p171
I19
sS'alg_name'
p172
S'small-LTI'
p173
sS'archive_tree_deapth'
p174
I3
sS'logbook'
p175
g12
(g13
g14
(lp176
(dp177
S'status'
p178
NsS'iteration'
p179
I0
sS'count_wrongs'
p180
I3
sS'picked_node'
p181
NsS'len_master_tree'
p182
I15
sS'total_wrongs'
p183
I29
sa(dp184
g178
S'perfect'
p185
sg179
I1
sg180
I1
sg181
I7
sg182
I21
sg183
I11
sa(dp186
g178
g185
sg179
I2
sg180
I1
sg181
I12
sg182
I31
sg183
I5
sa(dp187
g178
g185
sg179
I3
sg180
I0
sg181
I9
sg182
I39
sg183
I0
satRp188
(dp189
g29
I01
sg30
(lp190
g179
ag182
ag180
ag183
ag181
ag178
asg32
Nsg33
I0
sg34
g35
(g13
tRp191
sbsS'max_archive_size'
p192
NsS'solution_found_flag'
p193
I01
sS'time_taken'
p194
F301.76528596878052
sS'benchmark_name'
p195
S'M_A5'
p196
sa(dp197
S'tree_str'
p198
S'a5(a5(a5(ARG2,a5(a5(ARG2,ARG2),a5(a5(ARG0,ARG0),a5(ARG1,ARG1)))),a5(a5(a5(ARG1,ARG1),ARG1),ARG0)),a5(a5(ARG2,a5(ARG2,a5(ARG1,a5(ARG2,ARG1)))),a5(ARG0,ARG1)))'
p199
sS'tree_len'
p200
I35
sS'archive_size'
p201
I19766
sS'number_of_operators'
p202
I17
sS'alg_name'
p203
S'small-LTI'
p204
sS'archive_tree_deapth'
p205
I3
sS'logbook'
p206
g12
(g13
g14
(lp207
(dp208
S'status'
p209
NsS'iteration'
p210
I0
sS'count_wrongs'
p211
I3
sS'picked_node'
p212
NsS'len_master_tree'
p213
I15
sS'total_wrongs'
p214
I29
sa(dp215
g209
S'perfect'
p216
sg210
I1
sg211
I1
sg212
I7
sg213
I21
sg214
I11
sa(dp217
g209
g216
sg210
I2
sg211
I1
sg212
I13
sg213
I31
sg214
I5
sa(dp218
g209
g216
sg210
I3
sg211
I0
sg212
I8
sg213
I35
sg214
I0
satRp219
(dp220
g29
I01
sg30
(lp221
g210
ag213
ag211
ag214
ag212
ag209
asg32
Nsg33
I0
sg34
g35
(g13
tRp222
sbsS'max_archive_size'
p223
NsS'solution_found_flag'
p224
I01
sS'time_taken'
p225
F292.14360499382019
sS'benchmark_name'
p226
S'M_A5'
p227
sa(dp228
S'tree_str'
p229
S'a5(a5(a5(a5(a5(ARG2,a5(ARG2,ARG0)),a5(ARG0,a5(ARG1,ARG2))),ARG0),a5(a5(a5(ARG0,ARG2),a5(ARG0,a5(ARG1,ARG0))),ARG0)),a5(a5(ARG2,a5(ARG2,a5(ARG1,a5(ARG2,ARG1)))),a5(ARG0,ARG1)))'
p230
sS'tree_len'
p231
I39
sS'archive_size'
p232
I19766
sS'number_of_operators'
p233
I19
sS'alg_name'
p234
S'small-LTI'
p235
sS'archive_tree_deapth'
p236
I3
sS'logbook'
p237
g12
(g13
g14
(lp238
(dp239
S'status'
p240
NsS'iteration'
p241
I0
sS'count_wrongs'
p242
I3
sS'picked_node'
p243
NsS'len_master_tree'
p244
I15
sS'total_wrongs'
p245
I29
sa(dp246
g240
S'perfect'
p247
sg241
I1
sg242
I1
sg243
I7
sg244
I21
sg245
I11
sa(dp248
g240
g247
sg241
I2
sg242
I1
sg243
I12
sg244
I31
sg245
I5
sa(dp249
g240
g247
sg241
I3
sg242
I0
sg243
I9
sg244
I39
sg245
I0
satRp250
(dp251
g29
I01
sg30
(lp252
g241
ag244
ag242
ag245
ag243
ag240
asg32
Nsg33
I0
sg34
g35
(g13
tRp253
sbsS'max_archive_size'
p254
NsS'solution_found_flag'
p255
I01
sS'time_taken'
p256
F292.42120099067688
sS'benchmark_name'
p257
S'M_A5'
p258
sa(dp259
S'tree_str'
p260
S'a5(a5(a5(ARG2,a5(a5(ARG2,ARG2),a5(a5(ARG0,ARG0),a5(ARG1,ARG1)))),a5(a5(a5(ARG1,ARG1),ARG1),ARG0)),a5(a5(ARG2,a5(ARG2,a5(ARG1,a5(ARG2,ARG1)))),a5(ARG0,ARG1)))'
p261
sS'tree_len'
p262
I35
sS'archive_size'
p263
I19766
sS'number_of_operators'
p264
I17
sS'alg_name'
p265
S'small-LTI'
p266
sS'archive_tree_deapth'
p267
I3
sS'logbook'
p268
g12
(g13
g14
(lp269
(dp270
S'status'
p271
NsS'iteration'
p272
I0
sS'count_wrongs'
p273
I3
sS'picked_node'
p274
NsS'len_master_tree'
p275
I15
sS'total_wrongs'
p276
I29
sa(dp277
g271
S'perfect'
p278
sg272
I1
sg273
I1
sg274
I7
sg275
I21
sg276
I11
sa(dp279
g271
g278
sg272
I2
sg273
I1
sg274
I13
sg275
I31
sg276
I5
sa(dp280
g271
g278
sg272
I3
sg273
I0
sg274
I8
sg275
I35
sg276
I0
satRp281
(dp282
g29
I01
sg30
(lp283
g272
ag275
ag273
ag276
ag274
ag271
asg32
Nsg33
I0
sg34
g35
(g13
tRp284
sbsS'max_archive_size'
p285
NsS'solution_found_flag'
p286
I01
sS'time_taken'
p287
F290.05610513687134
sS'benchmark_name'
p288
S'M_A5'
p289
sa(dp290
S'tree_str'
p291
S'a5(a5(a5(a5(a5(ARG2,a5(ARG2,ARG0)),a5(ARG0,a5(ARG1,ARG2))),ARG0),a5(a5(a5(ARG0,ARG2),a5(ARG0,a5(ARG1,ARG0))),ARG0)),a5(a5(ARG2,a5(ARG2,a5(ARG1,a5(ARG2,ARG1)))),a5(ARG0,ARG1)))'
p292
sS'tree_len'
p293
I39
sS'archive_size'
p294
I19766
sS'number_of_operators'
p295
I19
sS'alg_name'
p296
S'small-LTI'
p297
sS'archive_tree_deapth'
p298
I3
sS'logbook'
p299
g12
(g13
g14
(lp300
(dp301
S'status'
p302
NsS'iteration'
p303
I0
sS'count_wrongs'
p304
I3
sS'picked_node'
p305
NsS'len_master_tree'
p306
I15
sS'total_wrongs'
p307
I29
sa(dp308
g302
S'perfect'
p309
sg303
I1
sg304
I1
sg305
I7
sg306
I21
sg307
I11
sa(dp310
g302
g309
sg303
I2
sg304
I1
sg305
I12
sg306
I31
sg307
I5
sa(dp311
g302
g309
sg303
I3
sg304
I0
sg305
I9
sg306
I39
sg307
I0
satRp312
(dp313
g29
I01
sg30
(lp314
g303
ag306
ag304
ag307
ag305
ag302
asg32
Nsg33
I0
sg34
g35
(g13
tRp315
sbsS'max_archive_size'
p316
NsS'solution_found_flag'
p317
I01
sS'time_taken'
p318
F301.81455683708191
sS'benchmark_name'
p319
S'M_A5'
p320
sa(dp321
S'tree_str'
p322
S'a5(a5(a5(ARG2,a5(a5(ARG2,ARG2),a5(a5(ARG0,ARG0),a5(ARG1,ARG1)))),a5(a5(a5(ARG1,ARG1),ARG1),ARG0)),a5(a5(ARG2,a5(ARG2,a5(ARG1,a5(ARG2,ARG1)))),a5(ARG0,ARG1)))'
p323
sS'tree_len'
p324
I35
sS'archive_size'
p325
I19766
sS'number_of_operators'
p326
I17
sS'alg_name'
p327
S'small-LTI'
p328
sS'archive_tree_deapth'
p329
I3
sS'logbook'
p330
g12
(g13
g14
(lp331
(dp332
S'status'
p333
NsS'iteration'
p334
I0
sS'count_wrongs'
p335
I3
sS'picked_node'
p336
NsS'len_master_tree'
p337
I15
sS'total_wrongs'
p338
I29
sa(dp339
g333
S'perfect'
p340
sg334
I1
sg335
I1
sg336
I7
sg337
I21
sg338
I11
sa(dp341
g333
g340
sg334
I2
sg335
I1
sg336
I13
sg337
I31
sg338
I5
sa(dp342
g333
g340
sg334
I3
sg335
I0
sg336
I9
sg337
I35
sg338
I0
satRp343
(dp344
g29
I01
sg30
(lp345
g334
ag337
ag335
ag338
ag336
ag333
asg32
Nsg33
I0
sg34
g35
(g13
tRp346
sbsS'max_archive_size'
p347
NsS'solution_found_flag'
p348
I01
sS'time_taken'
p349
F322.39121603965759
sS'benchmark_name'
p350
S'M_A5'
p351
sa(dp352
S'tree_str'
p353
S'a5(a5(a5(ARG2,a5(a5(ARG2,ARG2),a5(a5(ARG0,ARG0),a5(ARG1,ARG1)))),a5(a5(a5(ARG1,ARG1),ARG1),ARG0)),a5(a5(ARG2,a5(ARG2,a5(ARG1,a5(ARG2,ARG1)))),a5(ARG0,ARG1)))'
p354
sS'tree_len'
p355
I35
sS'archive_size'
p356
I19766
sS'number_of_operators'
p357
I17
sS'alg_name'
p358
S'small-LTI'
p359
sS'archive_tree_deapth'
p360
I3
sS'logbook'
p361
g12
(g13
g14
(lp362
(dp363
S'status'
p364
NsS'iteration'
p365
I0
sS'count_wrongs'
p366
I3
sS'picked_node'
p367
NsS'len_master_tree'
p368
I15
sS'total_wrongs'
p369
I29
sa(dp370
g364
S'perfect'
p371
sg365
I1
sg366
I1
sg367
I7
sg368
I21
sg369
I11
sa(dp372
g364
g371
sg365
I2
sg366
I1
sg367
I13
sg368
I31
sg369
I5
sa(dp373
g364
g371
sg365
I3
sg366
I0
sg367
I8
sg368
I35
sg369
I0
satRp374
(dp375
g29
I01
sg30
(lp376
g365
ag368
ag366
ag369
ag367
ag364
asg32
Nsg33
I0
sg34
g35
(g13
tRp377
sbsS'max_archive_size'
p378
NsS'solution_found_flag'
p379
I01
sS'time_taken'
p380
F322.25002002716064
sS'benchmark_name'
p381
S'M_A5'
p382
sa(dp383
S'tree_str'
p384
S'a5(a5(a5(a5(a5(ARG2,a5(ARG2,ARG0)),a5(ARG0,a5(ARG1,ARG2))),ARG0),a5(a5(a5(ARG0,ARG2),a5(ARG0,a5(ARG1,ARG0))),ARG0)),a5(a5(ARG2,a5(ARG2,a5(ARG1,a5(ARG2,ARG1)))),a5(ARG0,ARG1)))'
p385
sS'tree_len'
p386
I39
sS'archive_size'
p387
I19766
sS'number_of_operators'
p388
I19
sS'alg_name'
p389
S'small-LTI'
p390
sS'archive_tree_deapth'
p391
I3
sS'logbook'
p392
g12
(g13
g14
(lp393
(dp394
S'status'
p395
NsS'iteration'
p396
I0
sS'count_wrongs'
p397
I3
sS'picked_node'
p398
NsS'len_master_tree'
p399
I15
sS'total_wrongs'
p400
I29
sa(dp401
g395
S'perfect'
p402
sg396
I1
sg397
I1
sg398
I7
sg399
I21
sg400
I11
sa(dp403
g395
g402
sg396
I2
sg397
I1
sg398
I12
sg399
I31
sg400
I5
sa(dp404
g395
g402
sg396
I3
sg397
I0
sg398
I9
sg399
I39
sg400
I0
satRp405
(dp406
g29
I01
sg30
(lp407
g396
ag399
ag397
ag400
ag398
ag395
asg32
Nsg33
I0
sg34
g35
(g13
tRp408
sbsS'max_archive_size'
p409
NsS'solution_found_flag'
p410
I01
sS'time_taken'
p411
F321.98856496810913
sS'benchmark_name'
p412
S'M_A5'
p413
sa(dp414
S'tree_str'
p415
S'a5(a5(a5(a5(a5(ARG2,a5(ARG2,ARG0)),a5(ARG0,a5(ARG1,ARG2))),ARG0),a5(a5(a5(ARG0,ARG2),a5(ARG0,a5(ARG1,ARG0))),ARG0)),a5(a5(ARG2,a5(ARG2,a5(ARG1,a5(ARG2,ARG1)))),a5(ARG0,ARG1)))'
p416
sS'tree_len'
p417
I39
sS'archive_size'
p418
I19766
sS'number_of_operators'
p419
I19
sS'alg_name'
p420
S'small-LTI'
p421
sS'archive_tree_deapth'
p422
I3
sS'logbook'
p423
g12
(g13
g14
(lp424
(dp425
S'status'
p426
NsS'iteration'
p427
I0
sS'count_wrongs'
p428
I3
sS'picked_node'
p429
NsS'len_master_tree'
p430
I15
sS'total_wrongs'
p431
I29
sa(dp432
g426
S'perfect'
p433
sg427
I1
sg428
I1
sg429
I7
sg430
I21
sg431
I11
sa(dp434
g426
g433
sg427
I2
sg428
I1
sg429
I12
sg430
I31
sg431
I5
sa(dp435
g426
g433
sg427
I3
sg428
I0
sg429
I9
sg430
I39
sg431
I0
satRp436
(dp437
g29
I01
sg30
(lp438
g427
ag430
ag428
ag431
ag429
ag426
asg32
Nsg33
I0
sg34
g35
(g13
tRp439
sbsS'max_archive_size'
p440
NsS'solution_found_flag'
p441
I01
sS'time_taken'
p442
F322.42573595046997
sS'benchmark_name'
p443
S'M_A5'
p444
sa(dp445
S'tree_str'
p446
S'a5(a5(a5(ARG2,a5(a5(ARG2,ARG2),a5(a5(ARG0,ARG0),a5(ARG1,ARG1)))),a5(a5(a5(ARG1,ARG1),ARG1),ARG0)),a5(a5(ARG2,a5(ARG2,a5(ARG1,a5(ARG2,ARG1)))),a5(ARG0,ARG1)))'
p447
sS'tree_len'
p448
I35
sS'archive_size'
p449
I19766
sS'number_of_operators'
p450
I17
sS'alg_name'
p451
S'small-LTI'
p452
sS'archive_tree_deapth'
p453
I3
sS'logbook'
p454
g12
(g13
g14
(lp455
(dp456
S'status'
p457
NsS'iteration'
p458
I0
sS'count_wrongs'
p459
I3
sS'picked_node'
p460
NsS'len_master_tree'
p461
I15
sS'total_wrongs'
p462
I29
sa(dp463
g457
S'perfect'
p464
sg458
I1
sg459
I1
sg460
I7
sg461
I21
sg462
I11
sa(dp465
g457
g464
sg458
I2
sg459
I1
sg460
I13
sg461
I31
sg462
I5
sa(dp466
g457
g464
sg458
I3
sg459
I0
sg460
I8
sg461
I35
sg462
I0
satRp467
(dp468
g29
I01
sg30
(lp469
g458
ag461
ag459
ag462
ag460
ag457
asg32
Nsg33
I0
sg34
g35
(g13
tRp470
sbsS'max_archive_size'
p471
NsS'solution_found_flag'
p472
I01
sS'time_taken'
p473
F322.62568783760071
sS'benchmark_name'
p474
S'M_A5'
p475
sa(dp476
S'tree_str'
p477
S'a5(a5(a5(a5(a5(ARG2,a5(ARG2,ARG0)),a5(ARG0,a5(ARG1,ARG2))),ARG0),a5(a5(a5(ARG0,ARG2),a5(ARG0,a5(ARG1,ARG0))),ARG0)),a5(a5(ARG2,a5(ARG2,a5(ARG1,a5(ARG2,ARG1)))),a5(ARG0,ARG1)))'
p478
sS'tree_len'
p479
I39
sS'archive_size'
p480
I19766
sS'number_of_operators'
p481
I19
sS'alg_name'
p482
S'small-LTI'
p483
sS'archive_tree_deapth'
p484
I3
sS'logbook'
p485
g12
(g13
g14
(lp486
(dp487
S'status'
p488
NsS'iteration'
p489
I0
sS'count_wrongs'
p490
I3
sS'picked_node'
p491
NsS'len_master_tree'
p492
I15
sS'total_wrongs'
p493
I29
sa(dp494
g488
S'perfect'
p495
sg489
I1
sg490
I1
sg491
I7
sg492
I21
sg493
I11
sa(dp496
g488
g495
sg489
I2
sg490
I1
sg491
I12
sg492
I31
sg493
I5
sa(dp497
g488
g495
sg489
I3
sg490
I0
sg491
I9
sg492
I39
sg493
I0
satRp498
(dp499
g29
I01
sg30
(lp500
g489
ag492
ag490
ag493
ag491
ag488
asg32
Nsg33
I0
sg34
g35
(g13
tRp501
sbsS'max_archive_size'
p502
NsS'solution_found_flag'
p503
I01
sS'time_taken'
p504
F264.85315108299255
sS'benchmark_name'
p505
S'M_A5'
p506
sa(dp507
S'tree_str'
p508
S'a5(a5(a5(a5(a5(ARG2,a5(ARG2,ARG0)),a5(ARG0,a5(ARG1,ARG2))),ARG0),a5(a5(a5(ARG0,ARG2),a5(ARG0,a5(ARG1,ARG0))),ARG0)),a5(a5(ARG2,a5(ARG2,a5(ARG1,a5(ARG2,ARG1)))),a5(ARG0,ARG1)))'
p509
sS'tree_len'
p510
I39
sS'archive_size'
p511
I19766
sS'number_of_operators'
p512
I19
sS'alg_name'
p513
S'small-LTI'
p514
sS'archive_tree_deapth'
p515
I3
sS'logbook'
p516
g12
(g13
g14
(lp517
(dp518
S'status'
p519
NsS'iteration'
p520
I0
sS'count_wrongs'
p521
I3
sS'picked_node'
p522
NsS'len_master_tree'
p523
I15
sS'total_wrongs'
p524
I29
sa(dp525
g519
S'perfect'
p526
sg520
I1
sg521
I1
sg522
I7
sg523
I21
sg524
I11
sa(dp527
g519
g526
sg520
I2
sg521
I1
sg522
I12
sg523
I31
sg524
I5
sa(dp528
g519
g526
sg520
I3
sg521
I0
sg522
I9
sg523
I39
sg524
I0
satRp529
(dp530
g29
I01
sg30
(lp531
g520
ag523
ag521
ag524
ag522
ag519
asg32
Nsg33
I0
sg34
g35
(g13
tRp532
sbsS'max_archive_size'
p533
NsS'solution_found_flag'
p534
I01
sS'time_taken'
p535
F327.47432494163513
sS'benchmark_name'
p536
S'M_A5'
p537
sa(dp538
S'tree_str'
p539
S'a5(a5(a5(a5(a5(ARG2,a5(ARG2,ARG0)),a5(ARG0,a5(ARG1,ARG2))),ARG0),a5(a5(a5(ARG0,ARG2),a5(ARG0,a5(ARG1,ARG0))),ARG0)),a5(a5(ARG2,a5(ARG2,a5(ARG1,a5(ARG2,ARG1)))),a5(ARG0,ARG1)))'
p540
sS'tree_len'
p541
I39
sS'archive_size'
p542
I19766
sS'number_of_operators'
p543
I19
sS'alg_name'
p544
S'small-LTI'
p545
sS'archive_tree_deapth'
p546
I3
sS'logbook'
p547
g12
(g13
g14
(lp548
(dp549
S'status'
p550
NsS'iteration'
p551
I0
sS'count_wrongs'
p552
I3
sS'picked_node'
p553
NsS'len_master_tree'
p554
I15
sS'total_wrongs'
p555
I29
sa(dp556
g550
S'perfect'
p557
sg551
I1
sg552
I1
sg553
I7
sg554
I21
sg555
I11
sa(dp558
g550
g557
sg551
I2
sg552
I1
sg553
I12
sg554
I31
sg555
I5
sa(dp559
g550
g557
sg551
I3
sg552
I0
sg553
I9
sg554
I39
sg555
I0
satRp560
(dp561
g29
I01
sg30
(lp562
g551
ag554
ag552
ag555
ag553
ag550
asg32
Nsg33
I0
sg34
g35
(g13
tRp563
sbsS'max_archive_size'
p564
NsS'solution_found_flag'
p565
I01
sS'time_taken'
p566
F264.69051098823547
sS'benchmark_name'
p567
S'M_A5'
p568
sa(dp569
S'tree_str'
p570
S'a5(a5(a5(a5(a5(ARG2,a5(ARG2,ARG0)),a5(ARG0,a5(ARG1,ARG2))),ARG0),a5(a5(a5(ARG0,ARG2),a5(ARG0,a5(ARG1,ARG0))),ARG0)),a5(a5(ARG2,a5(ARG2,a5(ARG1,a5(ARG2,ARG1)))),a5(ARG0,ARG1)))'
p571
sS'tree_len'
p572
I39
sS'archive_size'
p573
I19766
sS'number_of_operators'
p574
I19
sS'alg_name'
p575
S'small-LTI'
p576
sS'archive_tree_deapth'
p577
I3
sS'logbook'
p578
g12
(g13
g14
(lp579
(dp580
S'status'
p581
NsS'iteration'
p582
I0
sS'count_wrongs'
p583
I3
sS'picked_node'
p584
NsS'len_master_tree'
p585
I15
sS'total_wrongs'
p586
I29
sa(dp587
g581
S'perfect'
p588
sg582
I1
sg583
I1
sg584
I7
sg585
I21
sg586
I11
sa(dp589
g581
g588
sg582
I2
sg583
I1
sg584
I12
sg585
I31
sg586
I5
sa(dp590
g581
g588
sg582
I3
sg583
I0
sg584
I9
sg585
I39
sg586
I0
satRp591
(dp592
g29
I01
sg30
(lp593
g582
ag585
ag583
ag586
ag584
ag581
asg32
Nsg33
I0
sg34
g35
(g13
tRp594
sbsS'max_archive_size'
p595
NsS'solution_found_flag'
p596
I01
sS'time_taken'
p597
F263.92875814437866
sS'benchmark_name'
p598
S'M_A5'
p599
sa(dp600
S'tree_str'
p601
S'a5(a5(a5(a5(a5(ARG2,a5(ARG2,ARG0)),a5(ARG0,a5(ARG1,ARG2))),ARG0),a5(a5(a5(ARG0,ARG2),a5(ARG0,a5(ARG1,ARG0))),ARG0)),a5(a5(ARG2,a5(ARG2,a5(ARG1,a5(ARG2,ARG1)))),a5(ARG0,ARG1)))'
p602
sS'tree_len'
p603
I39
sS'archive_size'
p604
I19766
sS'number_of_operators'
p605
I19
sS'alg_name'
p606
S'small-LTI'
p607
sS'archive_tree_deapth'
p608
I3
sS'logbook'
p609
g12
(g13
g14
(lp610
(dp611
S'status'
p612
NsS'iteration'
p613
I0
sS'count_wrongs'
p614
I3
sS'picked_node'
p615
NsS'len_master_tree'
p616
I15
sS'total_wrongs'
p617
I29
sa(dp618
g612
S'perfect'
p619
sg613
I1
sg614
I1
sg615
I7
sg616
I21
sg617
I11
sa(dp620
g612
g619
sg613
I2
sg614
I1
sg615
I12
sg616
I31
sg617
I5
sa(dp621
g612
g619
sg613
I3
sg614
I0
sg615
I9
sg616
I39
sg617
I0
satRp622
(dp623
g29
I01
sg30
(lp624
g613
ag616
ag614
ag617
ag615
ag612
asg32
Nsg33
I0
sg34
g35
(g13
tRp625
sbsS'max_archive_size'
p626
NsS'solution_found_flag'
p627
I01
sS'time_taken'
p628
F264.32932806015015
sS'benchmark_name'
p629
S'M_A5'
p630
sa.