(lp1
(dp2
S'tree_str'
p3
S'a1(a1(a1(a1(ARG2,a1(ARG1,a1(ARG2,ARG0))),ARG0),a1(a1(a1(a1(ARG0,ARG1),ARG1),ARG1),a1(a1(ARG2,ARG0),a1(ARG1,a1(ARG1,ARG0))))),a1(a1(ARG2,a1(a1(ARG0,ARG0),a1(ARG0,ARG0))),ARG2))'
p4
sS'tree_len'
p5
I39
sS'archive_size'
p6
I134
sS'number_of_operators'
p7
I19
sS'alg_name'
p8
S'small-LTI'
p9
sS'archive_tree_deapth'
p10
I2
sS'logbook'
p11
ccopy_reg
_reconstructor
p12
(ctreeimprove.utilities
Logbook
p13
c__builtin__
list
p14
(lp15
(dp16
S'status'
p17
NsS'iteration'
p18
I0
sS'count_wrongs'
p19
I6
sS'picked_node'
p20
NsS'len_master_tree'
p21
I1
sS'total_wrongs'
p22
I6
sa(dp23
g17
S'worst'
p24
sg18
I1
sg19
I7
sg20
I0
sg21
I5
sg22
I28
sa(dp25
g17
S'better'
p26
sg18
I2
sg19
I6
sg20
I4
sg21
I9
sg22
I23
sa(dp27
g17
g26
sg18
I3
sg19
I5
sg20
I3
sg21
I15
sg22
I28
sa(dp28
g17
S'perfect'
p29
sg18
I4
sg19
I5
sg20
I11
sg21
I15
sg22
I25
sa(dp30
g17
g24
sg18
I5
sg19
I6
sg20
I3
sg21
I15
sg22
I36
sa(dp31
g17
g26
sg18
I6
sg19
I5
sg20
I10
sg21
I15
sg22
I28
sa(dp32
g17
g26
sg18
I7
sg19
I4
sg20
I7
sg21
I19
sg22
I24
sa(dp33
g17
g29
sg18
I8
sg19
I4
sg20
I7
sg21
I23
sg22
I8
sa(dp34
g17
g24
sg18
I9
sg19
I6
sg20
I0
sg21
I1
sg22
I6
sa(dp35
g17
g24
sg18
I10
sg19
I7
sg20
I0
sg21
I5
sg22
I29
sa(dp36
g17
g26
sg18
I11
sg19
I4
sg20
I4
sg21
I9
sg22
I22
sa(dp37
g17
g26
sg18
I12
sg19
I3
sg20
I7
sg21
I13
sg22
I18
sa(dp38
g17
g29
sg18
I13
sg19
I3
sg20
I5
sg21
I17
sg22
I9
sa(dp39
g17
g24
sg18
I14
sg19
I4
sg20
I1
sg21
I21
sg22
I36
sa(dp40
g17
g29
sg18
I15
sg19
I4
sg20
I5
sg21
I25
sg22
I30
sa(dp41
g17
g29
sg18
I16
sg19
I3
sg20
I11
sg21
I29
sg22
I17
sa(dp42
g17
g26
sg18
I17
sg19
I2
sg20
I18
sg21
I35
sg22
I28
sa(dp43
g17
g29
sg18
I18
sg19
I1
sg20
I33
sg21
I37
sg22
I3
sa(dp44
g17
g24
sg18
I19
sg19
I3
sg20
I2
sg21
I37
sg22
I36
sa(dp45
g17
g29
sg18
I20
sg19
I3
sg20
I9
sg21
I35
sg22
I21
sa(dp46
g17
g26
sg18
I21
sg19
I2
sg20
I27
sg21
I35
sg22
I23
sa(dp47
g17
g29
sg18
I22
sg19
I1
sg20
I28
sg21
I37
sg22
I3
sa(dp48
g17
g24
sg18
I23
sg19
I4
sg20
I31
sg21
I41
sg22
I105
sa(dp49
g17
g29
sg18
I24
sg19
I2
sg20
I40
sg21
I45
sg22
I51
sa(dp50
g17
g29
sg18
I25
sg19
I1
sg20
I13
sg21
I41
sg22
I25
sa(dp51
g17
g29
sg18
I26
sg19
I1
sg20
I4
sg21
I41
sg22
I19
sa(dp52
g17
g29
sg18
I27
sg19
I0
sg20
I8
sg21
I39
sg22
I0
satRp53
(dp54
S'log_header'
p55
I01
sS'header'
p56
(lp57
g18
ag21
ag19
ag22
ag20
ag17
asS'columns_len'
p58
NsS'buffindex'
p59
I0
sS'chapters'
p60
ccollections
defaultdict
p61
(g13
tRp62
sbsS'max_archive_size'
p63
NsS'solution_found_flag'
p64
I01
sS'time_taken'
p65
F0.85997509956359863
sS'benchmark_name'
p66
S'M_A1'
p67
sa(dp68
S'tree_str'
p69
S'a1(a1(a1(a1(ARG0,a1(ARG0,a1(ARG0,ARG2))),ARG2),a1(a1(a1(a1(ARG1,ARG2),a1(ARG2,ARG1)),a1(a1(ARG2,a1(a1(ARG1,ARG1),ARG0)),a1(ARG1,ARG2))),a1(ARG0,a1(a1(ARG2,ARG0),ARG1)))),a1(a1(a1(a1(a1(ARG2,ARG1),ARG2),a1(ARG0,a1(a1(ARG0,a1(ARG2,a1(ARG2,ARG0))),ARG0))),a1(ARG1,a1(ARG1,ARG2))),a1(a1(ARG2,a1(a1(ARG0,ARG2),ARG1)),ARG0)))'
p70
sS'tree_len'
p71
I71
sS'archive_size'
p72
I134
sS'number_of_operators'
p73
I35
sS'alg_name'
p74
S'small-LTI'
p75
sS'archive_tree_deapth'
p76
I2
sS'logbook'
p77
g12
(g13
g14
(lp78
(dp79
S'status'
p80
NsS'iteration'
p81
I0
sS'count_wrongs'
p82
I6
sS'picked_node'
p83
NsS'len_master_tree'
p84
I1
sS'total_wrongs'
p85
I6
sa(dp86
g80
S'worst'
p87
sg81
I1
sg82
I7
sg83
I0
sg84
I5
sg85
I28
sa(dp88
g80
S'better'
p89
sg81
I2
sg82
I6
sg83
I4
sg84
I9
sg85
I23
sa(dp90
g80
g89
sg81
I3
sg82
I5
sg83
I3
sg84
I13
sg85
I31
sa(dp91
g80
g87
sg81
I4
sg82
I6
sg83
I9
sg84
I15
sg85
I45
sa(dp92
g80
S'perfect'
p93
sg81
I5
sg82
I4
sg83
I13
sg84
I19
sg85
I18
sa(dp94
g80
g87
sg81
I6
sg82
I5
sg83
I8
sg84
I13
sg85
I31
sa(dp95
g80
g87
sg81
I7
sg82
I6
sg83
I9
sg84
I15
sg85
I42
sa(dp96
g80
g93
sg81
I8
sg82
I4
sg83
I13
sg84
I19
sg85
I18
sa(dp97
g80
g87
sg81
I9
sg82
I5
sg83
I8
sg84
I15
sg85
I27
sa(dp98
g80
g93
sg81
I10
sg82
I4
sg83
I10
sg84
I19
sg85
I18
sa(dp99
g80
g87
sg81
I11
sg82
I5
sg83
I8
sg84
I15
sg85
I27
sa(dp100
g80
g93
sg81
I12
sg82
I4
sg83
I10
sg84
I19
sg85
I18
sa(dp101
g80
g87
sg81
I13
sg82
I5
sg83
I8
sg84
I15
sg85
I28
sa(dp102
g80
g93
sg81
I14
sg82
I5
sg83
I11
sg84
I15
sg85
I25
sa(dp103
g80
g89
sg81
I15
sg82
I4
sg83
I12
sg84
I19
sg85
I21
sa(dp104
g80
g93
sg81
I16
sg82
I4
sg83
I12
sg84
I25
sg85
I21
sa(dp105
g80
g87
sg81
I17
sg82
I5
sg83
I11
sg84
I15
sg85
I25
sa(dp106
g80
g87
sg81
I18
sg82
I6
sg83
I5
sg84
I15
sg85
I36
sa(dp107
g80
g89
sg81
I19
sg82
I5
sg83
I5
sg84
I13
sg85
I21
sa(dp108
g80
g87
sg81
I20
sg82
I5
sg83
I3
sg84
I13
sg85
I31
sa(dp109
g80
g89
sg81
I21
sg82
I5
sg83
I8
sg84
I13
sg85
I21
sa(dp110
g80
g87
sg81
I22
sg82
I5
sg83
I10
sg84
I13
sg85
I32
sa(dp111
g80
g89
sg81
I23
sg82
I5
sg83
I10
sg84
I13
sg85
I21
sa(dp112
g80
g87
sg81
I24
sg82
I5
sg83
I3
sg84
I13
sg85
I32
sa(dp113
g80
g89
sg81
I25
sg82
I6
sg83
I7
sg84
I17
sg85
I29
sa(dp114
g80
g89
sg81
I26
sg82
I5
sg83
I4
sg84
I17
sg85
I18
sa(dp115
g80
g93
sg81
I27
sg82
I5
sg83
I10
sg84
I21
sg85
I22
sa(dp116
g80
g93
sg81
I28
sg82
I5
sg83
I14
sg84
I25
sg85
I19
sa(dp117
g80
g87
sg81
I29
sg82
I6
sg83
I4
sg84
I19
sg85
I39
sa(dp118
g80
g93
sg81
I30
sg82
I6
sg83
I9
sg84
I19
sg85
I32
sa(dp119
g80
g89
sg81
I31
sg82
I5
sg83
I4
sg84
I15
sg85
I20
sa(dp120
g80
g93
sg81
I32
sg82
I4
sg83
I7
sg84
I17
sg85
I8
sa(dp121
g80
g87
sg81
I33
sg82
I6
sg83
I0
sg84
I1
sg85
I6
sa(dp122
g80
g87
sg81
I34
sg82
I7
sg83
I0
sg84
I5
sg85
I28
sa(dp123
g80
g89
sg81
I35
sg82
I6
sg83
I4
sg84
I9
sg85
I23
sa(dp124
g80
g89
sg81
I36
sg82
I5
sg83
I3
sg84
I15
sg85
I28
sa(dp125
g80
g93
sg81
I37
sg82
I5
sg83
I10
sg84
I19
sg85
I25
sa(dp126
g80
g89
sg81
I38
sg82
I5
sg83
I13
sg84
I25
sg85
I33
sa(dp127
g80
g93
sg81
I39
sg82
I4
sg83
I22
sg84
I27
sg85
I17
sa(dp128
g80
g87
sg81
I40
sg82
I5
sg83
I8
sg84
I15
sg85
I28
sa(dp129
g80
g89
sg81
I41
sg82
I5
sg83
I14
sg84
I15
sg85
I27
sa(dp130
g80
g89
sg81
I42
sg82
I5
sg83
I13
sg84
I19
sg85
I23
sa(dp131
g80
g87
sg81
I43
sg82
I5
sg83
I8
sg84
I15
sg85
I28
sa(dp132
g80
g93
sg81
I44
sg82
I5
sg83
I10
sg84
I15
sg85
I25
sa(dp133
g80
g87
sg81
I45
sg82
I6
sg83
I3
sg84
I15
sg85
I42
sa(dp134
g80
g89
sg81
I46
sg82
I5
sg83
I12
sg84
I15
sg85
I28
sa(dp135
g80
g89
sg81
I47
sg82
I4
sg83
I7
sg84
I19
sg85
I24
sa(dp136
g80
g93
sg81
I48
sg82
I4
sg83
I7
sg84
I23
sg85
I8
sa(dp137
g80
g87
sg81
I49
sg82
I6
sg83
I1
sg84
I27
sg85
I71
sa(dp138
g80
g93
sg81
I50
sg82
I5
sg83
I4
sg84
I29
sg85
I46
sa(dp139
g80
g93
sg81
I51
sg82
I4
sg83
I10
sg84
I33
sg85
I34
sa(dp140
g80
g93
sg81
I52
sg82
I4
sg83
I19
sg84
I37
sg85
I33
sa(dp141
g80
g93
sg81
I53
sg82
I4
sg83
I18
sg84
I41
sg85
I38
sa(dp142
g80
g93
sg81
I54
sg82
I3
sg83
I10
sg84
I41
sg85
I15
sa(dp143
g80
g87
sg81
I55
sg82
I4
sg83
I16
sg84
I43
sg85
I51
sa(dp144
g80
g93
sg81
I56
sg82
I3
sg83
I34
sg84
I45
sg85
I18
sa(dp145
g80
g93
sg81
I57
sg82
I3
sg83
I16
sg84
I47
sg85
I17
sa(dp146
g80
g89
sg81
I58
sg82
I2
sg83
I40
sg84
I53
sg85
I16
sa(dp147
g80
g93
sg81
I59
sg82
I2
sg83
I52
sg84
I55
sg85
I15
sa(dp148
g80
g93
sg81
I60
sg82
I1
sg83
I39
sg84
I61
sg85
I3
sa(dp149
g80
g87
sg81
I61
sg82
I2
sg83
I14
sg84
I65
sg85
I74
sa(dp150
g80
g93
sg81
I62
sg82
I2
sg83
I23
sg84
I61
sg85
I63
sa(dp151
g80
g93
sg81
I63
sg82
I2
sg83
I45
sg84
I63
sg85
I56
sa(dp152
g80
g93
sg81
I64
sg82
I1
sg83
I57
sg84
I63
sg85
I18
sa(dp153
g80
g93
sg81
I65
sg82
I1
sg83
I38
sg84
I67
sg85
I7
sa(dp154
g80
g93
sg81
I66
sg82
I0
sg83
I55
sg84
I71
sg85
I0
satRp155
(dp156
g55
I01
sg56
(lp157
g81
ag84
ag82
ag85
ag83
ag80
asg58
Nsg59
I0
sg60
g61
(g13
tRp158
sbsS'max_archive_size'
p159
NsS'solution_found_flag'
p160
I01
sS'time_taken'
p161
F1.8286750316619873
sS'benchmark_name'
p162
S'M_A1'
p163
sa(dp164
S'tree_str'
p165
S'a1(a1(a1(a1(ARG2,a1(ARG2,a1(ARG0,ARG2))),a1(ARG1,ARG0)),a1(a1(a1(a1(ARG0,ARG2),ARG1),a1(a1(ARG1,ARG2),ARG0)),a1(a1(ARG1,a1(a1(ARG0,ARG1),a1(ARG0,ARG1))),ARG1))),a1(a1(ARG2,a1(a1(ARG0,ARG0),a1(ARG2,a1(ARG1,ARG2)))),ARG2))'
p166
sS'tree_len'
p167
I49
sS'archive_size'
p168
I134
sS'number_of_operators'
p169
I24
sS'alg_name'
p170
S'small-LTI'
p171
sS'archive_tree_deapth'
p172
I2
sS'logbook'
p173
g12
(g13
g14
(lp174
(dp175
S'status'
p176
NsS'iteration'
p177
I0
sS'count_wrongs'
p178
I6
sS'picked_node'
p179
NsS'len_master_tree'
p180
I1
sS'total_wrongs'
p181
I6
sa(dp182
g176
S'worst'
p183
sg177
I1
sg178
I7
sg179
I0
sg180
I5
sg181
I28
sa(dp184
g176
S'better'
p185
sg177
I2
sg178
I6
sg179
I4
sg180
I9
sg181
I23
sa(dp186
g176
g185
sg177
I3
sg178
I5
sg179
I3
sg180
I15
sg181
I28
sa(dp187
g176
S'perfect'
p188
sg177
I4
sg178
I5
sg179
I9
sg180
I15
sg181
I25
sa(dp189
g176
g183
sg177
I5
sg178
I6
sg179
I6
sg180
I15
sg181
I36
sa(dp190
g176
g185
sg177
I6
sg178
I5
sg179
I7
sg180
I13
sg181
I21
sa(dp191
g176
g183
sg177
I7
sg178
I5
sg179
I8
sg180
I13
sg181
I29
sa(dp192
g176
g188
sg177
I8
sg178
I4
sg179
I12
sg180
I17
sg181
I8
sa(dp193
g176
g183
sg177
I9
sg178
I6
sg179
I0
sg180
I1
sg181
I6
sa(dp194
g176
g183
sg177
I10
sg178
I7
sg179
I0
sg180
I5
sg181
I29
sa(dp195
g176
g185
sg177
I11
sg178
I4
sg179
I4
sg180
I9
sg181
I22
sa(dp196
g176
g185
sg177
I12
sg178
I3
sg179
I7
sg180
I13
sg181
I18
sa(dp197
g176
g188
sg177
I13
sg178
I3
sg179
I5
sg180
I17
sg181
I9
sa(dp198
g176
g183
sg177
I14
sg178
I4
sg179
I1
sg180
I21
sg181
I36
sa(dp199
g176
g188
sg177
I15
sg178
I4
sg179
I15
sg180
I25
sg181
I31
sa(dp200
g176
g188
sg177
I16
sg178
I3
sg179
I5
sg180
I29
sg181
I17
sa(dp201
g176
g185
sg177
I17
sg178
I2
sg179
I18
sg180
I35
sg181
I32
sa(dp202
g176
g188
sg177
I18
sg178
I1
sg179
I27
sg180
I35
sg181
I3
sa(dp203
g176
g183
sg177
I19
sg178
I4
sg179
I2
sg180
I41
sg181
I87
sa(dp204
g176
g188
sg177
I20
sg178
I4
sg179
I18
sg180
I43
sg181
I72
sa(dp205
g176
g188
sg177
I21
sg178
I3
sg179
I10
sg180
I43
sg181
I47
sa(dp206
g176
g188
sg177
I22
sg178
I1
sg179
I25
sg180
I45
sg181
I9
sa(dp207
g176
g188
sg177
I23
sg178
I0
sg179
I35
sg180
I49
sg181
I0
satRp208
(dp209
g55
I01
sg56
(lp210
g177
ag180
ag178
ag181
ag179
ag176
asg58
Nsg59
I0
sg60
g61
(g13
tRp211
sbsS'max_archive_size'
p212
NsS'solution_found_flag'
p213
I01
sS'time_taken'
p214
F0.61612296104431152
sS'benchmark_name'
p215
S'M_A1'
p216
sa(dp217
S'tree_str'
p218
S'a1(a1(a1(a1(ARG2,a1(a1(a1(a1(ARG2,ARG0),ARG2),ARG2),ARG1)),ARG0),a1(a1(a1(a1(ARG0,a1(a1(ARG0,ARG1),ARG0)),ARG1),ARG2),a1(a1(ARG1,ARG1),ARG2))),a1(ARG0,a1(ARG2,a1(a1(ARG1,a1(a1(ARG0,ARG1),ARG1)),a1(ARG2,ARG0)))))'
p219
sS'tree_len'
p220
I47
sS'archive_size'
p221
I134
sS'number_of_operators'
p222
I23
sS'alg_name'
p223
S'small-LTI'
p224
sS'archive_tree_deapth'
p225
I2
sS'logbook'
p226
g12
(g13
g14
(lp227
(dp228
S'status'
p229
NsS'iteration'
p230
I0
sS'count_wrongs'
p231
I6
sS'picked_node'
p232
NsS'len_master_tree'
p233
I1
sS'total_wrongs'
p234
I6
sa(dp235
g229
S'worst'
p236
sg230
I1
sg231
I7
sg232
I0
sg233
I5
sg234
I29
sa(dp237
g229
S'better'
p238
sg230
I2
sg231
I4
sg232
I4
sg233
I9
sg234
I22
sa(dp239
g229
g238
sg230
I3
sg231
I3
sg232
I7
sg233
I13
sg234
I18
sa(dp240
g229
S'perfect'
p241
sg230
I4
sg231
I3
sg232
I5
sg233
I17
sg234
I9
sa(dp242
g229
g236
sg230
I5
sg231
I4
sg232
I1
sg233
I21
sg234
I49
sa(dp243
g229
g241
sg230
I6
sg231
I4
sg232
I15
sg233
I27
sg234
I47
sa(dp244
g229
g241
sg230
I7
sg231
I3
sg232
I10
sg233
I33
sg234
I33
sa(dp245
g229
g241
sg230
I8
sg231
I2
sg232
I12
sg233
I29
sg234
I9
sa(dp246
g229
g236
sg230
I9
sg231
I3
sg232
I14
sg233
I29
sg234
I17
sa(dp247
g229
g238
sg230
I10
sg231
I2
sg232
I26
sg233
I29
sg234
I9
sa(dp248
g229
g236
sg230
I11
sg231
I3
sg232
I26
sg233
I29
sg234
I17
sa(dp249
g229
g238
sg230
I12
sg231
I2
sg232
I28
sg233
I29
sg234
I9
sa(dp250
g229
g236
sg230
I13
sg231
I2
sg232
I26
sg233
I29
sg234
I14
sa(dp251
g229
g241
sg230
I14
sg231
I1
sg232
I28
sg233
I35
sg234
I3
sa(dp252
g229
g236
sg230
I15
sg231
I4
sg232
I2
sg233
I39
sg234
I103
sa(dp253
g229
g241
sg230
I16
sg231
I3
sg232
I9
sg233
I37
sg234
I55
sa(dp254
g229
g241
sg230
I17
sg231
I2
sg232
I11
sg233
I35
sg234
I24
sa(dp255
g229
g241
sg230
I18
sg231
I2
sg232
I13
sg233
I35
sg234
I28
sa(dp256
g229
g241
sg230
I19
sg231
I2
sg232
I18
sg233
I35
sg234
I25
sa(dp257
g229
g238
sg230
I20
sg231
I1
sg232
I17
sg233
I39
sg234
I32
sa(dp258
g229
g241
sg230
I21
sg231
I1
sg232
I23
sg233
I39
sg234
I29
sa(dp259
g229
g241
sg230
I22
sg231
I1
sg232
I25
sg233
I43
sg234
I21
sa(dp260
g229
g241
sg230
I23
sg231
I0
sg232
I33
sg233
I47
sg234
I0
satRp261
(dp262
g55
I01
sg56
(lp263
g230
ag233
ag231
ag234
ag232
ag229
asg58
Nsg59
I0
sg60
g61
(g13
tRp264
sbsS'max_archive_size'
p265
NsS'solution_found_flag'
p266
I01
sS'time_taken'
p267
F1.0449349880218506
sS'benchmark_name'
p268
S'M_A1'
p269
sa(dp270
S'tree_str'
p271
S'a1(a1(a1(a1(ARG2,ARG0),a1(ARG2,a1(ARG2,ARG0))),a1(a1(a1(a1(ARG0,ARG1),ARG1),a1(ARG0,a1(ARG0,ARG2))),a1(a1(ARG2,a1(ARG1,ARG2)),ARG0))),a1(a1(ARG1,a1(a1(ARG2,ARG2),a1(ARG2,ARG2))),ARG0))'
p272
sS'tree_len'
p273
I41
sS'archive_size'
p274
I134
sS'number_of_operators'
p275
I20
sS'alg_name'
p276
S'small-LTI'
p277
sS'archive_tree_deapth'
p278
I2
sS'logbook'
p279
g12
(g13
g14
(lp280
(dp281
S'status'
p282
NsS'iteration'
p283
I0
sS'count_wrongs'
p284
I6
sS'picked_node'
p285
NsS'len_master_tree'
p286
I1
sS'total_wrongs'
p287
I6
sa(dp288
g282
S'worst'
p289
sg283
I1
sg284
I7
sg285
I0
sg286
I5
sg287
I29
sa(dp290
g282
S'better'
p291
sg283
I2
sg284
I4
sg285
I4
sg286
I9
sg287
I22
sa(dp292
g282
g291
sg283
I3
sg284
I3
sg285
I7
sg286
I13
sg287
I18
sa(dp293
g282
S'perfect'
p294
sg283
I4
sg284
I3
sg285
I5
sg286
I17
sg287
I9
sa(dp295
g282
g289
sg283
I5
sg284
I4
sg285
I1
sg286
I21
sg287
I49
sa(dp296
g282
g294
sg283
I6
sg284
I3
sg285
I5
sg286
I27
sg287
I28
sa(dp297
g282
g294
sg283
I7
sg284
I3
sg285
I13
sg286
I31
sg287
I31
sa(dp298
g282
g294
sg283
I8
sg284
I2
sg285
I5
sg286
I31
sg287
I9
sa(dp299
g282
g289
sg283
I9
sg284
I3
sg285
I13
sg286
I31
sg287
I40
sa(dp300
g282
g294
sg283
I10
sg284
I3
sg285
I7
sg286
I29
sg287
I17
sa(dp301
g282
g289
sg283
I11
sg284
I4
sg285
I9
sg286
I29
sg287
I25
sa(dp302
g282
g291
sg283
I12
sg284
I4
sg285
I28
sg286
I29
sg287
I60
sa(dp303
g282
g294
sg283
I13
sg284
I2
sg285
I9
sg286
I29
sg287
I9
sa(dp304
g282
g289
sg283
I14
sg284
I3
sg285
I19
sg286
I29
sg287
I36
sa(dp305
g282
g294
sg283
I15
sg284
I3
sg285
I19
sg286
I29
sg287
I17
sa(dp306
g282
g289
sg283
I16
sg284
I4
sg285
I19
sg286
I29
sg287
I25
sa(dp307
g282
g291
sg283
I17
sg284
I3
sg285
I26
sg286
I29
sg287
I17
sa(dp308
g282
g289
sg283
I18
sg284
I3
sg285
I7
sg286
I29
sg287
I42
sa(dp309
g282
g294
sg283
I19
sg284
I2
sg285
I17
sg286
I27
sg287
I14
sa(dp310
g282
g291
sg283
I20
sg284
I2
sg285
I21
sg286
I33
sg287
I14
sa(dp311
g282
g294
sg283
I21
sg284
I2
sg285
I27
sg286
I35
sg287
I12
sa(dp312
g282
g294
sg283
I22
sg284
I1
sg285
I28
sg286
I39
sg287
I3
sa(dp313
g282
g289
sg283
I23
sg284
I3
sg285
I2
sg286
I43
sg287
I52
sa(dp314
g282
g294
sg283
I24
sg284
I2
sg285
I25
sg286
I37
sg287
I29
sa(dp315
g282
g294
sg283
I25
sg284
I2
sg285
I7
sg286
I37
sg287
I28
sa(dp316
g282
g294
sg283
I26
sg284
I0
sg285
I25
sg286
I41
sg287
I0
satRp317
(dp318
g55
I01
sg56
(lp319
g283
ag286
ag284
ag287
ag285
ag282
asg58
Nsg59
I0
sg60
g61
(g13
tRp320
sbsS'max_archive_size'
p321
NsS'solution_found_flag'
p322
I01
sS'time_taken'
p323
F0.69629502296447754
sS'benchmark_name'
p324
S'M_A1'
p325
sa(dp326
S'tree_str'
p327
S'a1(a1(a1(a1(ARG0,ARG2),a1(ARG0,a1(ARG1,ARG2))),a1(a1(a1(a1(ARG2,ARG0),ARG1),a1(ARG2,a1(ARG1,ARG0))),a1(a1(ARG0,a1(ARG0,ARG1)),ARG2))),a1(ARG2,a1(ARG0,a1(a1(ARG1,ARG0),a1(ARG0,ARG1)))))'
p328
sS'tree_len'
p329
I41
sS'archive_size'
p330
I134
sS'number_of_operators'
p331
I20
sS'alg_name'
p332
S'small-LTI'
p333
sS'archive_tree_deapth'
p334
I2
sS'logbook'
p335
g12
(g13
g14
(lp336
(dp337
S'status'
p338
NsS'iteration'
p339
I0
sS'count_wrongs'
p340
I6
sS'picked_node'
p341
NsS'len_master_tree'
p342
I1
sS'total_wrongs'
p343
I6
sa(dp344
g338
S'worst'
p345
sg339
I1
sg340
I7
sg341
I0
sg342
I5
sg343
I28
sa(dp346
g338
S'better'
p347
sg339
I2
sg340
I6
sg341
I4
sg342
I9
sg343
I23
sa(dp348
g338
g347
sg339
I3
sg340
I5
sg341
I3
sg342
I15
sg343
I28
sa(dp349
g338
S'perfect'
p350
sg339
I4
sg340
I5
sg341
I9
sg342
I15
sg343
I25
sa(dp351
g338
g345
sg339
I5
sg340
I6
sg341
I5
sg342
I15
sg343
I36
sa(dp352
g338
g347
sg339
I6
sg340
I5
sg341
I5
sg342
I13
sg343
I21
sa(dp353
g338
g345
sg339
I7
sg340
I5
sg341
I10
sg342
I13
sg343
I32
sa(dp354
g338
g347
sg339
I8
sg340
I5
sg341
I8
sg342
I13
sg343
I21
sa(dp355
g338
g345
sg339
I9
sg340
I5
sg341
I3
sg342
I13
sg343
I32
sa(dp356
g338
g347
sg339
I10
sg340
I5
sg341
I10
sg342
I13
sg343
I21
sa(dp357
g338
g345
sg339
I11
sg340
I5
sg341
I8
sg342
I13
sg343
I32
sa(dp358
g338
g347
sg339
I12
sg340
I6
sg341
I7
sg342
I17
sg343
I29
sa(dp359
g338
g347
sg339
I13
sg340
I5
sg341
I4
sg342
I17
sg343
I25
sa(dp360
g338
g350
sg339
I14
sg340
I5
sg341
I14
sg342
I21
sg343
I22
sa(dp361
g338
g350
sg339
I15
sg340
I5
sg341
I10
sg342
I25
sg343
I19
sa(dp362
g338
g345
sg339
I16
sg340
I6
sg341
I10
sg342
I19
sg343
I29
sa(dp363
g338
g347
sg339
I17
sg340
I5
sg341
I16
sg342
I21
sg343
I29
sa(dp364
g338
g350
sg339
I18
sg340
I4
sg341
I6
sg342
I17
sg343
I8
sa(dp365
g338
g345
sg339
I19
sg340
I6
sg341
I0
sg342
I1
sg343
I6
sa(dp366
g338
g345
sg339
I20
sg340
I7
sg341
I0
sg342
I5
sg343
I29
sa(dp367
g338
g347
sg339
I21
sg340
I4
sg341
I4
sg342
I9
sg343
I22
sa(dp368
g338
g347
sg339
I22
sg340
I3
sg341
I7
sg342
I13
sg343
I18
sa(dp369
g338
g350
sg339
I23
sg340
I3
sg341
I5
sg342
I17
sg343
I9
sa(dp370
g338
g345
sg339
I24
sg340
I4
sg341
I1
sg342
I21
sg343
I49
sa(dp371
g338
g350
sg339
I25
sg340
I3
sg341
I5
sg342
I27
sg343
I29
sa(dp372
g338
g350
sg339
I26
sg340
I2
sg341
I12
sg342
I29
sg343
I9
sa(dp373
g338
g345
sg339
I27
sg340
I2
sg341
I14
sg342
I29
sg343
I14
sa(dp374
g338
g350
sg339
I28
sg340
I1
sg341
I28
sg342
I35
sg343
I3
sa(dp375
g338
g345
sg339
I29
sg340
I4
sg341
I2
sg342
I39
sg343
I81
sa(dp376
g338
g350
sg339
I30
sg340
I2
sg341
I13
sg342
I37
sg343
I27
sa(dp377
g338
g350
sg339
I31
sg340
I2
sg341
I16
sg342
I37
sg343
I23
sa(dp378
g338
g350
sg339
I32
sg340
I0
sg341
I27
sg342
I41
sg343
I0
satRp379
(dp380
g55
I01
sg56
(lp381
g339
ag342
ag340
ag343
ag341
ag338
asg58
Nsg59
I0
sg60
g61
(g13
tRp382
sbsS'max_archive_size'
p383
NsS'solution_found_flag'
p384
I01
sS'time_taken'
p385
F0.79455089569091797
sS'benchmark_name'
p386
S'M_A1'
p387
sa(dp388
S'tree_str'
p389
S'a1(a1(a1(a1(ARG2,a1(ARG2,a1(ARG0,ARG2))),a1(ARG1,ARG0)),a1(a1(a1(a1(ARG0,a1(a1(ARG0,ARG1),ARG0)),ARG1),a1(a1(ARG2,ARG0),ARG0)),a1(a1(a1(a1(ARG1,ARG2),ARG2),ARG0),ARG0))),a1(a1(ARG2,a1(a1(ARG0,ARG0),a1(ARG2,a1(ARG1,ARG2)))),ARG2))'
p390
sS'tree_len'
p391
I51
sS'archive_size'
p392
I134
sS'number_of_operators'
p393
I25
sS'alg_name'
p394
S'small-LTI'
p395
sS'archive_tree_deapth'
p396
I2
sS'logbook'
p397
g12
(g13
g14
(lp398
(dp399
S'status'
p400
NsS'iteration'
p401
I0
sS'count_wrongs'
p402
I6
sS'picked_node'
p403
NsS'len_master_tree'
p404
I1
sS'total_wrongs'
p405
I6
sa(dp406
g400
S'worst'
p407
sg401
I1
sg402
I7
sg403
I0
sg404
I5
sg405
I29
sa(dp408
g400
S'better'
p409
sg401
I2
sg402
I4
sg403
I4
sg404
I9
sg405
I22
sa(dp410
g400
g409
sg401
I3
sg402
I3
sg403
I7
sg404
I13
sg405
I18
sa(dp411
g400
S'perfect'
p412
sg401
I4
sg402
I3
sg403
I5
sg404
I17
sg405
I9
sa(dp413
g400
g407
sg401
I5
sg402
I4
sg403
I1
sg404
I21
sg405
I36
sa(dp414
g400
g412
sg401
I6
sg402
I4
sg403
I14
sg404
I25
sg405
I31
sa(dp415
g400
g412
sg401
I7
sg402
I3
sg403
I5
sg404
I29
sg405
I17
sa(dp416
g400
g409
sg401
I8
sg402
I2
sg403
I18
sg404
I35
sg405
I33
sa(dp417
g400
g412
sg401
I9
sg402
I1
sg403
I19
sg404
I35
sg405
I3
sa(dp418
g400
g407
sg401
I10
sg402
I4
sg403
I2
sg404
I41
sg405
I101
sa(dp419
g400
g412
sg401
I11
sg402
I3
sg403
I8
sg404
I45
sg405
I47
sa(dp420
g400
g412
sg401
I12
sg402
I1
sg403
I26
sg404
I47
sg405
I9
sa(dp421
g400
g412
sg401
I13
sg402
I0
sg403
I36
sg404
I51
sg405
I0
satRp422
(dp423
g55
I01
sg56
(lp424
g401
ag404
ag402
ag405
ag403
ag400
asg58
Nsg59
I0
sg60
g61
(g13
tRp425
sbsS'max_archive_size'
p426
NsS'solution_found_flag'
p427
I01
sS'time_taken'
p428
F0.85105109214782715
sS'benchmark_name'
p429
S'M_A1'
p430
sa(dp431
S'tree_str'
p432
S'a1(a1(a1(a1(ARG2,a1(ARG2,a1(ARG0,ARG2))),ARG0),a1(a1(a1(a1(ARG0,ARG2),ARG1),ARG1),ARG1)),a1(a1(ARG2,a1(a1(a1(ARG1,ARG1),ARG0),a1(ARG0,ARG0))),ARG2))'
p433
sS'tree_len'
p434
I33
sS'archive_size'
p435
I134
sS'number_of_operators'
p436
I16
sS'alg_name'
p437
S'small-LTI'
p438
sS'archive_tree_deapth'
p439
I2
sS'logbook'
p440
g12
(g13
g14
(lp441
(dp442
S'status'
p443
NsS'iteration'
p444
I0
sS'count_wrongs'
p445
I6
sS'picked_node'
p446
NsS'len_master_tree'
p447
I1
sS'total_wrongs'
p448
I6
sa(dp449
g443
S'worst'
p450
sg444
I1
sg445
I7
sg446
I0
sg447
I5
sg448
I28
sa(dp451
g443
S'better'
p452
sg444
I2
sg445
I6
sg446
I4
sg447
I9
sg448
I23
sa(dp453
g443
g452
sg444
I3
sg445
I5
sg446
I3
sg447
I13
sg448
I31
sa(dp454
g443
g450
sg444
I4
sg445
I6
sg446
I9
sg447
I15
sg448
I45
sa(dp455
g443
S'perfect'
p456
sg444
I5
sg445
I4
sg446
I13
sg447
I19
sg448
I18
sa(dp457
g443
g450
sg444
I6
sg445
I5
sg446
I8
sg447
I13
sg448
I31
sa(dp458
g443
g450
sg444
I7
sg445
I6
sg446
I9
sg447
I15
sg448
I42
sa(dp459
g443
g456
sg444
I8
sg445
I4
sg446
I13
sg447
I19
sg448
I18
sa(dp460
g443
g450
sg444
I9
sg445
I5
sg446
I8
sg447
I15
sg448
I27
sa(dp461
g443
g456
sg444
I10
sg445
I4
sg446
I10
sg447
I19
sg448
I18
sa(dp462
g443
g450
sg444
I11
sg445
I5
sg446
I8
sg447
I15
sg448
I25
sa(dp463
g443
g450
sg444
I12
sg445
I6
sg446
I5
sg447
I15
sg448
I36
sa(dp464
g443
g452
sg444
I13
sg445
I5
sg446
I5
sg447
I13
sg448
I21
sa(dp465
g443
g450
sg444
I14
sg445
I5
sg446
I8
sg447
I13
sg448
I32
sa(dp466
g443
g452
sg444
I15
sg445
I5
sg446
I10
sg447
I13
sg448
I21
sa(dp467
g443
g450
sg444
I16
sg445
I5
sg446
I5
sg447
I13
sg448
I32
sa(dp468
g443
g452
sg444
I17
sg445
I5
sg446
I3
sg447
I13
sg448
I21
sa(dp469
g443
g450
sg444
I18
sg445
I5
sg446
I10
sg447
I13
sg448
I32
sa(dp470
g443
g452
sg444
I19
sg445
I5
sg446
I8
sg447
I13
sg448
I21
sa(dp471
g443
g450
sg444
I20
sg445
I5
sg446
I3
sg447
I13
sg448
I32
sa(dp472
g443
g452
sg444
I21
sg445
I6
sg446
I7
sg447
I17
sg448
I29
sa(dp473
g443
g452
sg444
I22
sg445
I5
sg446
I4
sg447
I17
sg448
I18
sa(dp474
g443
g456
sg444
I23
sg445
I5
sg446
I10
sg447
I21
sg448
I22
sa(dp475
g443
g456
sg444
I24
sg445
I5
sg446
I14
sg447
I25
sg448
I19
sa(dp476
g443
g450
sg444
I25
sg445
I6
sg446
I4
sg447
I19
sg448
I31
sa(dp477
g443
g452
sg444
I26
sg445
I5
sg446
I16
sg447
I21
sg448
I22
sa(dp478
g443
g456
sg444
I27
sg445
I5
sg446
I19
sg447
I25
sg448
I19
sa(dp479
g443
g450
sg444
I28
sg445
I6
sg446
I16
sg447
I19
sg448
I32
sa(dp480
g443
g452
sg444
I29
sg445
I5
sg446
I4
sg447
I15
sg448
I20
sa(dp481
g443
g456
sg444
I30
sg445
I4
sg446
I7
sg447
I17
sg448
I8
sa(dp482
g443
g450
sg444
I31
sg445
I6
sg446
I0
sg447
I1
sg448
I6
sa(dp483
g443
g450
sg444
I32
sg445
I7
sg446
I0
sg447
I5
sg448
I29
sa(dp484
g443
g452
sg444
I33
sg445
I4
sg446
I4
sg447
I9
sg448
I22
sa(dp485
g443
g452
sg444
I34
sg445
I3
sg446
I7
sg447
I13
sg448
I18
sa(dp486
g443
g456
sg444
I35
sg445
I3
sg446
I5
sg447
I17
sg448
I9
sa(dp487
g443
g450
sg444
I36
sg445
I4
sg446
I1
sg447
I21
sg448
I36
sa(dp488
g443
g456
sg444
I37
sg445
I4
sg446
I5
sg447
I25
sg448
I30
sa(dp489
g443
g456
sg444
I38
sg445
I3
sg446
I11
sg447
I29
sg448
I17
sa(dp490
g443
g452
sg444
I39
sg445
I2
sg446
I18
sg447
I35
sg448
I28
sa(dp491
g443
g456
sg444
I40
sg445
I1
sg446
I32
sg447
I37
sg448
I3
sa(dp492
g443
g450
sg444
I41
sg445
I3
sg446
I2
sg447
I37
sg448
I36
sa(dp493
g443
g456
sg444
I42
sg445
I3
sg446
I9
sg447
I35
sg448
I21
sa(dp494
g443
g452
sg444
I43
sg445
I2
sg446
I27
sg447
I35
sg448
I23
sa(dp495
g443
g456
sg444
I44
sg445
I1
sg446
I28
sg447
I37
sg448
I3
sa(dp496
g443
g450
sg444
I45
sg445
I4
sg446
I31
sg447
I41
sg448
I105
sa(dp497
g443
g456
sg444
I46
sg445
I4
sg446
I14
sg447
I45
sg448
I105
sa(dp498
g443
g456
sg444
I47
sg445
I3
sg446
I26
sg447
I43
sg448
I46
sa(dp499
g443
g452
sg444
I48
sg445
I1
sg446
I13
sg447
I35
sg448
I20
sa(dp500
g443
g456
sg444
I49
sg445
I1
sg446
I27
sg447
I29
sg448
I7
sa(dp501
g443
g456
sg444
I50
sg445
I0
sg446
I26
sg447
I33
sg448
I0
satRp502
(dp503
g55
I01
sg56
(lp504
g444
ag447
ag445
ag448
ag446
ag443
asg58
Nsg59
I0
sg60
g61
(g13
tRp505
sbsS'max_archive_size'
p506
NsS'solution_found_flag'
p507
I01
sS'time_taken'
p508
F1.4533228874206543
sS'benchmark_name'
p509
S'M_A1'
p510
sa(dp511
S'tree_str'
p512
S'a1(a1(a1(a1(ARG0,a1(ARG0,a1(ARG0,ARG2))),ARG2),a1(a1(a1(ARG1,ARG0),ARG0),a1(a1(a1(a1(ARG0,ARG1),a1(a1(ARG0,ARG0),ARG2)),ARG2),a1(a1(ARG2,ARG0),a1(a1(ARG0,ARG2),ARG0))))),a1(a1(ARG1,a1(ARG0,a1(a1(ARG2,ARG2),ARG0))),a1(a1(ARG1,ARG2),a1(ARG1,ARG0))))'
p513
sS'tree_len'
p514
I55
sS'archive_size'
p515
I134
sS'number_of_operators'
p516
I27
sS'alg_name'
p517
S'small-LTI'
p518
sS'archive_tree_deapth'
p519
I2
sS'logbook'
p520
g12
(g13
g14
(lp521
(dp522
S'status'
p523
NsS'iteration'
p524
I0
sS'count_wrongs'
p525
I6
sS'picked_node'
p526
NsS'len_master_tree'
p527
I1
sS'total_wrongs'
p528
I6
sa(dp529
g523
S'worst'
p530
sg524
I1
sg525
I7
sg526
I0
sg527
I5
sg528
I28
sa(dp531
g523
S'better'
p532
sg524
I2
sg525
I6
sg526
I4
sg527
I9
sg528
I23
sa(dp533
g523
g532
sg524
I3
sg525
I5
sg526
I3
sg527
I13
sg528
I31
sa(dp534
g523
g530
sg524
I4
sg525
I6
sg526
I9
sg527
I15
sg528
I42
sa(dp535
g523
S'perfect'
p536
sg524
I5
sg525
I4
sg526
I13
sg527
I19
sg528
I18
sa(dp537
g523
g530
sg524
I6
sg525
I5
sg526
I8
sg527
I13
sg528
I31
sa(dp538
g523
g530
sg524
I7
sg525
I6
sg526
I9
sg527
I15
sg528
I45
sa(dp539
g523
g536
sg524
I8
sg525
I4
sg526
I13
sg527
I19
sg528
I18
sa(dp540
g523
g530
sg524
I9
sg525
I5
sg526
I8
sg527
I15
sg528
I28
sa(dp541
g523
g536
sg524
I10
sg525
I5
sg526
I10
sg527
I15
sg528
I25
sa(dp542
g523
g532
sg524
I11
sg525
I4
sg526
I12
sg527
I19
sg528
I21
sa(dp543
g523
g536
sg524
I12
sg525
I4
sg526
I18
sg527
I25
sg528
I20
sa(dp544
g523
g530
sg524
I13
sg525
I5
sg526
I14
sg527
I15
sg528
I25
sa(dp545
g523
g532
sg524
I14
sg525
I4
sg526
I14
sg527
I19
sg528
I21
sa(dp546
g523
g536
sg524
I15
sg525
I4
sg526
I18
sg527
I25
sg528
I20
sa(dp547
g523
g530
sg524
I16
sg525
I5
sg526
I8
sg527
I15
sg528
I27
sa(dp548
g523
g536
sg524
I17
sg525
I4
sg526
I10
sg527
I19
sg528
I18
sa(dp549
g523
g530
sg524
I18
sg525
I5
sg526
I8
sg527
I15
sg528
I27
sa(dp550
g523
g536
sg524
I19
sg525
I4
sg526
I10
sg527
I19
sg528
I18
sa(dp551
g523
g530
sg524
I20
sg525
I5
sg526
I8
sg527
I15
sg528
I28
sa(dp552
g523
g536
sg524
I21
sg525
I5
sg526
I11
sg527
I15
sg528
I25
sa(dp553
g523
g530
sg524
I22
sg525
I6
sg526
I5
sg527
I15
sg528
I36
sa(dp554
g523
g532
sg524
I23
sg525
I5
sg526
I5
sg527
I13
sg528
I21
sa(dp555
g523
g530
sg524
I24
sg525
I5
sg526
I5
sg527
I13
sg528
I32
sa(dp556
g523
g532
sg524
I25
sg525
I5
sg526
I10
sg527
I13
sg528
I21
sa(dp557
g523
g530
sg524
I26
sg525
I4
sg526
I5
sg527
I13
sg528
I30
sa(dp558
g523
g532
sg524
I27
sg525
I5
sg526
I8
sg527
I13
sg528
I21
sa(dp559
g523
g530
sg524
I28
sg525
I5
sg526
I3
sg527
I13
sg528
I32
sa(dp560
g523
g532
sg524
I29
sg525
I6
sg526
I7
sg527
I17
sg528
I29
sa(dp561
g523
g532
sg524
I30
sg525
I5
sg526
I4
sg527
I17
sg528
I25
sa(dp562
g523
g536
sg524
I31
sg525
I5
sg526
I15
sg527
I21
sg528
I22
sa(dp563
g523
g536
sg524
I32
sg525
I5
sg526
I10
sg527
I25
sg528
I19
sa(dp564
g523
g530
sg524
I33
sg525
I6
sg526
I4
sg527
I19
sg528
I37
sa(dp565
g523
g536
sg524
I34
sg525
I5
sg526
I4
sg527
I15
sg528
I18
sa(dp566
g523
g536
sg524
I35
sg525
I4
sg526
I9
sg527
I17
sg528
I8
sa(dp567
g523
g530
sg524
I36
sg525
I6
sg526
I0
sg527
I1
sg528
I6
sa(dp568
g523
g530
sg524
I37
sg525
I7
sg526
I0
sg527
I5
sg528
I28
sa(dp569
g523
g532
sg524
I38
sg525
I6
sg526
I4
sg527
I9
sg528
I23
sa(dp570
g523
g532
sg524
I39
sg525
I5
sg526
I3
sg527
I15
sg528
I25
sa(dp571
g523
g530
sg524
I40
sg525
I6
sg526
I5
sg527
I15
sg528
I36
sa(dp572
g523
g532
sg524
I41
sg525
I5
sg526
I5
sg527
I13
sg528
I21
sa(dp573
g523
g530
sg524
I42
sg525
I5
sg526
I10
sg527
I13
sg528
I32
sa(dp574
g523
g532
sg524
I43
sg525
I5
sg526
I8
sg527
I13
sg528
I21
sa(dp575
g523
g530
sg524
I44
sg525
I4
sg526
I8
sg527
I13
sg528
I30
sa(dp576
g523
g536
sg524
I45
sg525
I4
sg526
I12
sg527
I17
sg528
I8
sa(dp577
g523
g530
sg524
I46
sg525
I6
sg526
I1
sg527
I21
sg528
I67
sa(dp578
g523
g536
sg524
I47
sg525
I5
sg526
I2
sg527
I23
sg528
I44
sa(dp579
g523
g536
sg524
I48
sg525
I5
sg526
I6
sg527
I19
sg528
I37
sa(dp580
g523
g532
sg524
I49
sg525
I4
sg526
I10
sg527
I23
sg528
I30
sa(dp581
g523
g532
sg524
I50
sg525
I4
sg526
I19
sg527
I29
sg528
I39
sa(dp582
g523
g536
sg524
I51
sg525
I4
sg526
I23
sg527
I31
sg528
I32
sa(dp583
g523
g536
sg524
I52
sg525
I3
sg526
I17
sg527
I35
sg528
I17
sa(dp584
g523
g536
sg524
I53
sg525
I2
sg526
I19
sg527
I41
sg528
I8
sa(dp585
g523
g530
sg524
I54
sg525
I3
sg526
I9
sg527
I45
sg528
I57
sa(dp586
g523
g536
sg524
I55
sg525
I2
sg526
I23
sg527
I45
sg528
I26
sa(dp587
g523
g536
sg524
I56
sg525
I1
sg526
I29
sg527
I47
sg528
I3
sa(dp588
g523
g530
sg524
I57
sg525
I3
sg526
I7
sg527
I51
sg528
I40
sa(dp589
g523
g536
sg524
I58
sg525
I2
sg526
I36
sg527
I51
sg528
I20
sa(dp590
g523
g536
sg524
I59
sg525
I1
sg526
I31
sg527
I51
sg528
I7
sa(dp591
g523
g536
sg524
I60
sg525
I0
sg526
I40
sg527
I55
sg528
I0
satRp592
(dp593
g55
I01
sg56
(lp594
g524
ag527
ag525
ag528
ag526
ag523
asg58
Nsg59
I0
sg60
g61
(g13
tRp595
sbsS'max_archive_size'
p596
NsS'solution_found_flag'
p597
I01
sS'time_taken'
p598
F1.0035028457641602
sS'benchmark_name'
p599
S'M_A1'
p600
sa(dp601
S'tree_str'
p602
S'a1(a1(a1(a1(ARG0,a1(ARG0,a1(ARG0,ARG2))),ARG2),a1(a1(a1(ARG1,a1(ARG2,a1(a1(ARG0,ARG2),ARG2))),ARG0),a1(a1(ARG0,a1(a1(ARG2,ARG0),a1(ARG0,ARG0))),ARG2))),a1(ARG2,a1(a1(a1(ARG1,ARG1),ARG1),a1(a1(a1(a1(ARG1,ARG2),ARG0),ARG0),ARG2))))'
p603
sS'tree_len'
p604
I51
sS'archive_size'
p605
I134
sS'number_of_operators'
p606
I25
sS'alg_name'
p607
S'small-LTI'
p608
sS'archive_tree_deapth'
p609
I2
sS'logbook'
p610
g12
(g13
g14
(lp611
(dp612
S'status'
p613
NsS'iteration'
p614
I0
sS'count_wrongs'
p615
I6
sS'picked_node'
p616
NsS'len_master_tree'
p617
I1
sS'total_wrongs'
p618
I6
sa(dp619
g613
S'worst'
p620
sg614
I1
sg615
I7
sg616
I0
sg617
I5
sg618
I29
sa(dp621
g613
S'better'
p622
sg614
I2
sg615
I4
sg616
I4
sg617
I9
sg618
I22
sa(dp623
g613
g622
sg614
I3
sg615
I3
sg616
I7
sg617
I13
sg618
I18
sa(dp624
g613
S'perfect'
p625
sg614
I4
sg615
I3
sg616
I5
sg617
I17
sg618
I9
sa(dp626
g613
g620
sg614
I5
sg615
I4
sg616
I1
sg617
I21
sg618
I49
sa(dp627
g613
g625
sg614
I6
sg615
I4
sg616
I15
sg617
I27
sg618
I47
sa(dp628
g613
g625
sg614
I7
sg615
I3
sg616
I6
sg617
I27
sg618
I31
sa(dp629
g613
g625
sg614
I8
sg615
I2
sg616
I9
sg617
I27
sg618
I9
sa(dp630
g613
g620
sg614
I9
sg615
I3
sg616
I11
sg617
I27
sg618
I17
sa(dp631
g613
g622
sg614
I10
sg615
I2
sg616
I26
sg617
I27
sg618
I9
sa(dp632
g613
g620
sg614
I11
sg615
I3
sg616
I9
sg617
I27
sg618
I17
sa(dp633
g613
g622
sg614
I12
sg615
I2
sg616
I24
sg617
I27
sg618
I9
sa(dp634
g613
g620
sg614
I13
sg615
I3
sg616
I26
sg617
I27
sg618
I17
sa(dp635
g613
g622
sg614
I14
sg615
I2
sg616
I22
sg617
I27
sg618
I9
sa(dp636
g613
g620
sg614
I15
sg615
I3
sg616
I22
sg617
I27
sg618
I17
sa(dp637
g613
g622
sg614
I16
sg615
I2
sg616
I26
sg617
I31
sg618
I12
sa(dp638
g613
g625
sg614
I17
sg615
I1
sg616
I29
sg617
I37
sg618
I3
sa(dp639
g613
g620
sg614
I18
sg615
I5
sg616
I2
sg617
I41
sg618
I91
sa(dp640
g613
g625
sg614
I19
sg615
I4
sg616
I30
sg617
I39
sg618
I53
sa(dp641
g613
g625
sg614
I20
sg615
I2
sg616
I24
sg617
I43
sg618
I25
sa(dp642
g613
g625
sg614
I21
sg615
I1
sg616
I19
sg617
I47
sg618
I7
sa(dp643
g613
g625
sg614
I22
sg615
I0
sg616
I35
sg617
I51
sg618
I0
satRp644
(dp645
g55
I01
sg56
(lp646
g614
ag617
ag615
ag618
ag616
ag613
asg58
Nsg59
I0
sg60
g61
(g13
tRp647
sbsS'max_archive_size'
p648
NsS'solution_found_flag'
p649
I01
sS'time_taken'
p650
F1.015192985534668
sS'benchmark_name'
p651
S'M_A1'
p652
sa(dp653
S'tree_str'
p654
S'a1(a1(a1(a1(ARG2,a1(ARG2,a1(ARG0,ARG2))),ARG0),a1(a1(a1(a1(ARG0,a1(ARG0,ARG0)),ARG1),a1(a1(a1(a1(ARG2,ARG0),ARG0),ARG1),ARG0)),a1(a1(a1(ARG0,ARG0),a1(ARG1,ARG1)),a1(ARG1,ARG0)))),a1(a1(ARG2,a1(a1(a1(ARG1,ARG1),ARG0),a1(ARG0,ARG0))),ARG2))'
p655
sS'tree_len'
p656
I53
sS'archive_size'
p657
I134
sS'number_of_operators'
p658
I26
sS'alg_name'
p659
S'small-LTI'
p660
sS'archive_tree_deapth'
p661
I2
sS'logbook'
p662
g12
(g13
g14
(lp663
(dp664
S'status'
p665
NsS'iteration'
p666
I0
sS'count_wrongs'
p667
I6
sS'picked_node'
p668
NsS'len_master_tree'
p669
I1
sS'total_wrongs'
p670
I6
sa(dp671
g665
S'worst'
p672
sg666
I1
sg667
I7
sg668
I0
sg669
I5
sg670
I29
sa(dp673
g665
S'better'
p674
sg666
I2
sg667
I4
sg668
I4
sg669
I9
sg670
I22
sa(dp675
g665
g674
sg666
I3
sg667
I3
sg668
I7
sg669
I13
sg670
I18
sa(dp676
g665
S'perfect'
p677
sg666
I4
sg667
I3
sg668
I5
sg669
I17
sg670
I9
sa(dp678
g665
g672
sg666
I5
sg667
I4
sg668
I1
sg669
I21
sg670
I36
sa(dp679
g665
g677
sg666
I6
sg667
I4
sg668
I5
sg669
I25
sg670
I30
sa(dp680
g665
g677
sg666
I7
sg667
I3
sg668
I11
sg669
I29
sg670
I17
sa(dp681
g665
g674
sg666
I8
sg667
I2
sg668
I18
sg669
I35
sg670
I28
sa(dp682
g665
g677
sg666
I9
sg667
I1
sg668
I32
sg669
I37
sg670
I3
sa(dp683
g665
g672
sg666
I10
sg667
I3
sg668
I2
sg669
I37
sg670
I36
sa(dp684
g665
g677
sg666
I11
sg667
I3
sg668
I9
sg669
I35
sg670
I21
sa(dp685
g665
g674
sg666
I12
sg667
I2
sg668
I27
sg669
I35
sg670
I23
sa(dp686
g665
g677
sg666
I13
sg667
I1
sg668
I31
sg669
I37
sg670
I3
sa(dp687
g665
g672
sg666
I14
sg667
I3
sg668
I31
sg669
I41
sg670
I65
sa(dp688
g665
g677
sg666
I15
sg667
I3
sg668
I31
sg669
I43
sg670
I60
sa(dp689
g665
g677
sg666
I16
sg667
I2
sg668
I16
sg669
I47
sg670
I40
sa(dp690
g665
g677
sg666
I17
sg667
I1
sg668
I8
sg669
I49
sg670
I7
sa(dp691
g665
g677
sg666
I18
sg667
I0
sg668
I33
sg669
I53
sg670
I0
satRp692
(dp693
g55
I01
sg56
(lp694
g666
ag669
ag667
ag670
ag668
ag665
asg58
Nsg59
I0
sg60
g61
(g13
tRp695
sbsS'max_archive_size'
p696
NsS'solution_found_flag'
p697
I01
sS'time_taken'
p698
F0.93500995635986328
sS'benchmark_name'
p699
S'M_A1'
p700
sa(dp701
S'tree_str'
p702
S'a1(a1(a1(a1(ARG0,a1(ARG0,a1(ARG1,ARG2))),ARG2),a1(a1(a1(ARG1,a1(ARG2,ARG0)),ARG0),a1(a1(ARG0,a1(ARG1,a1(ARG0,ARG0))),ARG1))),a1(ARG2,a1(ARG0,a1(a1(ARG1,ARG0),a1(ARG0,ARG2)))))'
p703
sS'tree_len'
p704
I39
sS'archive_size'
p705
I134
sS'number_of_operators'
p706
I19
sS'alg_name'
p707
S'small-LTI'
p708
sS'archive_tree_deapth'
p709
I2
sS'logbook'
p710
g12
(g13
g14
(lp711
(dp712
S'status'
p713
NsS'iteration'
p714
I0
sS'count_wrongs'
p715
I6
sS'picked_node'
p716
NsS'len_master_tree'
p717
I1
sS'total_wrongs'
p718
I6
sa(dp719
g713
S'worst'
p720
sg714
I1
sg715
I7
sg716
I0
sg717
I5
sg718
I29
sa(dp721
g713
S'better'
p722
sg714
I2
sg715
I4
sg716
I4
sg717
I9
sg718
I22
sa(dp723
g713
g722
sg714
I3
sg715
I3
sg716
I7
sg717
I13
sg718
I18
sa(dp724
g713
S'perfect'
p725
sg714
I4
sg715
I3
sg716
I5
sg717
I17
sg718
I9
sa(dp726
g713
g720
sg714
I5
sg715
I4
sg716
I1
sg717
I21
sg718
I49
sa(dp727
g713
g725
sg714
I6
sg715
I4
sg716
I15
sg717
I27
sg718
I47
sa(dp728
g713
g725
sg714
I7
sg715
I3
sg716
I6
sg717
I27
sg718
I31
sa(dp729
g713
g725
sg714
I8
sg715
I2
sg716
I9
sg717
I27
sg718
I9
sa(dp730
g713
g720
sg714
I9
sg715
I3
sg716
I11
sg717
I27
sg718
I17
sa(dp731
g713
g722
sg714
I10
sg715
I2
sg716
I24
sg717
I27
sg718
I9
sa(dp732
g713
g720
sg714
I11
sg715
I3
sg716
I26
sg717
I27
sg718
I17
sa(dp733
g713
g722
sg714
I12
sg715
I2
sg716
I9
sg717
I27
sg718
I9
sa(dp734
g713
g720
sg714
I13
sg715
I3
sg716
I22
sg717
I27
sg718
I17
sa(dp735
g713
g722
sg714
I14
sg715
I2
sg716
I26
sg717
I27
sg718
I9
sa(dp736
g713
g720
sg714
I15
sg715
I2
sg716
I22
sg717
I27
sg718
I14
sa(dp737
g713
g725
sg714
I16
sg715
I1
sg716
I26
sg717
I33
sg718
I3
sa(dp738
g713
g720
sg714
I17
sg715
I4
sg716
I2
sg717
I37
sg718
I66
sa(dp739
g713
g725
sg714
I18
sg715
I4
sg716
I26
sg717
I37
sg718
I63
sa(dp740
g713
g725
sg714
I19
sg715
I2
sg716
I6
sg717
I37
sg718
I24
sa(dp741
g713
g725
sg714
I20
sg715
I1
sg716
I32
sg717
I41
sg718
I22
sa(dp742
g713
g725
sg714
I21
sg715
I0
sg716
I11
sg717
I39
sg718
I0
satRp743
(dp744
g55
I01
sg56
(lp745
g714
ag717
ag715
ag718
ag716
ag713
asg58
Nsg59
I0
sg60
g61
(g13
tRp746
sbsS'max_archive_size'
p747
NsS'solution_found_flag'
p748
I01
sS'time_taken'
p749
F0.38030290603637695
sS'benchmark_name'
p750
S'M_A1'
p751
sa(dp752
S'tree_str'
p753
S'a1(a1(a1(a1(ARG2,a1(ARG2,a1(ARG0,ARG2))),a1(ARG1,ARG0)),a1(a1(a1(a1(ARG0,ARG2),ARG1),a1(a1(ARG1,a1(ARG1,ARG2)),ARG0)),a1(a1(ARG1,a1(a1(ARG0,ARG0),a1(ARG0,ARG0))),ARG0))),a1(a1(ARG2,a1(a1(ARG0,ARG0),a1(ARG2,a1(ARG2,ARG1)))),ARG2))'
p754
sS'tree_len'
p755
I51
sS'archive_size'
p756
I134
sS'number_of_operators'
p757
I25
sS'alg_name'
p758
S'small-LTI'
p759
sS'archive_tree_deapth'
p760
I2
sS'logbook'
p761
g12
(g13
g14
(lp762
(dp763
S'status'
p764
NsS'iteration'
p765
I0
sS'count_wrongs'
p766
I6
sS'picked_node'
p767
NsS'len_master_tree'
p768
I1
sS'total_wrongs'
p769
I6
sa(dp770
g764
S'worst'
p771
sg765
I1
sg766
I7
sg767
I0
sg768
I5
sg769
I28
sa(dp772
g764
S'better'
p773
sg765
I2
sg766
I6
sg767
I4
sg768
I9
sg769
I23
sa(dp774
g764
g773
sg765
I3
sg766
I5
sg767
I3
sg768
I13
sg769
I31
sa(dp775
g764
g771
sg765
I4
sg766
I6
sg767
I9
sg768
I15
sg769
I42
sa(dp776
g764
S'perfect'
p777
sg765
I5
sg766
I4
sg767
I13
sg768
I19
sg769
I18
sa(dp778
g764
g771
sg765
I6
sg766
I5
sg767
I8
sg768
I13
sg769
I31
sa(dp779
g764
g771
sg765
I7
sg766
I6
sg767
I9
sg768
I15
sg769
I45
sa(dp780
g764
g777
sg765
I8
sg766
I4
sg767
I13
sg768
I19
sg769
I18
sa(dp781
g764
g771
sg765
I9
sg766
I5
sg767
I8
sg768
I15
sg769
I28
sa(dp782
g764
g777
sg765
I10
sg766
I5
sg767
I10
sg768
I15
sg769
I25
sa(dp783
g764
g773
sg765
I11
sg766
I4
sg767
I12
sg768
I19
sg769
I21
sa(dp784
g764
g777
sg765
I12
sg766
I4
sg767
I18
sg768
I25
sg769
I20
sa(dp785
g764
g771
sg765
I13
sg766
I5
sg767
I14
sg768
I15
sg769
I25
sa(dp786
g764
g773
sg765
I14
sg766
I4
sg767
I14
sg768
I19
sg769
I21
sa(dp787
g764
g777
sg765
I15
sg766
I4
sg767
I18
sg768
I25
sg769
I20
sa(dp788
g764
g771
sg765
I16
sg766
I5
sg767
I8
sg768
I15
sg769
I28
sa(dp789
g764
g777
sg765
I17
sg766
I5
sg767
I11
sg768
I15
sg769
I25
sa(dp790
g764
g771
sg765
I18
sg766
I6
sg767
I7
sg768
I15
sg769
I36
sa(dp791
g764
g773
sg765
I19
sg766
I5
sg767
I7
sg768
I13
sg769
I21
sa(dp792
g764
g771
sg765
I20
sg766
I5
sg767
I3
sg768
I13
sg769
I31
sa(dp793
g764
g773
sg765
I21
sg766
I5
sg767
I8
sg768
I13
sg769
I21
sa(dp794
g764
g771
sg765
I22
sg766
I5
sg767
I5
sg768
I13
sg769
I32
sa(dp795
g764
g773
sg765
I23
sg766
I5
sg767
I10
sg768
I13
sg769
I21
sa(dp796
g764
g771
sg765
I24
sg766
I5
sg767
I10
sg768
I13
sg769
I32
sa(dp797
g764
g773
sg765
I25
sg766
I5
sg767
I3
sg768
I13
sg769
I21
sa(dp798
g764
g771
sg765
I26
sg766
I5
sg767
I3
sg768
I13
sg769
I32
sa(dp799
g764
g773
sg765
I27
sg766
I6
sg767
I7
sg768
I17
sg769
I29
sa(dp800
g764
g773
sg765
I28
sg766
I5
sg767
I4
sg768
I17
sg769
I25
sa(dp801
g764
g777
sg765
I29
sg766
I5
sg767
I10
sg768
I21
sg769
I22
sa(dp802
g764
g777
sg765
I30
sg766
I5
sg767
I14
sg768
I25
sg769
I19
sa(dp803
g764
g771
sg765
I31
sg766
I6
sg767
I4
sg768
I19
sg769
I37
sa(dp804
g764
g777
sg765
I32
sg766
I5
sg767
I4
sg768
I15
sg769
I18
sa(dp805
g764
g777
sg765
I33
sg766
I4
sg767
I7
sg768
I17
sg769
I8
sa(dp806
g764
g771
sg765
I34
sg766
I6
sg767
I0
sg768
I1
sg769
I6
sa(dp807
g764
g771
sg765
I35
sg766
I7
sg767
I0
sg768
I5
sg769
I29
sa(dp808
g764
g773
sg765
I36
sg766
I4
sg767
I4
sg768
I9
sg769
I22
sa(dp809
g764
g773
sg765
I37
sg766
I3
sg767
I7
sg768
I13
sg769
I18
sa(dp810
g764
g777
sg765
I38
sg766
I3
sg767
I5
sg768
I17
sg769
I9
sa(dp811
g764
g771
sg765
I39
sg766
I4
sg767
I1
sg768
I21
sg769
I36
sa(dp812
g764
g777
sg765
I40
sg766
I4
sg767
I15
sg768
I25
sg769
I31
sa(dp813
g764
g777
sg765
I41
sg766
I3
sg767
I5
sg768
I29
sg769
I17
sa(dp814
g764
g773
sg765
I42
sg766
I2
sg767
I18
sg768
I35
sg769
I32
sa(dp815
g764
g777
sg765
I43
sg766
I1
sg767
I27
sg768
I35
sg769
I3
sa(dp816
g764
g771
sg765
I44
sg766
I4
sg767
I2
sg768
I41
sg769
I87
sa(dp817
g764
g777
sg765
I45
sg766
I4
sg767
I17
sg768
I43
sg769
I72
sa(dp818
g764
g777
sg765
I46
sg766
I3
sg767
I28
sg768
I45
sg769
I47
sa(dp819
g764
g773
sg765
I47
sg766
I2
sg767
I22
sg768
I47
sg769
I44
sa(dp820
g764
g777
sg765
I48
sg766
I1
sg767
I40
sg768
I47
sg769
I9
sa(dp821
g764
g777
sg765
I49
sg766
I0
sg767
I31
sg768
I51
sg769
I0
satRp822
(dp823
g55
I01
sg56
(lp824
g765
ag768
ag766
ag769
ag767
ag764
asg58
Nsg59
I0
sg60
g61
(g13
tRp825
sbsS'max_archive_size'
p826
NsS'solution_found_flag'
p827
I01
sS'time_taken'
p828
F1.4140939712524414
sS'benchmark_name'
p829
S'M_A1'
p830
sa(dp831
S'tree_str'
p832
S'a1(a1(a1(a1(ARG2,ARG0),a1(a1(ARG0,ARG1),ARG1)),a1(a1(ARG0,ARG1),a1(a1(a1(a1(a1(ARG0,ARG0),a1(ARG1,ARG0)),ARG1),ARG2),ARG0))),a1(ARG0,a1(a1(a1(ARG0,ARG0),ARG1),a1(ARG2,a1(a1(a1(ARG1,ARG0),a1(ARG1,ARG0)),ARG2)))))'
p833
sS'tree_len'
p834
I47
sS'archive_size'
p835
I134
sS'number_of_operators'
p836
I23
sS'alg_name'
p837
S'small-LTI'
p838
sS'archive_tree_deapth'
p839
I2
sS'logbook'
p840
g12
(g13
g14
(lp841
(dp842
S'status'
p843
NsS'iteration'
p844
I0
sS'count_wrongs'
p845
I6
sS'picked_node'
p846
NsS'len_master_tree'
p847
I1
sS'total_wrongs'
p848
I6
sa(dp849
g843
S'worst'
p850
sg844
I1
sg845
I7
sg846
I0
sg847
I5
sg848
I28
sa(dp851
g843
S'better'
p852
sg844
I2
sg845
I6
sg846
I4
sg847
I9
sg848
I23
sa(dp853
g843
g852
sg844
I3
sg845
I5
sg846
I3
sg847
I13
sg848
I31
sa(dp854
g843
g850
sg844
I4
sg845
I6
sg846
I9
sg847
I15
sg848
I42
sa(dp855
g843
S'perfect'
p856
sg844
I5
sg845
I4
sg846
I13
sg847
I19
sg848
I18
sa(dp857
g843
g850
sg844
I6
sg845
I5
sg846
I8
sg847
I13
sg848
I31
sa(dp858
g843
g850
sg844
I7
sg845
I6
sg846
I9
sg847
I15
sg848
I45
sa(dp859
g843
g856
sg844
I8
sg845
I4
sg846
I13
sg847
I19
sg848
I18
sa(dp860
g843
g850
sg844
I9
sg845
I5
sg846
I8
sg847
I15
sg848
I28
sa(dp861
g843
g856
sg844
I10
sg845
I5
sg846
I10
sg847
I15
sg848
I25
sa(dp862
g843
g852
sg844
I11
sg845
I4
sg846
I12
sg847
I19
sg848
I21
sa(dp863
g843
g856
sg844
I12
sg845
I4
sg846
I18
sg847
I25
sg848
I20
sa(dp864
g843
g850
sg844
I13
sg845
I5
sg846
I11
sg847
I15
sg848
I25
sa(dp865
g843
g850
sg844
I14
sg845
I6
sg846
I7
sg847
I15
sg848
I36
sa(dp866
g843
g852
sg844
I15
sg845
I5
sg846
I7
sg847
I13
sg848
I21
sa(dp867
g843
g850
sg844
I16
sg845
I5
sg846
I10
sg847
I13
sg848
I32
sa(dp868
g843
g852
sg844
I17
sg845
I5
sg846
I8
sg847
I13
sg848
I21
sa(dp869
g843
g850
sg844
I18
sg845
I5
sg846
I5
sg847
I13
sg848
I32
sa(dp870
g843
g852
sg844
I19
sg845
I5
sg846
I3
sg847
I13
sg848
I21
sa(dp871
g843
g850
sg844
I20
sg845
I4
sg846
I3
sg847
I13
sg848
I30
sa(dp872
g843
g856
sg844
I21
sg845
I4
sg846
I12
sg847
I17
sg848
I8
sa(dp873
g843
g850
sg844
I22
sg845
I6
sg846
I0
sg847
I1
sg848
I6
sa(dp874
g843
g850
sg844
I23
sg845
I7
sg846
I0
sg847
I5
sg848
I29
sa(dp875
g843
g852
sg844
I24
sg845
I4
sg846
I4
sg847
I9
sg848
I22
sa(dp876
g843
g852
sg844
I25
sg845
I3
sg846
I7
sg847
I13
sg848
I18
sa(dp877
g843
g856
sg844
I26
sg845
I3
sg846
I5
sg847
I17
sg848
I9
sa(dp878
g843
g850
sg844
I27
sg845
I4
sg846
I1
sg847
I21
sg848
I49
sa(dp879
g843
g856
sg844
I28
sg845
I3
sg846
I5
sg847
I27
sg848
I28
sa(dp880
g843
g856
sg844
I29
sg845
I3
sg846
I13
sg847
I31
sg848
I31
sa(dp881
g843
g856
sg844
I30
sg845
I2
sg846
I5
sg847
I31
sg848
I9
sa(dp882
g843
g850
sg844
I31
sg845
I3
sg846
I13
sg847
I31
sg848
I40
sa(dp883
g843
g856
sg844
I32
sg845
I3
sg846
I7
sg847
I29
sg848
I17
sa(dp884
g843
g850
sg844
I33
sg845
I3
sg846
I7
sg847
I29
sg848
I22
sa(dp885
g843
g852
sg844
I34
sg845
I2
sg846
I28
sg847
I33
sg848
I38
sa(dp886
g843
g856
sg844
I35
sg845
I1
sg846
I7
sg847
I33
sg848
I12
sa(dp887
g843
g856
sg844
I36
sg845
I1
sg846
I24
sg847
I37
sg848
I3
sa(dp888
g843
g850
sg844
I37
sg845
I6
sg846
I1
sg847
I17
sg848
I65
sa(dp889
g843
g856
sg844
I38
sg845
I5
sg846
I9
sg847
I19
sg848
I32
sa(dp890
g843
g856
sg844
I39
sg845
I5
sg846
I6
sg847
I23
sg848
I26
sa(dp891
g843
g852
sg844
I40
sg845
I4
sg846
I10
sg847
I27
sg848
I46
sa(dp892
g843
g856
sg844
I41
sg845
I4
sg846
I10
sg847
I27
sg848
I29
sa(dp893
g843
g852
sg844
I42
sg845
I2
sg846
I16
sg847
I31
sg848
I15
sa(dp894
g843
g856
sg844
I43
sg845
I1
sg846
I29
sg847
I35
sg848
I3
sa(dp895
g843
g850
sg844
I44
sg845
I4
sg846
I9
sg847
I39
sg848
I77
sa(dp896
g843
g856
sg844
I45
sg845
I4
sg846
I9
sg847
I35
sg848
I62
sa(dp897
g843
g856
sg844
I46
sg845
I4
sg846
I25
sg847
I35
sg848
I61
sa(dp898
g843
g856
sg844
I47
sg845
I4
sg846
I26
sg847
I37
sg848
I46
sa(dp899
g843
g856
sg844
I48
sg845
I2
sg846
I4
sg847
I41
sg848
I21
sa(dp900
g843
g852
sg844
I49
sg845
I1
sg846
I27
sg847
I45
sg848
I10
sa(dp901
g843
g850
sg844
I50
sg845
I2
sg846
I26
sg847
I41
sg848
I21
sa(dp902
g843
g852
sg844
I51
sg845
I1
sg846
I37
sg847
I45
sg848
I25
sa(dp903
g843
g856
sg844
I52
sg845
I1
sg846
I24
sg847
I47
sg848
I10
sa(dp904
g843
g856
sg844
I53
sg845
I0
sg846
I9
sg847
I47
sg848
I0
satRp905
(dp906
g55
I01
sg56
(lp907
g844
ag847
ag845
ag848
ag846
ag843
asg58
Nsg59
I0
sg60
g61
(g13
tRp908
sbsS'max_archive_size'
p909
NsS'solution_found_flag'
p910
I01
sS'time_taken'
p911
F1.5069401264190674
sS'benchmark_name'
p912
S'M_A1'
p913
sa(dp914
S'tree_str'
p915
S'a1(a1(a1(a1(ARG0,ARG2),a1(a1(ARG2,ARG1),ARG2)),a1(a1(ARG1,a1(ARG2,a1(ARG0,ARG1))),a1(a1(ARG0,ARG1),ARG1))),a1(a1(a1(a1(ARG1,ARG1),ARG0),a1(a1(ARG2,ARG1),a1(ARG1,ARG1))),a1(ARG2,a1(ARG2,a1(a1(ARG0,ARG1),ARG1)))))'
p916
sS'tree_len'
p917
I47
sS'archive_size'
p918
I134
sS'number_of_operators'
p919
I23
sS'alg_name'
p920
S'small-LTI'
p921
sS'archive_tree_deapth'
p922
I2
sS'logbook'
p923
g12
(g13
g14
(lp924
(dp925
S'status'
p926
NsS'iteration'
p927
I0
sS'count_wrongs'
p928
I6
sS'picked_node'
p929
NsS'len_master_tree'
p930
I1
sS'total_wrongs'
p931
I6
sa(dp932
g926
S'worst'
p933
sg927
I1
sg928
I7
sg929
I0
sg930
I5
sg931
I28
sa(dp934
g926
S'better'
p935
sg927
I2
sg928
I6
sg929
I4
sg930
I9
sg931
I23
sa(dp936
g926
g935
sg927
I3
sg928
I5
sg929
I3
sg930
I15
sg931
I28
sa(dp937
g926
S'perfect'
p938
sg927
I4
sg928
I5
sg929
I9
sg930
I15
sg931
I25
sa(dp939
g926
g933
sg927
I5
sg928
I6
sg929
I5
sg930
I15
sg931
I36
sa(dp940
g926
g935
sg927
I6
sg928
I5
sg929
I5
sg930
I13
sg931
I21
sa(dp941
g926
g933
sg927
I7
sg928
I5
sg929
I3
sg930
I13
sg931
I31
sa(dp942
g926
g935
sg927
I8
sg928
I5
sg929
I8
sg930
I13
sg931
I21
sa(dp943
g926
g933
sg927
I9
sg928
I5
sg929
I10
sg930
I13
sg931
I32
sa(dp944
g926
g935
sg927
I10
sg928
I5
sg929
I10
sg930
I13
sg931
I21
sa(dp945
g926
g933
sg927
I11
sg928
I5
sg929
I5
sg930
I13
sg931
I32
sa(dp946
g926
g935
sg927
I12
sg928
I5
sg929
I3
sg930
I13
sg931
I21
sa(dp947
g926
g933
sg927
I13
sg928
I5
sg929
I3
sg930
I13
sg931
I32
sa(dp948
g926
g935
sg927
I14
sg928
I6
sg929
I7
sg930
I17
sg931
I29
sa(dp949
g926
g935
sg927
I15
sg928
I5
sg929
I4
sg930
I17
sg931
I25
sa(dp950
g926
g938
sg927
I16
sg928
I5
sg929
I15
sg930
I21
sg931
I22
sa(dp951
g926
g938
sg927
I17
sg928
I5
sg929
I10
sg930
I25
sg931
I19
sa(dp952
g926
g933
sg927
I18
sg928
I6
sg929
I4
sg930
I19
sg931
I29
sa(dp953
g926
g935
sg927
I19
sg928
I5
sg929
I16
sg930
I21
sg931
I22
sa(dp954
g926
g938
sg927
I20
sg928
I5
sg929
I19
sg930
I25
sg931
I19
sa(dp955
g926
g933
sg927
I21
sg928
I6
sg929
I16
sg930
I19
sg931
I29
sa(dp956
g926
g935
sg927
I22
sg928
I4
sg929
I16
sg930
I21
sg931
I27
sa(dp957
g926
g938
sg927
I23
sg928
I4
sg929
I20
sg930
I25
sg931
I8
sa(dp958
g926
g933
sg927
I24
sg928
I6
sg929
I0
sg930
I1
sg931
I6
sa(dp959
g926
g933
sg927
I25
sg928
I7
sg929
I0
sg930
I5
sg931
I29
sa(dp960
g926
g935
sg927
I26
sg928
I4
sg929
I4
sg930
I9
sg931
I22
sa(dp961
g926
g935
sg927
I27
sg928
I3
sg929
I7
sg930
I13
sg931
I18
sa(dp962
g926
g938
sg927
I28
sg928
I3
sg929
I5
sg930
I17
sg931
I9
sa(dp963
g926
g933
sg927
I29
sg928
I3
sg929
I1
sg930
I21
sg931
I21
sa(dp964
g926
g938
sg927
I30
sg928
I2
sg929
I20
sg930
I27
sg931
I10
sa(dp965
g926
g933
sg927
I31
sg928
I3
sg929
I16
sg930
I17
sg931
I9
sa(dp966
g926
g933
sg927
I32
sg928
I3
sg929
I16
sg930
I21
sg931
I21
sa(dp967
g926
g938
sg927
I33
sg928
I2
sg929
I20
sg930
I27
sg931
I10
sa(dp968
g926
g933
sg927
I34
sg928
I3
sg929
I17
sg930
I31
sg931
I43
sa(dp969
g926
g938
sg927
I35
sg928
I2
sg929
I19
sg930
I29
sg931
I26
sa(dp970
g926
g938
sg927
I36
sg928
I2
sg929
I10
sg930
I29
sg931
I22
sa(dp971
g926
g938
sg927
I37
sg928
I2
sg929
I21
sg930
I29
sg931
I24
sa(dp972
g926
g938
sg927
I38
sg928
I1
sg929
I10
sg930
I29
sg931
I3
sa(dp973
g926
g933
sg927
I39
sg928
I4
sg929
I1
sg930
I17
sg931
I36
sa(dp974
g926
g938
sg927
I40
sg928
I3
sg929
I9
sg930
I21
sg931
I20
sa(dp975
g926
g938
sg927
I41
sg928
I3
sg929
I7
sg930
I25
sg931
I12
sa(dp976
g926
g935
sg927
I42
sg928
I2
sg929
I14
sg930
I29
sg931
I13
sa(dp977
g926
g933
sg927
I43
sg928
I3
sg929
I26
sg930
I31
sg931
I31
sa(dp978
g926
g938
sg927
I44
sg928
I2
sg929
I30
sg930
I33
sg931
I14
sa(dp979
g926
g938
sg927
I45
sg928
I2
sg929
I29
sg930
I37
sg931
I8
sa(dp980
g926
g933
sg927
I46
sg928
I2
sg929
I24
sg930
I29
sg931
I13
sa(dp981
g926
g935
sg927
I47
sg928
I2
sg929
I25
sg930
I33
sg931
I12
sa(dp982
g926
g938
sg927
I48
sg928
I2
sg929
I30
sg930
I35
sg931
I9
sa(dp983
g926
g933
sg927
I49
sg928
I2
sg929
I28
sg930
I29
sg931
I13
sa(dp984
g926
g935
sg927
I50
sg928
I2
sg929
I28
sg930
I33
sg931
I12
sa(dp985
g926
g938
sg927
I51
sg928
I2
sg929
I32
sg930
I37
sg931
I9
sa(dp986
g926
g933
sg927
I52
sg928
I2
sg929
I24
sg930
I29
sg931
I13
sa(dp987
g926
g933
sg927
I53
sg928
I4
sg929
I26
sg930
I31
sg931
I44
sa(dp988
g926
g938
sg927
I54
sg928
I3
sg929
I30
sg930
I33
sg931
I27
sa(dp989
g926
g938
sg927
I55
sg928
I3
sg929
I16
sg930
I35
sg931
I20
sa(dp990
g926
g938
sg927
I56
sg928
I3
sg929
I26
sg930
I39
sg931
I32
sa(dp991
g926
g938
sg927
I57
sg928
I2
sg929
I7
sg930
I33
sg931
I8
sa(dp992
g926
g933
sg927
I58
sg928
I3
sg929
I15
sg930
I27
sg931
I39
sa(dp993
g926
g938
sg927
I59
sg928
I3
sg929
I26
sg930
I29
sg931
I35
sa(dp994
g926
g938
sg927
I60
sg928
I3
sg929
I16
sg930
I33
sg931
I30
sa(dp995
g926
g938
sg927
I61
sg928
I3
sg929
I13
sg930
I37
sg931
I19
sa(dp996
g926
g938
sg927
I62
sg928
I2
sg929
I23
sg930
I43
sg931
I10
sa(dp997
g926
g933
sg927
I63
sg928
I2
sg929
I18
sg930
I33
sg931
I13
sa(dp998
g926
g933
sg927
I64
sg928
I3
sg929
I30
sg930
I35
sg931
I31
sa(dp999
g926
g938
sg927
I65
sg928
I2
sg929
I34
sg930
I37
sg931
I14
sa(dp1000
g926
g938
sg927
I66
sg928
I2
sg929
I33
sg930
I41
sg931
I8
sa(dp1001
g926
g933
sg927
I67
sg928
I2
sg929
I28
sg930
I33
sg931
I13
sa(dp1002
g926
g935
sg927
I68
sg928
I2
sg929
I29
sg930
I37
sg931
I12
sa(dp1003
g926
g938
sg927
I69
sg928
I2
sg929
I34
sg930
I39
sg931
I9
sa(dp1004
g926
g933
sg927
I70
sg928
I2
sg929
I28
sg930
I33
sg931
I13
sa(dp1005
g926
g933
sg927
I71
sg928
I4
sg929
I30
sg930
I35
sg931
I44
sa(dp1006
g926
g938
sg927
I72
sg928
I3
sg929
I34
sg930
I37
sg931
I27
sa(dp1007
g926
g938
sg927
I73
sg928
I3
sg929
I18
sg930
I39
sg931
I20
sa(dp1008
g926
g938
sg927
I74
sg928
I3
sg929
I28
sg930
I43
sg931
I28
sa(dp1009
g926
g938
sg927
I75
sg928
I2
sg929
I14
sg930
I37
sg931
I8
sa(dp1010
g926
g933
sg927
I76
sg928
I3
sg929
I19
sg930
I31
sg931
I23
sa(dp1011
g926
g938
sg927
I77
sg928
I3
sg929
I30
sg930
I33
sg931
I19
sa(dp1012
g926
g938
sg927
I78
sg928
I2
sg929
I29
sg930
I39
sg931
I10
sa(dp1013
g926
g933
sg927
I79
sg928
I3
sg929
I24
sg930
I31
sg931
I23
sa(dp1014
g926
g938
sg927
I80
sg928
I3
sg929
I25
sg930
I33
sg931
I17
sa(dp1015
g926
g933
sg927
I81
sg928
I3
sg929
I24
sg930
I31
sg931
I37
sa(dp1016
g926
g938
sg927
I82
sg928
I3
sg929
I30
sg930
I33
sg931
I35
sa(dp1017
g926
g938
sg927
I83
sg928
I3
sg929
I20
sg930
I39
sg931
I30
sa(dp1018
g926
g938
sg927
I84
sg928
I3
sg929
I28
sg930
I45
sg931
I30
sa(dp1019
g926
g938
sg927
I85
sg928
I2
sg929
I31
sg930
I43
sg931
I10
sa(dp1020
g926
g938
sg927
I86
sg928
I1
sg929
I26
sg930
I49
sg931
I3
sa(dp1021
g926
g933
sg927
I87
sg928
I3
sg929
I8
sg930
I29
sg931
I12
sa(dp1022
g926
g935
sg927
I88
sg928
I3
sg929
I28
sg930
I35
sg931
I23
sa(dp1023
g926
g938
sg927
I89
sg928
I3
sg929
I34
sg930
I37
sg931
I19
sa(dp1024
g926
g938
sg927
I90
sg928
I2
sg929
I33
sg930
I43
sg931
I10
sa(dp1025
g926
g933
sg927
I91
sg928
I3
sg929
I29
sg930
I45
sg931
I53
sa(dp1026
g926
g938
sg927
I92
sg928
I3
sg929
I25
sg930
I45
sg931
I52
sa(dp1027
g926
g938
sg927
I93
sg928
I3
sg929
I24
sg930
I47
sg931
I45
sa(dp1028
g926
g938
sg927
I94
sg928
I2
sg929
I30
sg930
I51
sg931
I23
sa(dp1029
g926
g938
sg927
I95
sg928
I1
sg929
I23
sg930
I49
sg931
I3
sa(dp1030
g926
g933
sg927
I96
sg928
I3
sg929
I23
sg930
I29
sg931
I12
sa(dp1031
g926
g933
sg927
I97
sg928
I4
sg929
I28
sg930
I33
sg931
I43
sa(dp1032
g926
g938
sg927
I98
sg928
I4
sg929
I23
sg930
I35
sg931
I35
sa(dp1033
g926
g935
sg927
I99
sg928
I3
sg929
I29
sg930
I35
sg931
I33
sa(dp1034
g926
g938
sg927
I100
sg928
I2
sg929
I29
sg930
I33
sg931
I13
sa(dp1035
g926
g933
sg927
I101
sg928
I4
sg929
I27
sg930
I35
sg931
I45
sa(dp1036
g926
g938
sg927
I102
sg928
I4
sg929
I29
sg930
I39
sg931
I44
sa(dp1037
g926
g938
sg927
I103
sg928
I3
sg929
I33
sg930
I41
sg931
I27
sa(dp1038
g926
g938
sg927
I104
sg928
I3
sg929
I21
sg930
I39
sg931
I20
sa(dp1039
g926
g938
sg927
I105
sg928
I3
sg929
I28
sg930
I43
sg931
I28
sa(dp1040
g926
g938
sg927
I106
sg928
I2
sg929
I17
sg930
I37
sg931
I8
sa(dp1041
g926
g933
sg927
I107
sg928
I3
sg929
I20
sg930
I41
sg931
I26
sa(dp1042
g926
g938
sg927
I108
sg928
I2
sg929
I21
sg930
I45
sg931
I12
sa(dp1043
g926
g938
sg927
I109
sg928
I2
sg929
I39
sg930
I51
sg931
I9
sa(dp1044
g926
g933
sg927
I110
sg928
I3
sg929
I35
sg930
I41
sg931
I40
sa(dp1045
g926
g938
sg927
I111
sg928
I3
sg929
I12
sg930
I37
sg931
I31
sa(dp1046
g926
g938
sg927
I112
sg928
I2
sg929
I30
sg930
I33
sg931
I8
sa(dp1047
g926
g933
sg927
I113
sg928
I3
sg929
I14
sg930
I27
sg931
I39
sa(dp1048
g926
g938
sg927
I114
sg928
I3
sg929
I26
sg930
I29
sg931
I35
sa(dp1049
g926
g938
sg927
I115
sg928
I3
sg929
I9
sg930
I33
sg931
I19
sa(dp1050
g926
g938
sg927
I116
sg928
I2
sg929
I24
sg930
I39
sg931
I10
sa(dp1051
g926
g933
sg927
I117
sg928
I3
sg929
I20
sg930
I37
sg931
I42
sa(dp1052
g926
g938
sg927
I118
sg928
I3
sg929
I14
sg930
I41
sg931
I37
sa(dp1053
g926
g938
sg927
I119
sg928
I2
sg929
I33
sg930
I45
sg931
I21
sa(dp1054
g926
g938
sg927
I120
sg928
I1
sg929
I13
sg930
I41
sg931
I3
sa(dp1055
g926
g933
sg927
I121
sg928
I4
sg929
I11
sg930
I25
sg931
I40
sa(dp1056
g926
g938
sg927
I122
sg928
I4
sg929
I12
sg930
I25
sg931
I25
sa(dp1057
g926
g938
sg927
I123
sg928
I3
sg929
I15
sg930
I29
sg931
I12
sa(dp1058
g926
g935
sg927
I124
sg928
I2
sg929
I18
sg930
I33
sg931
I13
sa(dp1059
g926
g933
sg927
I125
sg928
I3
sg929
I32
sg930
I33
sg931
I31
sa(dp1060
g926
g938
sg927
I126
sg928
I2
sg929
I23
sg930
I33
sg931
I13
sa(dp1061
g926
g933
sg927
I127
sg928
I4
sg929
I27
sg930
I33
sg931
I46
sa(dp1062
g926
g938
sg927
I128
sg928
I4
sg929
I22
sg930
I33
sg931
I34
sa(dp1063
g926
g938
sg927
I129
sg928
I3
sg929
I13
sg930
I39
sg931
I16
sa(dp1064
g926
g938
sg927
I130
sg928
I2
sg929
I24
sg930
I43
sg931
I8
sa(dp1065
g926
g933
sg927
I131
sg928
I3
sg929
I21
sg930
I39
sg931
I16
sa(dp1066
g926
g938
sg927
I132
sg928
I2
sg929
I37
sg930
I43
sg931
I8
sa(dp1067
g926
g933
sg927
I133
sg928
I3
sg929
I34
sg930
I39
sg931
I16
sa(dp1068
g926
g938
sg927
I134
sg928
I2
sg929
I37
sg930
I43
sg931
I8
sa(dp1069
g926
g933
sg927
I135
sg928
I3
sg929
I34
sg930
I39
sg931
I18
sa(dp1070
g926
g938
sg927
I136
sg928
I2
sg929
I38
sg930
I39
sg931
I10
sa(dp1071
g926
g933
sg927
I137
sg928
I3
sg929
I36
sg930
I39
sg931
I18
sa(dp1072
g926
g938
sg927
I138
sg928
I3
sg929
I35
sg930
I43
sg931
I17
sa(dp1073
g926
g935
sg927
I139
sg928
I2
sg929
I34
sg930
I39
sg931
I10
sa(dp1074
g926
g933
sg927
I140
sg928
I3
sg929
I37
sg930
I43
sg931
I80
sa(dp1075
g926
g938
sg927
I141
sg928
I2
sg929
I6
sg930
I35
sg931
I21
sa(dp1076
g926
g938
sg927
I142
sg928
I1
sg929
I16
sg930
I33
sg931
I3
sa(dp1077
g926
g933
sg927
I143
sg928
I3
sg929
I9
sg930
I25
sg931
I12
sa(dp1078
g926
g935
sg927
I144
sg928
I2
sg929
I24
sg930
I29
sg931
I13
sa(dp1079
g926
g938
sg927
I145
sg928
I2
sg929
I27
sg930
I35
sg931
I8
sa(dp1080
g926
g933
sg927
I146
sg928
I2
sg929
I24
sg930
I29
sg931
I13
sa(dp1081
g926
g938
sg927
I147
sg928
I2
sg929
I28
sg930
I35
sg931
I8
sa(dp1082
g926
g933
sg927
I148
sg928
I2
sg929
I25
sg930
I37
sg931
I16
sa(dp1083
g926
g938
sg927
I149
sg928
I2
sg929
I25
sg930
I33
sg931
I10
sa(dp1084
g926
g933
sg927
I150
sg928
I4
sg929
I27
sg930
I35
sg931
I44
sa(dp1085
g926
g935
sg927
I151
sg928
I2
sg929
I32
sg930
I33
sg931
I10
sa(dp1086
g926
g933
sg927
I152
sg928
I4
sg929
I32
sg930
I35
sg931
I44
sa(dp1087
g926
g935
sg927
I153
sg928
I3
sg929
I32
sg930
I37
sg931
I23
sa(dp1088
g926
g938
sg927
I154
sg928
I1
sg929
I26
sg930
I41
sg931
I3
sa(dp1089
g926
g933
sg927
I155
sg928
I3
sg929
I22
sg930
I25
sg931
I12
sa(dp1090
g926
g933
sg927
I156
sg928
I5
sg929
I24
sg930
I29
sg931
I60
sa(dp1091
g926
g938
sg927
I157
sg928
I5
sg929
I17
sg930
I31
sg931
I48
sa(dp1092
g926
g938
sg927
I158
sg928
I4
sg929
I3
sg930
I35
sg931
I32
sa(dp1093
g926
g938
sg927
I159
sg928
I3
sg929
I22
sg930
I35
sg931
I23
sa(dp1094
g926
g938
sg927
I160
sg928
I2
sg929
I14
sg930
I39
sg931
I10
sa(dp1095
g926
g933
sg927
I161
sg928
I3
sg929
I19
sg930
I39
sg931
I18
sa(dp1096
g926
g935
sg927
I162
sg928
I2
sg929
I17
sg930
I39
sg931
I10
sa(dp1097
g926
g933
sg927
I163
sg928
I3
sg929
I35
sg930
I43
sg931
I72
sa(dp1098
g926
g938
sg927
I164
sg928
I3
sg929
I29
sg930
I43
sg931
I55
sa(dp1099
g926
g938
sg927
I165
sg928
I1
sg929
I19
sg930
I45
sg931
I3
sa(dp1100
g926
g933
sg927
I166
sg928
I3
sg929
I15
sg930
I37
sg931
I12
sa(dp1101
g926
g935
sg927
I167
sg928
I2
sg929
I36
sg930
I41
sg931
I13
sa(dp1102
g926
g938
sg927
I168
sg928
I2
sg929
I40
sg930
I47
sg931
I8
sa(dp1103
g926
g933
sg927
I169
sg928
I2
sg929
I36
sg930
I41
sg931
I13
sa(dp1104
g926
g935
sg927
I170
sg928
I2
sg929
I37
sg930
I45
sg931
I12
sa(dp1105
g926
g938
sg927
I171
sg928
I2
sg929
I44
sg930
I47
sg931
I9
sa(dp1106
g926
g933
sg927
I172
sg928
I2
sg929
I40
sg930
I41
sg931
I13
sa(dp1107
g926
g938
sg927
I173
sg928
I2
sg929
I38
sg930
I47
sg931
I8
sa(dp1108
g926
g933
sg927
I174
sg928
I2
sg929
I39
sg930
I49
sg931
I50
sa(dp1109
g926
g938
sg927
I175
sg928
I1
sg929
I37
sg930
I45
sg931
I3
sa(dp1110
g926
g933
sg927
I176
sg928
I3
sg929
I34
sg930
I37
sg931
I12
sa(dp1111
g926
g933
sg927
I177
sg928
I4
sg929
I36
sg930
I41
sg931
I77
sa(dp1112
g926
g938
sg927
I178
sg928
I2
sg929
I13
sg930
I37
sg931
I13
sa(dp1113
g926
g938
sg927
I179
sg928
I2
sg929
I32
sg930
I43
sg931
I8
sa(dp1114
g926
g933
sg927
I180
sg928
I2
sg929
I29
sg930
I37
sg931
I27
sa(dp1115
g926
g938
sg927
I181
sg928
I1
sg929
I21
sg930
I37
sg931
I8
sa(dp1116
g926
g933
sg927
I182
sg928
I2
sg929
I29
sg930
I37
sg931
I40
sa(dp1117
g926
g938
sg927
I183
sg928
I2
sg929
I5
sg930
I27
sg931
I15
sa(dp1118
g926
g935
sg927
I184
sg928
I1
sg929
I17
sg930
I27
sg931
I8
sa(dp1119
g926
g933
sg927
I185
sg928
I2
sg929
I24
sg930
I27
sg931
I15
sa(dp1120
g926
g935
sg927
I186
sg928
I1
sg929
I24
sg930
I27
sg931
I8
sa(dp1121
g926
g933
sg927
I187
sg928
I2
sg929
I16
sg930
I27
sg931
I16
sa(dp1122
g926
g935
sg927
I188
sg928
I1
sg929
I26
sg930
I27
sg931
I8
sa(dp1123
g926
g933
sg927
I189
sg928
I2
sg929
I26
sg930
I27
sg931
I16
sa(dp1124
g926
g935
sg927
I190
sg928
I1
sg929
I26
sg930
I31
sg931
I11
sa(dp1125
g926
g938
sg927
I191
sg928
I1
sg929
I30
sg930
I37
sg931
I10
sa(dp1126
g926
g938
sg927
I192
sg928
I1
sg929
I29
sg930
I41
sg931
I3
sa(dp1127
g926
g933
sg927
I193
sg928
I4
sg929
I8
sg930
I45
sg931
I85
sa(dp1128
g926
g938
sg927
I194
sg928
I4
sg929
I39
sg930
I45
sg931
I85
sa(dp1129
g926
g938
sg927
I195
sg928
I4
sg929
I31
sg930
I47
sg931
I67
sa(dp1130
g926
g938
sg927
I196
sg928
I3
sg929
I34
sg930
I47
sg931
I37
sa(dp1131
g926
g938
sg927
I197
sg928
I2
sg929
I10
sg930
I51
sg931
I14
sa(dp1132
g926
g935
sg927
I198
sg928
I1
sg929
I34
sg930
I55
sg931
I10
sa(dp1133
g926
g933
sg927
I199
sg928
I2
sg929
I50
sg930
I51
sg931
I14
sa(dp1134
g926
g935
sg927
I200
sg928
I1
sg929
I50
sg930
I55
sg931
I10
sa(dp1135
g926
g933
sg927
I201
sg928
I2
sg929
I33
sg930
I51
sg931
I14
sa(dp1136
g926
g935
sg927
I202
sg928
I1
sg929
I50
sg930
I55
sg931
I11
sa(dp1137
g926
g933
sg927
I203
sg928
I2
sg929
I50
sg930
I51
sg931
I14
sa(dp1138
g926
g935
sg927
I204
sg928
I1
sg929
I50
sg930
I55
sg931
I11
sa(dp1139
g926
g933
sg927
I205
sg928
I2
sg929
I48
sg930
I51
sg931
I14
sa(dp1140
g926
g935
sg927
I206
sg928
I1
sg929
I47
sg930
I55
sg931
I10
sa(dp1141
g926
g933
sg927
I207
sg928
I2
sg929
I46
sg930
I51
sg931
I14
sa(dp1142
g926
g935
sg927
I208
sg928
I1
sg929
I47
sg930
I55
sg931
I10
sa(dp1143
g926
g933
sg927
I209
sg928
I2
sg929
I50
sg930
I55
sg931
I34
sa(dp1144
g926
g938
sg927
I210
sg928
I2
sg929
I28
sg930
I55
sg931
I29
sa(dp1145
g926
g938
sg927
I211
sg928
I2
sg929
I23
sg930
I59
sg931
I33
sa(dp1146
g926
g938
sg927
I212
sg928
I1
sg929
I26
sg930
I51
sg931
I10
sa(dp1147
g926
g933
sg927
I213
sg928
I2
sg929
I37
sg930
I51
sg931
I38
sa(dp1148
g926
g938
sg927
I214
sg928
I2
sg929
I25
sg930
I47
sg931
I29
sa(dp1149
g926
g938
sg927
I215
sg928
I1
sg929
I40
sg930
I47
sg931
I10
sa(dp1150
g926
g938
sg927
I216
sg928
I0
sg929
I33
sg930
I47
sg931
I0
satRp1151
(dp1152
g55
I01
sg56
(lp1153
g927
ag930
ag928
ag931
ag929
ag926
asg58
Nsg59
I0
sg60
g61
(g13
tRp1154
sbsS'max_archive_size'
p1155
NsS'solution_found_flag'
p1156
I01
sS'time_taken'
p1157
F3.368380069732666
sS'benchmark_name'
p1158
S'M_A1'
p1159
sa(dp1160
S'tree_str'
p1161
S'a1(a1(a1(a1(ARG0,a1(a1(ARG2,ARG0),a1(a1(ARG0,ARG1),ARG1))),ARG2),a1(a1(ARG1,a1(a1(ARG2,a1(ARG1,ARG0)),a1(a1(ARG1,a1(ARG2,ARG2)),ARG0))),a1(ARG0,a1(ARG1,ARG1)))),a1(a1(ARG0,a1(a1(ARG2,ARG2),a1(ARG2,ARG2))),ARG0))'
p1162
sS'tree_len'
p1163
I47
sS'archive_size'
p1164
I134
sS'number_of_operators'
p1165
I23
sS'alg_name'
p1166
S'small-LTI'
p1167
sS'archive_tree_deapth'
p1168
I2
sS'logbook'
p1169
g12
(g13
g14
(lp1170
(dp1171
S'status'
p1172
NsS'iteration'
p1173
I0
sS'count_wrongs'
p1174
I6
sS'picked_node'
p1175
NsS'len_master_tree'
p1176
I1
sS'total_wrongs'
p1177
I6
sa(dp1178
g1172
S'worst'
p1179
sg1173
I1
sg1174
I7
sg1175
I0
sg1176
I5
sg1177
I29
sa(dp1180
g1172
S'better'
p1181
sg1173
I2
sg1174
I4
sg1175
I4
sg1176
I9
sg1177
I22
sa(dp1182
g1172
g1181
sg1173
I3
sg1174
I3
sg1175
I7
sg1176
I13
sg1177
I18
sa(dp1183
g1172
S'perfect'
p1184
sg1173
I4
sg1174
I3
sg1175
I5
sg1176
I17
sg1177
I9
sa(dp1185
g1172
g1179
sg1173
I5
sg1174
I3
sg1175
I1
sg1176
I21
sg1177
I21
sa(dp1186
g1172
g1184
sg1173
I6
sg1174
I2
sg1175
I20
sg1176
I27
sg1177
I10
sa(dp1187
g1172
g1179
sg1173
I7
sg1174
I3
sg1175
I16
sg1176
I17
sg1177
I9
sa(dp1188
g1172
g1179
sg1173
I8
sg1174
I3
sg1175
I16
sg1176
I21
sg1177
I21
sa(dp1189
g1172
g1184
sg1173
I9
sg1174
I2
sg1175
I20
sg1176
I27
sg1177
I10
sa(dp1190
g1172
g1179
sg1173
I10
sg1174
I3
sg1175
I17
sg1176
I31
sg1177
I42
sa(dp1191
g1172
g1184
sg1173
I11
sg1174
I2
sg1175
I19
sg1176
I31
sg1177
I26
sa(dp1192
g1172
g1184
sg1173
I12
sg1174
I1
sg1175
I19
sg1176
I31
sg1177
I3
sa(dp1193
g1172
g1179
sg1173
I13
sg1174
I5
sg1175
I1
sg1176
I19
sg1177
I59
sa(dp1194
g1172
g1184
sg1173
I14
sg1174
I3
sg1175
I10
sg1176
I23
sg1177
I20
sa(dp1195
g1172
g1181
sg1173
I15
sg1174
I2
sg1175
I17
sg1176
I27
sg1177
I21
sa(dp1196
g1172
g1179
sg1173
I16
sg1174
I3
sg1175
I1
sg1176
I15
sg1177
I35
sa(dp1197
g1172
g1181
sg1173
I17
sg1174
I3
sg1175
I5
sg1176
I17
sg1177
I31
sa(dp1198
g1172
g1184
sg1173
I18
sg1174
I3
sg1175
I15
sg1176
I21
sg1177
I25
sa(dp1199
g1172
g1181
sg1173
I19
sg1174
I4
sg1175
I11
sg1176
I27
sg1177
I31
sa(dp1200
g1172
g1184
sg1173
I20
sg1174
I4
sg1175
I26
sg1176
I31
sg1177
I28
sa(dp1201
g1172
g1184
sg1173
I21
sg1174
I3
sg1175
I22
sg1176
I37
sg1177
I17
sa(dp1202
g1172
g1179
sg1173
I22
sg1174
I3
sg1175
I9
sg1176
I21
sg1177
I25
sa(dp1203
g1172
g1181
sg1173
I23
sg1174
I4
sg1175
I20
sg1176
I27
sg1177
I31
sa(dp1204
g1172
g1184
sg1173
I24
sg1174
I4
sg1175
I22
sg1176
I31
sg1177
I28
sa(dp1205
g1172
g1184
sg1173
I25
sg1174
I3
sg1175
I25
sg1176
I37
sg1177
I17
sa(dp1206
g1172
g1179
sg1173
I26
sg1174
I3
sg1175
I18
sg1176
I21
sg1177
I25
sa(dp1207
g1172
g1179
sg1173
I27
sg1174
I4
sg1175
I3
sg1176
I17
sg1177
I40
sa(dp1208
g1172
g1184
sg1173
I28
sg1174
I4
sg1175
I13
sg1176
I23
sg1177
I34
sa(dp1209
g1172
g1181
sg1173
I29
sg1174
I3
sg1175
I15
sg1176
I29
sg1177
I42
sa(dp1210
g1172
g1184
sg1173
I30
sg1174
I3
sg1175
I16
sg1176
I31
sg1177
I39
sa(dp1211
g1172
g1184
sg1173
I31
sg1174
I3
sg1175
I23
sg1176
I33
sg1177
I36
sa(dp1212
g1172
g1184
sg1173
I32
sg1174
I2
sg1175
I21
sg1176
I37
sg1177
I20
sa(dp1213
g1172
g1179
sg1173
I33
sg1174
I4
sg1175
I3
sg1176
I31
sg1177
I50
sa(dp1214
g1172
g1184
sg1173
I34
sg1174
I4
sg1175
I8
sg1176
I25
sg1177
I30
sa(dp1215
g1172
g1184
sg1173
I35
sg1174
I4
sg1175
I10
sg1176
I25
sg1177
I29
sa(dp1216
g1172
g1184
sg1173
I36
sg1174
I4
sg1175
I14
sg1176
I29
sg1177
I25
sa(dp1217
g1172
g1184
sg1173
I37
sg1174
I3
sg1175
I23
sg1176
I29
sg1177
I9
sa(dp1218
g1172
g1179
sg1173
I38
sg1174
I4
sg1175
I2
sg1176
I33
sg1177
I24
sa(dp1219
g1172
g1181
sg1173
I39
sg1174
I2
sg1175
I32
sg1176
I37
sg1177
I13
sa(dp1220
g1172
g1184
sg1173
I40
sg1174
I1
sg1175
I33
sg1176
I41
sg1177
I2
sa(dp1221
g1172
g1179
sg1173
I41
sg1174
I3
sg1175
I18
sg1176
I45
sg1177
I52
sa(dp1222
g1172
g1184
sg1173
I42
sg1174
I2
sg1175
I11
sg1176
I41
sg1177
I17
sa(dp1223
g1172
g1181
sg1173
I43
sg1174
I1
sg1175
I37
sg1176
I47
sg1177
I40
sa(dp1224
g1172
g1184
sg1173
I44
sg1174
I0
sg1175
I11
sg1176
I47
sg1177
I0
satRp1225
(dp1226
g55
I01
sg56
(lp1227
g1173
ag1176
ag1174
ag1177
ag1175
ag1172
asg58
Nsg59
I0
sg60
g61
(g13
tRp1228
sbsS'max_archive_size'
p1229
NsS'solution_found_flag'
p1230
I01
sS'time_taken'
p1231
F1.3939318656921387
sS'benchmark_name'
p1232
S'M_A1'
p1233
sa(dp1234
S'tree_str'
p1235
S'a1(a1(a1(a1(ARG2,a1(ARG2,a1(ARG0,ARG2))),ARG0),a1(a1(a1(a1(ARG0,a1(a1(ARG1,ARG2),ARG1)),ARG1),a1(a1(ARG1,ARG1),ARG0)),a1(a1(a1(ARG0,ARG0),a1(ARG1,ARG1)),a1(ARG1,ARG0)))),a1(a1(ARG2,a1(a1(a1(ARG1,ARG1),ARG0),a1(ARG0,ARG0))),ARG2))'
p1236
sS'tree_len'
p1237
I51
sS'archive_size'
p1238
I134
sS'number_of_operators'
p1239
I25
sS'alg_name'
p1240
S'small-LTI'
p1241
sS'archive_tree_deapth'
p1242
I2
sS'logbook'
p1243
g12
(g13
g14
(lp1244
(dp1245
S'status'
p1246
NsS'iteration'
p1247
I0
sS'count_wrongs'
p1248
I6
sS'picked_node'
p1249
NsS'len_master_tree'
p1250
I1
sS'total_wrongs'
p1251
I6
sa(dp1252
g1246
S'worst'
p1253
sg1247
I1
sg1248
I7
sg1249
I0
sg1250
I5
sg1251
I29
sa(dp1254
g1246
S'better'
p1255
sg1247
I2
sg1248
I4
sg1249
I4
sg1250
I9
sg1251
I22
sa(dp1256
g1246
g1255
sg1247
I3
sg1248
I3
sg1249
I7
sg1250
I13
sg1251
I18
sa(dp1257
g1246
S'perfect'
p1258
sg1247
I4
sg1248
I3
sg1249
I5
sg1250
I17
sg1251
I9
sa(dp1259
g1246
g1253
sg1247
I5
sg1248
I3
sg1249
I1
sg1250
I21
sg1251
I21
sa(dp1260
g1246
g1258
sg1247
I6
sg1248
I2
sg1249
I20
sg1250
I27
sg1251
I10
sa(dp1261
g1246
g1253
sg1247
I7
sg1248
I3
sg1249
I16
sg1250
I17
sg1251
I9
sa(dp1262
g1246
g1253
sg1247
I8
sg1248
I4
sg1249
I16
sg1250
I21
sg1251
I36
sa(dp1263
g1246
g1258
sg1247
I9
sg1248
I4
sg1249
I5
sg1250
I25
sg1251
I30
sa(dp1264
g1246
g1258
sg1247
I10
sg1248
I3
sg1249
I11
sg1250
I29
sg1251
I17
sa(dp1265
g1246
g1255
sg1247
I11
sg1248
I2
sg1249
I18
sg1250
I35
sg1251
I28
sa(dp1266
g1246
g1258
sg1247
I12
sg1248
I1
sg1249
I32
sg1250
I37
sg1251
I3
sa(dp1267
g1246
g1253
sg1247
I13
sg1248
I3
sg1249
I2
sg1250
I37
sg1251
I36
sa(dp1268
g1246
g1258
sg1247
I14
sg1248
I3
sg1249
I9
sg1250
I35
sg1251
I21
sa(dp1269
g1246
g1255
sg1247
I15
sg1248
I2
sg1249
I27
sg1250
I35
sg1251
I23
sa(dp1270
g1246
g1258
sg1247
I16
sg1248
I1
sg1249
I31
sg1250
I37
sg1251
I3
sa(dp1271
g1246
g1253
sg1247
I17
sg1248
I3
sg1249
I31
sg1250
I41
sg1251
I65
sa(dp1272
g1246
g1258
sg1247
I18
sg1248
I3
sg1249
I31
sg1250
I43
sg1251
I60
sa(dp1273
g1246
g1258
sg1247
I19
sg1248
I1
sg1249
I8
sg1250
I47
sg1251
I7
sa(dp1274
g1246
g1258
sg1247
I20
sg1248
I0
sg1249
I34
sg1250
I51
sg1251
I0
satRp1275
(dp1276
g55
I01
sg56
(lp1277
g1247
ag1250
ag1248
ag1251
ag1249
ag1246
asg58
Nsg59
I0
sg60
g61
(g13
tRp1278
sbsS'max_archive_size'
p1279
NsS'solution_found_flag'
p1280
I01
sS'time_taken'
p1281
F0.5583350658416748
sS'benchmark_name'
p1282
S'M_A1'
p1283
sa(dp1284
S'tree_str'
p1285
S'a1(a1(a1(a1(ARG0,a1(ARG0,a1(ARG1,ARG2))),ARG2),a1(a1(a1(ARG1,a1(ARG2,a1(a1(ARG0,ARG1),ARG1))),ARG0),a1(a1(ARG0,a1(ARG1,a1(ARG0,ARG0))),ARG1))),a1(ARG2,a1(ARG0,a1(a1(ARG1,ARG0),a1(ARG0,ARG2)))))'
p1286
sS'tree_len'
p1287
I43
sS'archive_size'
p1288
I134
sS'number_of_operators'
p1289
I21
sS'alg_name'
p1290
S'small-LTI'
p1291
sS'archive_tree_deapth'
p1292
I2
sS'logbook'
p1293
g12
(g13
g14
(lp1294
(dp1295
S'status'
p1296
NsS'iteration'
p1297
I0
sS'count_wrongs'
p1298
I6
sS'picked_node'
p1299
NsS'len_master_tree'
p1300
I1
sS'total_wrongs'
p1301
I6
sa(dp1302
g1296
S'worst'
p1303
sg1297
I1
sg1298
I7
sg1299
I0
sg1300
I5
sg1301
I29
sa(dp1304
g1296
S'better'
p1305
sg1297
I2
sg1298
I4
sg1299
I4
sg1300
I9
sg1301
I22
sa(dp1306
g1296
g1305
sg1297
I3
sg1298
I3
sg1299
I7
sg1300
I13
sg1301
I18
sa(dp1307
g1296
S'perfect'
p1308
sg1297
I4
sg1298
I3
sg1299
I5
sg1300
I17
sg1301
I9
sa(dp1309
g1296
g1303
sg1297
I5
sg1298
I3
sg1299
I1
sg1300
I21
sg1301
I21
sa(dp1310
g1296
g1308
sg1297
I6
sg1298
I2
sg1299
I20
sg1300
I27
sg1301
I10
sa(dp1311
g1296
g1303
sg1297
I7
sg1298
I3
sg1299
I16
sg1300
I17
sg1301
I9
sa(dp1312
g1296
g1303
sg1297
I8
sg1298
I4
sg1299
I16
sg1300
I21
sg1301
I49
sa(dp1313
g1296
g1308
sg1297
I9
sg1298
I4
sg1299
I15
sg1300
I27
sg1301
I47
sa(dp1314
g1296
g1308
sg1297
I10
sg1298
I3
sg1299
I6
sg1300
I27
sg1301
I31
sa(dp1315
g1296
g1308
sg1297
I11
sg1298
I2
sg1299
I9
sg1300
I27
sg1301
I9
sa(dp1316
g1296
g1303
sg1297
I12
sg1298
I3
sg1299
I13
sg1300
I27
sg1301
I17
sa(dp1317
g1296
g1305
sg1297
I13
sg1298
I2
sg1299
I9
sg1300
I27
sg1301
I9
sa(dp1318
g1296
g1303
sg1297
I14
sg1298
I3
sg1299
I26
sg1300
I27
sg1301
I17
sa(dp1319
g1296
g1305
sg1297
I15
sg1298
I2
sg1299
I26
sg1300
I27
sg1301
I9
sa(dp1320
g1296
g1303
sg1297
I16
sg1298
I3
sg1299
I22
sg1300
I27
sg1301
I17
sa(dp1321
g1296
g1305
sg1297
I17
sg1298
I2
sg1299
I24
sg1300
I27
sg1301
I9
sa(dp1322
g1296
g1303
sg1297
I18
sg1298
I3
sg1299
I24
sg1300
I27
sg1301
I17
sa(dp1323
g1296
g1305
sg1297
I19
sg1298
I2
sg1299
I22
sg1300
I27
sg1301
I9
sa(dp1324
g1296
g1303
sg1297
I20
sg1298
I2
sg1299
I22
sg1300
I27
sg1301
I14
sa(dp1325
g1296
g1308
sg1297
I21
sg1298
I1
sg1299
I26
sg1300
I33
sg1301
I3
sa(dp1326
g1296
g1303
sg1297
I22
sg1298
I4
sg1299
I2
sg1300
I37
sg1301
I66
sa(dp1327
g1296
g1308
sg1297
I23
sg1298
I4
sg1299
I28
sg1300
I37
sg1301
I63
sa(dp1328
g1296
g1308
sg1297
I24
sg1298
I2
sg1299
I6
sg1300
I37
sg1301
I24
sa(dp1329
g1296
g1308
sg1297
I25
sg1298
I2
sg1299
I18
sg1300
I41
sg1301
I23
sa(dp1330
g1296
g1308
sg1297
I26
sg1298
I1
sg1299
I33
sg1300
I45
sg1301
I22
sa(dp1331
g1296
g1308
sg1297
I27
sg1298
I0
sg1299
I11
sg1300
I43
sg1301
I0
satRp1332
(dp1333
g55
I01
sg56
(lp1334
g1297
ag1300
ag1298
ag1301
ag1299
ag1296
asg58
Nsg59
I0
sg60
g61
(g13
tRp1335
sbsS'max_archive_size'
p1336
NsS'solution_found_flag'
p1337
I01
sS'time_taken'
p1338
F0.4505460262298584
sS'benchmark_name'
p1339
S'M_A1'
p1340
sa(dp1341
S'tree_str'
p1342
S'a1(a1(a1(a1(ARG2,a1(ARG2,a1(ARG0,ARG2))),ARG0),a1(a1(a1(a1(ARG0,ARG2),ARG1),a1(a1(ARG1,a1(a1(ARG2,ARG0),ARG0)),ARG0)),ARG1)),a1(ARG0,a1(ARG2,a1(a1(ARG1,ARG2),a1(ARG2,ARG0)))))'
p1343
sS'tree_len'
p1344
I39
sS'archive_size'
p1345
I134
sS'number_of_operators'
p1346
I19
sS'alg_name'
p1347
S'small-LTI'
p1348
sS'archive_tree_deapth'
p1349
I2
sS'logbook'
p1350
g12
(g13
g14
(lp1351
(dp1352
S'status'
p1353
NsS'iteration'
p1354
I0
sS'count_wrongs'
p1355
I6
sS'picked_node'
p1356
NsS'len_master_tree'
p1357
I1
sS'total_wrongs'
p1358
I6
sa(dp1359
g1353
S'worst'
p1360
sg1354
I1
sg1355
I7
sg1356
I0
sg1357
I5
sg1358
I28
sa(dp1361
g1353
S'better'
p1362
sg1354
I2
sg1355
I6
sg1356
I4
sg1357
I9
sg1358
I23
sa(dp1363
g1353
g1362
sg1354
I3
sg1355
I5
sg1356
I3
sg1357
I13
sg1358
I31
sa(dp1364
g1353
g1360
sg1354
I4
sg1355
I6
sg1356
I9
sg1357
I15
sg1358
I42
sa(dp1365
g1353
S'perfect'
p1366
sg1354
I5
sg1355
I4
sg1356
I13
sg1357
I19
sg1358
I18
sa(dp1367
g1353
g1360
sg1354
I6
sg1355
I5
sg1356
I8
sg1357
I13
sg1358
I31
sa(dp1368
g1353
g1360
sg1354
I7
sg1355
I6
sg1356
I9
sg1357
I15
sg1358
I45
sa(dp1369
g1353
g1366
sg1354
I8
sg1355
I4
sg1356
I13
sg1357
I19
sg1358
I18
sa(dp1370
g1353
g1360
sg1354
I9
sg1355
I5
sg1356
I8
sg1357
I15
sg1358
I28
sa(dp1371
g1353
g1366
sg1354
I10
sg1355
I5
sg1356
I11
sg1357
I15
sg1358
I25
sa(dp1372
g1353
g1362
sg1354
I11
sg1355
I4
sg1356
I12
sg1357
I19
sg1358
I21
sa(dp1373
g1353
g1366
sg1354
I12
sg1355
I4
sg1356
I18
sg1357
I25
sg1358
I20
sa(dp1374
g1353
g1360
sg1354
I13
sg1355
I5
sg1356
I8
sg1357
I15
sg1358
I27
sa(dp1375
g1353
g1366
sg1354
I14
sg1355
I4
sg1356
I10
sg1357
I19
sg1358
I18
sa(dp1376
g1353
g1360
sg1354
I15
sg1355
I5
sg1356
I8
sg1357
I15
sg1358
I27
sa(dp1377
g1353
g1366
sg1354
I16
sg1355
I4
sg1356
I10
sg1357
I19
sg1358
I18
sa(dp1378
g1353
g1360
sg1354
I17
sg1355
I5
sg1356
I8
sg1357
I15
sg1358
I28
sa(dp1379
g1353
g1366
sg1354
I18
sg1355
I5
sg1356
I10
sg1357
I15
sg1358
I25
sa(dp1380
g1353
g1360
sg1354
I19
sg1355
I6
sg1356
I5
sg1357
I15
sg1358
I36
sa(dp1381
g1353
g1362
sg1354
I20
sg1355
I5
sg1356
I5
sg1357
I13
sg1358
I21
sa(dp1382
g1353
g1360
sg1354
I21
sg1355
I4
sg1356
I8
sg1357
I13
sg1358
I30
sa(dp1383
g1353
g1366
sg1354
I22
sg1355
I4
sg1356
I12
sg1357
I17
sg1358
I8
sa(dp1384
g1353
g1360
sg1354
I23
sg1355
I6
sg1356
I0
sg1357
I1
sg1358
I6
sa(dp1385
g1353
g1360
sg1354
I24
sg1355
I7
sg1356
I0
sg1357
I5
sg1358
I29
sa(dp1386
g1353
g1362
sg1354
I25
sg1355
I4
sg1356
I4
sg1357
I9
sg1358
I22
sa(dp1387
g1353
g1362
sg1354
I26
sg1355
I3
sg1356
I7
sg1357
I13
sg1358
I18
sa(dp1388
g1353
g1366
sg1354
I27
sg1355
I3
sg1356
I5
sg1357
I17
sg1358
I9
sa(dp1389
g1353
g1360
sg1354
I28
sg1355
I4
sg1356
I1
sg1357
I21
sg1358
I49
sa(dp1390
g1353
g1366
sg1354
I29
sg1355
I3
sg1356
I5
sg1357
I27
sg1358
I28
sa(dp1391
g1353
g1366
sg1354
I30
sg1355
I3
sg1356
I13
sg1357
I31
sg1358
I31
sa(dp1392
g1353
g1366
sg1354
I31
sg1355
I3
sg1356
I23
sg1357
I31
sg1358
I28
sa(dp1393
g1353
g1366
sg1354
I32
sg1355
I2
sg1356
I22
sg1357
I31
sg1358
I9
sa(dp1394
g1353
g1360
sg1354
I33
sg1355
I3
sg1356
I16
sg1357
I31
sg1358
I39
sa(dp1395
g1353
g1366
sg1354
I34
sg1355
I3
sg1356
I12
sg1357
I29
sg1358
I17
sa(dp1396
g1353
g1362
sg1354
I35
sg1355
I3
sg1356
I21
sg1357
I29
sg1358
I31
sa(dp1397
g1353
g1366
sg1354
I36
sg1355
I2
sg1356
I21
sg1357
I29
sg1358
I9
sa(dp1398
g1353
g1360
sg1354
I37
sg1355
I3
sg1356
I23
sg1357
I29
sg1358
I37
sa(dp1399
g1353
g1366
sg1354
I38
sg1355
I3
sg1356
I14
sg1357
I29
sg1358
I17
sa(dp1400
g1353
g1362
sg1354
I39
sg1355
I2
sg1356
I12
sg1357
I29
sg1358
I9
sa(dp1401
g1353
g1360
sg1354
I40
sg1355
I2
sg1356
I26
sg1357
I29
sg1358
I14
sa(dp1402
g1353
g1366
sg1354
I41
sg1355
I1
sg1356
I28
sg1357
I35
sg1358
I3
sa(dp1403
g1353
g1360
sg1354
I42
sg1355
I4
sg1356
I2
sg1357
I39
sg1358
I79
sa(dp1404
g1353
g1366
sg1354
I43
sg1355
I3
sg1356
I9
sg1357
I33
sg1358
I55
sa(dp1405
g1353
g1366
sg1354
I44
sg1355
I2
sg1356
I9
sg1357
I31
sg1358
I24
sa(dp1406
g1353
g1366
sg1354
I45
sg1355
I2
sg1356
I15
sg1357
I31
sg1358
I25
sa(dp1407
g1353
g1366
sg1354
I46
sg1355
I1
sg1356
I29
sg1357
I35
sg1358
I7
sa(dp1408
g1353
g1366
sg1354
I47
sg1355
I0
sg1356
I23
sg1357
I39
sg1358
I0
satRp1409
(dp1410
g55
I01
sg56
(lp1411
g1354
ag1357
ag1355
ag1358
ag1356
ag1353
asg58
Nsg59
I0
sg60
g61
(g13
tRp1412
sbsS'max_archive_size'
p1413
NsS'solution_found_flag'
p1414
I01
sS'time_taken'
p1415
F1.4206979274749756
sS'benchmark_name'
p1416
S'M_A1'
p1417
sa(dp1418
S'tree_str'
p1419
S'a1(a1(a1(a1(ARG0,a1(ARG0,a1(ARG1,ARG2))),ARG2),a1(a1(a1(a1(ARG2,ARG2),ARG0),a1(ARG1,ARG1)),a1(a1(ARG2,ARG1),a1(ARG1,ARG1)))),a1(a1(ARG1,a1(a1(ARG1,a1(ARG1,ARG1)),a1(a1(ARG2,ARG0),ARG2))),ARG2))'
p1420
sS'tree_len'
p1421
I43
sS'archive_size'
p1422
I134
sS'number_of_operators'
p1423
I21
sS'alg_name'
p1424
S'small-LTI'
p1425
sS'archive_tree_deapth'
p1426
I2
sS'logbook'
p1427
g12
(g13
g14
(lp1428
(dp1429
S'status'
p1430
NsS'iteration'
p1431
I0
sS'count_wrongs'
p1432
I6
sS'picked_node'
p1433
NsS'len_master_tree'
p1434
I1
sS'total_wrongs'
p1435
I6
sa(dp1436
g1430
S'worst'
p1437
sg1431
I1
sg1432
I7
sg1433
I0
sg1434
I5
sg1435
I29
sa(dp1438
g1430
S'better'
p1439
sg1431
I2
sg1432
I4
sg1433
I4
sg1434
I9
sg1435
I22
sa(dp1440
g1430
g1439
sg1431
I3
sg1432
I3
sg1433
I7
sg1434
I13
sg1435
I18
sa(dp1441
g1430
S'perfect'
p1442
sg1431
I4
sg1432
I3
sg1433
I5
sg1434
I17
sg1435
I9
sa(dp1443
g1430
g1437
sg1431
I5
sg1432
I4
sg1433
I1
sg1434
I21
sg1435
I36
sa(dp1444
g1430
g1442
sg1431
I6
sg1432
I4
sg1433
I15
sg1434
I25
sg1435
I31
sa(dp1445
g1430
g1442
sg1431
I7
sg1432
I3
sg1433
I5
sg1434
I29
sg1435
I16
sa(dp1446
g1430
g1437
sg1431
I8
sg1432
I4
sg1433
I18
sg1434
I29
sg1435
I43
sa(dp1447
g1430
g1442
sg1431
I9
sg1432
I4
sg1433
I10
sg1434
I25
sg1435
I34
sa(dp1448
g1430
g1442
sg1431
I10
sg1432
I3
sg1433
I4
sg1434
I17
sg1435
I16
sa(dp1449
g1430
g1437
sg1431
I11
sg1432
I4
sg1433
I8
sg1434
I21
sg1435
I41
sa(dp1450
g1430
g1442
sg1431
I12
sg1432
I4
sg1433
I9
sg1434
I25
sg1435
I36
sa(dp1451
g1430
g1439
sg1431
I13
sg1432
I3
sg1433
I15
sg1434
I21
sg1435
I16
sa(dp1452
g1430
g1437
sg1431
I14
sg1432
I4
sg1433
I20
sg1434
I25
sg1435
I34
sa(dp1453
g1430
g1442
sg1431
I15
sg1432
I2
sg1433
I24
sg1434
I29
sg1435
I14
sa(dp1454
g1430
g1437
sg1431
I16
sg1432
I2
sg1433
I3
sg1434
I21
sg1435
I24
sa(dp1455
g1430
g1442
sg1431
I17
sg1432
I1
sg1433
I10
sg1434
I27
sg1435
I8
sa(dp1456
g1430
g1437
sg1431
I18
sg1432
I2
sg1433
I15
sg1434
I27
sg1435
I34
sa(dp1457
g1430
g1442
sg1431
I19
sg1432
I2
sg1433
I16
sg1434
I29
sg1435
I20
sa(dp1458
g1430
g1442
sg1431
I20
sg1432
I2
sg1433
I20
sg1434
I33
sg1435
I10
sa(dp1459
g1430
g1437
sg1431
I21
sg1432
I3
sg1433
I3
sg1434
I17
sg1435
I26
sa(dp1460
g1430
g1442
sg1431
I22
sg1432
I3
sg1433
I10
sg1434
I21
sg1435
I21
sa(dp1461
g1430
g1437
sg1431
I23
sg1432
I3
sg1433
I3
sg1434
I13
sg1435
I26
sa(dp1462
g1430
g1439
sg1431
I24
sg1432
I2
sg1433
I8
sg1434
I13
sg1435
I19
sa(dp1463
g1430
g1437
sg1431
I25
sg1432
I3
sg1433
I10
sg1434
I13
sg1435
I26
sa(dp1464
g1430
g1439
sg1431
I26
sg1432
I2
sg1433
I10
sg1434
I13
sg1435
I19
sa(dp1465
g1430
g1437
sg1431
I27
sg1432
I3
sg1433
I8
sg1434
I13
sg1435
I26
sa(dp1466
g1430
g1437
sg1431
I28
sg1432
I3
sg1433
I9
sg1434
I17
sg1435
I40
sa(dp1467
g1430
g1442
sg1431
I29
sg1432
I3
sg1433
I16
sg1434
I19
sg1435
I31
sa(dp1468
g1430
g1442
sg1431
I30
sg1432
I3
sg1433
I13
sg1434
I21
sg1435
I21
sa(dp1469
g1430
g1437
sg1431
I31
sg1432
I4
sg1433
I10
sg1434
I25
sg1435
I51
sa(dp1470
g1430
g1442
sg1431
I32
sg1432
I3
sg1433
I19
sg1434
I25
sg1435
I29
sa(dp1471
g1430
g1442
sg1431
I33
sg1432
I2
sg1433
I20
sg1434
I29
sg1435
I14
sa(dp1472
g1430
g1437
sg1431
I34
sg1432
I4
sg1433
I3
sg1434
I29
sg1435
I45
sa(dp1473
g1430
g1442
sg1431
I35
sg1432
I3
sg1433
I14
sg1434
I25
sg1435
I17
sa(dp1474
g1430
g1439
sg1431
I36
sg1432
I2
sg1433
I19
sg1434
I31
sg1435
I14
sa(dp1475
g1430
g1442
sg1431
I37
sg1432
I2
sg1433
I25
sg1434
I33
sg1435
I12
sa(dp1476
g1430
g1437
sg1431
I38
sg1432
I2
sg1433
I17
sg1434
I25
sg1435
I14
sa(dp1477
g1430
g1439
sg1431
I39
sg1432
I2
sg1433
I24
sg1434
I31
sg1435
I14
sa(dp1478
g1430
g1442
sg1431
I40
sg1432
I2
sg1433
I25
sg1434
I33
sg1435
I12
sa(dp1479
g1430
g1442
sg1431
I41
sg1432
I1
sg1433
I26
sg1434
I37
sg1435
I3
sa(dp1480
g1430
g1437
sg1431
I42
sg1432
I4
sg1433
I1
sg1434
I21
sg1435
I36
sa(dp1481
g1430
g1442
sg1431
I43
sg1432
I4
sg1433
I8
sg1434
I21
sg1435
I31
sa(dp1482
g1430
g1442
sg1431
I44
sg1432
I4
sg1433
I9
sg1434
I25
sg1435
I20
sa(dp1483
g1430
g1439
sg1431
I45
sg1432
I2
sg1433
I14
sg1434
I29
sg1435
I25
sa(dp1484
g1430
g1442
sg1431
I46
sg1432
I1
sg1433
I18
sg1434
I33
sg1435
I8
sa(dp1485
g1430
g1437
sg1431
I47
sg1432
I2
sg1433
I23
sg1434
I33
sg1435
I15
sa(dp1486
g1430
g1439
sg1431
I48
sg1432
I1
sg1433
I28
sg1434
I33
sg1435
I8
sa(dp1487
g1430
g1437
sg1431
I49
sg1432
I2
sg1433
I30
sg1434
I33
sg1435
I15
sa(dp1488
g1430
g1439
sg1431
I50
sg1432
I1
sg1433
I30
sg1434
I33
sg1435
I8
sa(dp1489
g1430
g1437
sg1431
I51
sg1432
I2
sg1433
I28
sg1434
I33
sg1435
I15
sa(dp1490
g1430
g1437
sg1431
I52
sg1432
I3
sg1433
I29
sg1434
I37
sg1435
I30
sa(dp1491
g1430
g1442
sg1431
I53
sg1432
I3
sg1433
I36
sg1434
I39
sg1435
I21
sa(dp1492
g1430
g1442
sg1431
I54
sg1432
I2
sg1433
I33
sg1434
I41
sg1435
I10
sa(dp1493
g1430
g1437
sg1431
I55
sg1432
I2
sg1433
I29
sg1434
I45
sg1435
I46
sa(dp1494
g1430
g1442
sg1431
I56
sg1432
I1
sg1433
I6
sg1434
I39
sg1435
I19
sa(dp1495
g1430
g1442
sg1431
I57
sg1432
I1
sg1433
I32
sg1434
I41
sg1435
I3
sa(dp1496
g1430
g1437
sg1431
I58
sg1432
I4
sg1433
I7
sg1434
I45
sg1435
I86
sa(dp1497
g1430
g1442
sg1431
I59
sg1432
I3
sg1433
I11
sg1434
I41
sg1435
I46
sa(dp1498
g1430
g1442
sg1431
I60
sg1432
I3
sg1433
I13
sg1434
I39
sg1435
I35
sa(dp1499
g1430
g1442
sg1431
I61
sg1432
I1
sg1433
I34
sg1434
I43
sg1435
I32
sa(dp1500
g1430
g1442
sg1431
I62
sg1432
I1
sg1433
I13
sg1434
I41
sg1435
I31
sa(dp1501
g1430
g1442
sg1431
I63
sg1432
I1
sg1433
I23
sg1434
I41
sg1435
I30
sa(dp1502
g1430
g1442
sg1431
I64
sg1432
I0
sg1433
I12
sg1434
I43
sg1435
I0
satRp1503
(dp1504
g55
I01
sg56
(lp1505
g1431
ag1434
ag1432
ag1435
ag1433
ag1430
asg58
Nsg59
I0
sg60
g61
(g13
tRp1506
sbsS'max_archive_size'
p1507
NsS'solution_found_flag'
p1508
I01
sS'time_taken'
p1509
F1.2946360111236572
sS'benchmark_name'
p1510
S'M_A1'
p1511
sa.