(lp1
(dp2
S'tree_str'
p3
S'a2(a2(a2(ARG1,ARG0),a2(ARG1,ARG2)),a2(a2(a2(ARG0,a2(ARG2,ARG0)),a2(a2(ARG1,a2(ARG1,a2(ARG2,ARG1))),a2(ARG1,ARG1))),a2(a2(ARG0,a2(ARG1,ARG0)),a2(a2(ARG0,ARG0),ARG2))))'
p4
sS'tree_len'
p5
I37
sS'archive_size'
p6
I144
sS'number_of_operators'
p7
I18
sS'alg_name'
p8
S'small-LTI'
p9
sS'archive_tree_deapth'
p10
I2
sS'logbook'
p11
ccopy_reg
_reconstructor
p12
(ctreeimprove.utilities
Logbook
p13
c__builtin__
list
p14
(lp15
(dp16
S'status'
p17
NsS'iteration'
p18
I0
sS'count_wrongs'
p19
I6
sS'picked_node'
p20
NsS'len_master_tree'
p21
I1
sS'total_wrongs'
p22
I6
sa(dp23
g17
S'worst'
p24
sg18
I1
sg19
I7
sg20
I0
sg21
I5
sg22
I25
sa(dp25
g17
S'better'
p26
sg18
I2
sg19
I4
sg20
I1
sg21
I9
sg22
I24
sa(dp27
g17
g26
sg18
I3
sg19
I5
sg20
I2
sg21
I13
sg22
I39
sa(dp28
g17
g26
sg18
I4
sg19
I4
sg20
I4
sg21
I15
sg22
I43
sa(dp29
g17
g26
sg18
I5
sg19
I3
sg20
I10
sg21
I17
sg22
I17
sa(dp30
g17
S'perfect'
p31
sg18
I6
sg19
I2
sg20
I16
sg21
I23
sg22
I9
sa(dp32
g17
g24
sg18
I7
sg19
I3
sg20
I9
sg21
I17
sg22
I17
sa(dp33
g17
g24
sg18
I8
sg19
I4
sg20
I14
sg21
I17
sg22
I31
sa(dp34
g17
g31
sg18
I9
sg19
I2
sg20
I16
sg21
I23
sg22
I9
sa(dp35
g17
g24
sg18
I10
sg19
I3
sg20
I12
sg21
I17
sg22
I17
sa(dp36
g17
g24
sg18
I11
sg19
I4
sg20
I14
sg21
I17
sg22
I34
sa(dp37
g17
g31
sg18
I12
sg19
I3
sg20
I15
sg21
I17
sg22
I17
sa(dp38
g17
g31
sg18
I13
sg19
I2
sg20
I15
sg21
I23
sg22
I9
sa(dp39
g17
g24
sg18
I14
sg19
I3
sg20
I12
sg21
I19
sg22
I25
sa(dp40
g17
g26
sg18
I15
sg19
I2
sg20
I8
sg21
I23
sg22
I23
sa(dp41
g17
g31
sg18
I16
sg19
I1
sg20
I17
sg21
I27
sg22
I3
sa(dp42
g17
g24
sg18
I17
sg19
I2
sg20
I2
sg21
I31
sg22
I17
sa(dp43
g17
g26
sg18
I18
sg19
I1
sg20
I26
sg21
I27
sg22
I3
sa(dp44
g17
g24
sg18
I19
sg19
I2
sg20
I26
sg21
I31
sg22
I17
sa(dp45
g17
g26
sg18
I20
sg19
I1
sg20
I26
sg21
I31
sg22
I7
sa(dp46
g17
g24
sg18
I21
sg19
I2
sg20
I29
sg21
I33
sg22
I30
sa(dp47
g17
g31
sg18
I22
sg19
I0
sg20
I27
sg21
I37
sg22
I0
satRp48
(dp49
S'log_header'
p50
I01
sS'header'
p51
(lp52
g18
ag21
ag19
ag22
ag20
ag17
asS'columns_len'
p53
NsS'buffindex'
p54
I0
sS'chapters'
p55
ccollections
defaultdict
p56
(g13
tRp57
sbsS'max_archive_size'
p58
NsS'solution_found_flag'
p59
I01
sS'time_taken'
p60
F0.64211201667785645
sS'benchmark_name'
p61
S'M_A2'
p62
sa(dp63
S'tree_str'
p64
S'a2(a2(a2(ARG2,ARG2),a2(ARG1,a2(ARG1,a2(a2(a2(ARG0,ARG1),a2(ARG0,ARG0)),ARG0)))),a2(a2(a2(a2(a2(ARG1,a2(ARG1,ARG0)),a2(ARG2,ARG1)),a2(a2(ARG1,a2(ARG0,ARG1)),a2(ARG2,ARG1))),ARG2),a2(a2(a2(ARG1,a2(ARG2,ARG0)),a2(ARG1,ARG2)),a2(ARG2,ARG0))))'
p65
sS'tree_len'
p66
I53
sS'archive_size'
p67
I144
sS'number_of_operators'
p68
I26
sS'alg_name'
p69
S'small-LTI'
p70
sS'archive_tree_deapth'
p71
I2
sS'logbook'
p72
g12
(g13
g14
(lp73
(dp74
S'status'
p75
NsS'iteration'
p76
I0
sS'count_wrongs'
p77
I6
sS'picked_node'
p78
NsS'len_master_tree'
p79
I1
sS'total_wrongs'
p80
I6
sa(dp81
g75
S'worst'
p82
sg76
I1
sg77
I7
sg78
I0
sg79
I5
sg80
I25
sa(dp83
g75
S'better'
p84
sg76
I2
sg77
I4
sg78
I1
sg79
I9
sg80
I24
sa(dp85
g75
g84
sg76
I3
sg77
I4
sg78
I2
sg79
I13
sg80
I31
sa(dp86
g75
S'perfect'
p87
sg76
I4
sg77
I3
sg78
I11
sg79
I17
sg80
I24
sa(dp88
g75
g84
sg76
I5
sg77
I4
sg78
I11
sg79
I21
sg80
I28
sa(dp89
g75
g87
sg76
I6
sg77
I3
sg78
I12
sg79
I25
sg80
I14
sa(dp90
g75
g82
sg76
I7
sg77
I3
sg78
I7
sg79
I29
sg80
I20
sa(dp91
g75
g87
sg76
I8
sg77
I2
sg78
I27
sg79
I33
sg80
I8
sa(dp92
g75
g82
sg76
I9
sg77
I3
sg78
I5
sg79
I25
sg80
I14
sa(dp93
g75
g82
sg76
I10
sg77
I3
sg78
I24
sg79
I29
sg80
I20
sa(dp94
g75
g84
sg76
I11
sg77
I3
sg78
I24
sg79
I25
sg80
I14
sa(dp95
g75
g82
sg76
I12
sg77
I3
sg78
I24
sg79
I31
sg80
I26
sa(dp96
g75
g87
sg76
I13
sg77
I3
sg78
I28
sg79
I29
sg80
I20
sa(dp97
g75
g87
sg76
I14
sg77
I2
sg78
I26
sg79
I33
sg80
I8
sa(dp98
g75
g82
sg76
I15
sg77
I3
sg78
I3
sg79
I25
sg80
I14
sa(dp99
g75
g82
sg76
I16
sg77
I5
sg78
I24
sg79
I25
sg80
I43
sa(dp100
g75
g87
sg76
I17
sg77
I5
sg78
I16
sg79
I25
sg80
I26
sa(dp101
g75
g84
sg76
I18
sg77
I3
sg78
I23
sg79
I25
sg80
I14
sa(dp102
g75
g82
sg76
I19
sg77
I3
sg78
I2
sg79
I29
sg80
I31
sa(dp103
g75
g87
sg76
I20
sg77
I3
sg78
I10
sg79
I33
sg80
I20
sa(dp104
g75
g87
sg76
I21
sg77
I2
sg78
I24
sg79
I39
sg80
I11
sa(dp105
g75
g82
sg76
I22
sg77
I2
sg78
I22
sg79
I43
sg80
I29
sa(dp106
g75
g87
sg76
I23
sg77
I1
sg78
I35
sg79
I45
sg80
I8
sa(dp107
g75
g87
sg76
I24
sg77
I1
sg78
I38
sg79
I49
sg80
I5
sa(dp108
g75
g82
sg76
I25
sg77
I2
sg78
I18
sg79
I51
sg80
I74
sa(dp109
g75
g87
sg76
I26
sg77
I0
sg78
I43
sg79
I53
sg80
I0
satRp110
(dp111
g50
I01
sg51
(lp112
g76
ag79
ag77
ag80
ag78
ag75
asg53
Nsg54
I0
sg55
g56
(g13
tRp113
sbsS'max_archive_size'
p114
NsS'solution_found_flag'
p115
I01
sS'time_taken'
p116
F0.80663514137268066
sS'benchmark_name'
p117
S'M_A2'
p118
sa(dp119
S'tree_str'
p120
S'a2(a2(a2(ARG0,ARG0),a2(ARG0,a2(ARG1,a2(a2(ARG0,a2(ARG0,ARG1)),ARG2)))),a2(a2(ARG2,a2(ARG2,ARG1)),a2(a2(a2(a2(ARG2,ARG2),a2(ARG0,ARG1)),a2(a2(ARG0,a2(ARG0,ARG1)),a2(ARG1,ARG0))),ARG1)))'
p121
sS'tree_len'
p122
I41
sS'archive_size'
p123
I144
sS'number_of_operators'
p124
I20
sS'alg_name'
p125
S'small-LTI'
p126
sS'archive_tree_deapth'
p127
I2
sS'logbook'
p128
g12
(g13
g14
(lp129
(dp130
S'status'
p131
NsS'iteration'
p132
I0
sS'count_wrongs'
p133
I6
sS'picked_node'
p134
NsS'len_master_tree'
p135
I1
sS'total_wrongs'
p136
I6
sa(dp137
g131
S'worst'
p138
sg132
I1
sg133
I7
sg134
I0
sg135
I5
sg136
I30
sa(dp139
g131
S'better'
p140
sg132
I2
sg133
I6
sg134
I2
sg135
I9
sg136
I25
sa(dp141
g131
g140
sg132
I3
sg133
I6
sg134
I8
sg135
I13
sg136
I26
sa(dp142
g131
S'perfect'
p143
sg132
I4
sg133
I6
sg134
I11
sg135
I17
sg136
I25
sa(dp144
g131
g140
sg132
I5
sg133
I6
sg134
I5
sg135
I17
sg136
I25
sa(dp145
g131
g140
sg132
I6
sg133
I4
sg134
I3
sg135
I21
sg136
I25
sa(dp146
g131
g143
sg132
I7
sg133
I4
sg134
I9
sg135
I17
sg136
I21
sa(dp147
g131
g143
sg132
I8
sg133
I4
sg134
I8
sg135
I21
sg136
I19
sa(dp148
g131
g138
sg132
I9
sg133
I6
sg134
I2
sg135
I9
sg136
I25
sa(dp149
g131
g140
sg132
I10
sg133
I5
sg134
I5
sg135
I13
sg136
I20
sa(dp150
g131
g143
sg132
I11
sg133
I5
sg134
I11
sg135
I17
sg136
I16
sa(dp151
g131
g140
sg132
I12
sg133
I4
sg134
I1
sg135
I23
sg136
I25
sa(dp152
g131
g140
sg132
I13
sg133
I3
sg134
I18
sg135
I29
sg136
I22
sa(dp153
g131
g143
sg132
I14
sg133
I3
sg134
I24
sg135
I31
sg136
I20
sa(dp154
g131
g143
sg132
I15
sg133
I2
sg134
I27
sg135
I37
sg136
I12
sa(dp155
g131
g138
sg132
I16
sg133
I3
sg134
I17
sg135
I25
sg136
I21
sa(dp156
g131
g143
sg132
I17
sg133
I3
sg134
I23
sg135
I29
sg136
I18
sa(dp157
g131
g138
sg132
I18
sg133
I4
sg134
I22
sg135
I23
sg136
I25
sa(dp158
g131
g140
sg132
I19
sg133
I3
sg134
I22
sg135
I29
sg136
I22
sa(dp159
g131
g143
sg132
I20
sg133
I3
sg134
I23
sg135
I31
sg136
I20
sa(dp160
g131
g143
sg132
I21
sg133
I2
sg134
I25
sg135
I37
sg136
I12
sa(dp161
g131
g138
sg132
I22
sg133
I3
sg134
I20
sg135
I25
sg136
I21
sa(dp162
g131
g143
sg132
I23
sg133
I3
sg134
I23
sg135
I31
sg136
I18
sa(dp163
g131
g143
sg132
I24
sg133
I1
sg134
I17
sg135
I33
sg136
I6
sa(dp164
g131
g138
sg132
I25
sg133
I2
sg134
I20
sg135
I37
sg136
I35
sa(dp165
g131
g143
sg132
I26
sg133
I1
sg134
I34
sg135
I41
sg136
I18
sa(dp166
g131
g138
sg132
I27
sg133
I2
sg134
I32
sg135
I37
sg136
I35
sa(dp167
g131
g143
sg132
I28
sg133
I1
sg134
I34
sg135
I41
sg136
I18
sa(dp168
g131
g138
sg132
I29
sg133
I2
sg134
I32
sg135
I37
sg136
I25
sa(dp169
g131
g143
sg132
I30
sg133
I1
sg134
I35
sg135
I37
sg136
I9
sa(dp170
g131
g143
sg132
I31
sg133
I0
sg134
I33
sg135
I41
sg136
I0
satRp171
(dp172
g50
I01
sg51
(lp173
g132
ag135
ag133
ag136
ag134
ag131
asg53
Nsg54
I0
sg55
g56
(g13
tRp174
sbsS'max_archive_size'
p175
NsS'solution_found_flag'
p176
I01
sS'time_taken'
p177
F0.88028502464294434
sS'benchmark_name'
p178
S'M_A2'
p179
sa(dp180
S'tree_str'
p181
S'a2(a2(a2(ARG0,a2(ARG2,a2(ARG2,a2(a2(ARG0,a2(ARG2,ARG2)),ARG1)))),a2(ARG0,a2(a2(ARG0,ARG2),a2(ARG2,ARG1)))),a2(a2(ARG0,a2(ARG0,ARG0)),a2(a2(a2(ARG1,a2(a2(ARG0,ARG1),ARG0)),a2(a2(ARG2,ARG2),a2(ARG2,ARG0))),ARG1)))'
p182
sS'tree_len'
p183
I47
sS'archive_size'
p184
I144
sS'number_of_operators'
p185
I23
sS'alg_name'
p186
S'small-LTI'
p187
sS'archive_tree_deapth'
p188
I2
sS'logbook'
p189
g12
(g13
g14
(lp190
(dp191
S'status'
p192
NsS'iteration'
p193
I0
sS'count_wrongs'
p194
I6
sS'picked_node'
p195
NsS'len_master_tree'
p196
I1
sS'total_wrongs'
p197
I6
sa(dp198
g192
S'worst'
p199
sg193
I1
sg194
I7
sg195
I0
sg196
I5
sg197
I30
sa(dp200
g192
S'better'
p201
sg193
I2
sg194
I6
sg195
I2
sg196
I9
sg197
I25
sa(dp202
g192
g201
sg193
I3
sg194
I6
sg195
I8
sg196
I13
sg197
I26
sa(dp203
g192
S'perfect'
p204
sg193
I4
sg194
I6
sg195
I11
sg196
I17
sg197
I25
sa(dp205
g192
g201
sg193
I5
sg194
I6
sg195
I5
sg196
I17
sg197
I25
sa(dp206
g192
g201
sg193
I6
sg194
I4
sg195
I3
sg196
I21
sg197
I25
sa(dp207
g192
g204
sg193
I7
sg194
I4
sg195
I9
sg196
I17
sg197
I21
sa(dp208
g192
g204
sg193
I8
sg194
I4
sg195
I8
sg196
I21
sg197
I19
sa(dp209
g192
g199
sg193
I9
sg194
I6
sg195
I2
sg196
I9
sg197
I25
sa(dp210
g192
g201
sg193
I10
sg194
I6
sg195
I8
sg196
I13
sg197
I26
sa(dp211
g192
g204
sg193
I11
sg194
I6
sg195
I11
sg196
I17
sg197
I25
sa(dp212
g192
g201
sg193
I12
sg194
I5
sg195
I5
sg196
I21
sg197
I15
sa(dp213
g192
g204
sg193
I13
sg194
I5
sg195
I17
sg196
I25
sg197
I13
sa(dp214
g192
g201
sg193
I14
sg194
I4
sg195
I1
sg196
I31
sg197
I42
sa(dp215
g192
g204
sg193
I15
sg194
I4
sg195
I10
sg196
I27
sg197
I37
sa(dp216
g192
g204
sg193
I16
sg194
I4
sg195
I10
sg196
I25
sg197
I34
sa(dp217
g192
g204
sg193
I17
sg194
I3
sg195
I9
sg196
I29
sg197
I21
sa(dp218
g192
g201
sg193
I18
sg194
I3
sg195
I11
sg196
I35
sg197
I22
sa(dp219
g192
g204
sg193
I19
sg194
I3
sg195
I29
sg196
I37
sg197
I20
sa(dp220
g192
g204
sg193
I20
sg194
I2
sg195
I31
sg196
I43
sg197
I12
sa(dp221
g192
g199
sg193
I21
sg194
I3
sg195
I10
sg196
I29
sg197
I21
sa(dp222
g192
g201
sg193
I22
sg194
I3
sg195
I27
sg196
I35
sg197
I22
sa(dp223
g192
g204
sg193
I23
sg194
I3
sg195
I30
sg196
I37
sg197
I20
sa(dp224
g192
g204
sg193
I24
sg194
I2
sg195
I33
sg196
I43
sg197
I12
sa(dp225
g192
g199
sg193
I25
sg194
I3
sg195
I26
sg196
I29
sg197
I21
sa(dp226
g192
g201
sg193
I26
sg194
I3
sg195
I10
sg196
I31
sg197
I22
sa(dp227
g192
g204
sg193
I27
sg194
I2
sg195
I27
sg196
I35
sg197
I14
sa(dp228
g192
g199
sg193
I28
sg194
I3
sg195
I26
sg196
I31
sg197
I22
sa(dp229
g192
g201
sg193
I29
sg194
I2
sg195
I24
sg196
I37
sg197
I46
sa(dp230
g192
g204
sg193
I30
sg194
I1
sg195
I21
sg196
I39
sg197
I10
sa(dp231
g192
g199
sg193
I31
sg194
I2
sg195
I29
sg196
I39
sg197
I35
sa(dp232
g192
g204
sg193
I32
sg194
I2
sg195
I15
sg196
I41
sg197
I31
sa(dp233
g192
g204
sg193
I33
sg194
I2
sg195
I34
sg196
I45
sg197
I25
sa(dp234
g192
g204
sg193
I34
sg194
I2
sg195
I10
sg196
I49
sg197
I29
sa(dp235
g192
g204
sg193
I35
sg194
I2
sg195
I25
sg196
I49
sg197
I26
sa(dp236
g192
g204
sg193
I36
sg194
I1
sg195
I17
sg196
I53
sg197
I7
sa(dp237
g192
g199
sg193
I37
sg194
I2
sg195
I24
sg196
I49
sg197
I21
sa(dp238
g192
g204
sg193
I38
sg194
I1
sg195
I47
sg196
I53
sg197
I7
sa(dp239
g192
g199
sg193
I39
sg194
I2
sg195
I42
sg196
I49
sg197
I21
sa(dp240
g192
g204
sg193
I40
sg194
I1
sg195
I47
sg196
I53
sg197
I7
sa(dp241
g192
g199
sg193
I41
sg194
I2
sg195
I42
sg196
I49
sg197
I21
sa(dp242
g192
g204
sg193
I42
sg194
I1
sg195
I47
sg196
I53
sg197
I7
sa(dp243
g192
g199
sg193
I43
sg194
I2
sg195
I42
sg196
I49
sg197
I21
sa(dp244
g192
g201
sg193
I44
sg194
I1
sg195
I42
sg196
I49
sg197
I10
sa(dp245
g192
g204
sg193
I45
sg194
I1
sg195
I47
sg196
I53
sg197
I7
sa(dp246
g192
g199
sg193
I46
sg194
I2
sg195
I42
sg196
I49
sg197
I50
sa(dp247
g192
g204
sg193
I47
sg194
I1
sg195
I16
sg196
I45
sg197
I10
sa(dp248
g192
g204
sg193
I48
sg194
I1
sg195
I35
sg196
I49
sg197
I8
sa(dp249
g192
g199
sg193
I49
sg194
I2
sg195
I33
sg196
I45
sg197
I21
sa(dp250
g192
g204
sg193
I50
sg194
I1
sg195
I40
sg196
I49
sg197
I8
sa(dp251
g192
g199
sg193
I51
sg194
I2
sg195
I38
sg196
I45
sg197
I21
sa(dp252
g192
g204
sg193
I52
sg194
I1
sg195
I40
sg196
I49
sg197
I8
sa(dp253
g192
g199
sg193
I53
sg194
I2
sg195
I38
sg196
I45
sg197
I46
sa(dp254
g192
g204
sg193
I54
sg194
I2
sg195
I32
sg196
I45
sg197
I44
sa(dp255
g192
g204
sg193
I55
sg194
I1
sg195
I13
sg196
I45
sg197
I10
sa(dp256
g192
g204
sg193
I56
sg194
I1
sg195
I41
sg196
I49
sg197
I7
sa(dp257
g192
g199
sg193
I57
sg194
I2
sg195
I36
sg196
I45
sg197
I21
sa(dp258
g192
g204
sg193
I58
sg194
I1
sg195
I43
sg196
I49
sg197
I7
sa(dp259
g192
g199
sg193
I59
sg194
I2
sg195
I38
sg196
I45
sg197
I45
sa(dp260
g192
g204
sg193
I60
sg194
I2
sg195
I27
sg196
I41
sg197
I40
sa(dp261
g192
g204
sg193
I61
sg194
I1
sg195
I24
sg196
I43
sg197
I10
sa(dp262
g192
g204
sg193
I62
sg194
I1
sg195
I35
sg196
I47
sg197
I7
sa(dp263
g192
g199
sg193
I63
sg194
I2
sg195
I30
sg196
I43
sg197
I37
sa(dp264
g192
g204
sg193
I64
sg194
I1
sg195
I31
sg196
I39
sg197
I10
sa(dp265
g192
g204
sg193
I65
sg194
I1
sg195
I36
sg196
I43
sg197
I7
sa(dp266
g192
g199
sg193
I66
sg194
I2
sg195
I31
sg196
I39
sg197
I48
sa(dp267
g192
g204
sg193
I67
sg194
I1
sg195
I10
sg196
I39
sg197
I10
sa(dp268
g192
g204
sg193
I68
sg194
I1
sg195
I27
sg196
I43
sg197
I8
sa(dp269
g192
g199
sg193
I69
sg194
I2
sg195
I25
sg196
I39
sg197
I21
sa(dp270
g192
g204
sg193
I70
sg194
I1
sg195
I33
sg196
I43
sg197
I8
sa(dp271
g192
g204
sg193
I71
sg194
I0
sg195
I35
sg196
I47
sg197
I0
satRp272
(dp273
g50
I01
sg51
(lp274
g193
ag196
ag194
ag197
ag195
ag192
asg53
Nsg54
I0
sg55
g56
(g13
tRp275
sbsS'max_archive_size'
p276
NsS'solution_found_flag'
p277
I01
sS'time_taken'
p278
F1.2827630043029785
sS'benchmark_name'
p279
S'M_A2'
p280
sa(dp281
S'tree_str'
p282
S'a2(a2(a2(ARG1,ARG2),a2(ARG1,ARG0)),a2(a2(ARG0,a2(ARG0,ARG0)),a2(a2(a2(ARG1,ARG0),a2(a2(a2(ARG2,ARG0),a2(ARG0,ARG1)),a2(ARG0,a2(ARG0,ARG2)))),a2(ARG1,a2(ARG1,ARG1)))))'
p283
sS'tree_len'
p284
I37
sS'archive_size'
p285
I144
sS'number_of_operators'
p286
I18
sS'alg_name'
p287
S'small-LTI'
p288
sS'archive_tree_deapth'
p289
I2
sS'logbook'
p290
g12
(g13
g14
(lp291
(dp292
S'status'
p293
NsS'iteration'
p294
I0
sS'count_wrongs'
p295
I6
sS'picked_node'
p296
NsS'len_master_tree'
p297
I1
sS'total_wrongs'
p298
I6
sa(dp299
g293
S'worst'
p300
sg294
I1
sg295
I7
sg296
I0
sg297
I5
sg298
I30
sa(dp301
g293
S'better'
p302
sg294
I2
sg295
I6
sg296
I2
sg297
I9
sg298
I25
sa(dp303
g293
g302
sg294
I3
sg295
I5
sg296
I8
sg297
I13
sg298
I20
sa(dp304
g293
g302
sg294
I4
sg295
I4
sg296
I1
sg297
I19
sg298
I25
sa(dp305
g293
g302
sg294
I5
sg295
I3
sg296
I14
sg297
I25
sg298
I22
sa(dp306
g293
S'perfect'
p307
sg294
I6
sg295
I3
sg296
I22
sg297
I27
sg298
I19
sa(dp308
g293
g307
sg294
I7
sg295
I1
sg296
I15
sg297
I29
sg298
I7
sa(dp309
g293
g300
sg294
I8
sg295
I2
sg296
I15
sg297
I27
sg298
I36
sa(dp310
g293
g307
sg294
I9
sg295
I1
sg296
I25
sg297
I29
sg298
I7
sa(dp311
g293
g300
sg294
I10
sg295
I2
sg296
I20
sg297
I27
sg298
I36
sa(dp312
g293
g307
sg294
I11
sg295
I1
sg296
I24
sg297
I29
sg298
I7
sa(dp313
g293
g300
sg294
I12
sg295
I2
sg296
I20
sg297
I27
sg298
I36
sa(dp314
g293
g302
sg294
I13
sg295
I2
sg296
I24
sg297
I29
sg298
I34
sa(dp315
g293
g307
sg294
I14
sg295
I1
sg296
I1
sg297
I25
sg298
I7
sa(dp316
g293
g300
sg294
I15
sg295
I2
sg296
I9
sg297
I23
sg298
I33
sa(dp317
g293
g307
sg294
I16
sg295
I1
sg296
I18
sg297
I29
sg298
I8
sa(dp318
g293
g300
sg294
I17
sg295
I2
sg296
I16
sg297
I23
sg298
I33
sa(dp319
g293
g307
sg294
I18
sg295
I1
sg296
I18
sg297
I29
sg298
I8
sa(dp320
g293
g300
sg294
I19
sg295
I2
sg296
I16
sg297
I23
sg298
I33
sa(dp321
g293
g307
sg294
I20
sg295
I1
sg296
I18
sg297
I29
sg298
I8
sa(dp322
g293
g300
sg294
I21
sg295
I2
sg296
I21
sg297
I29
sg298
I30
sa(dp323
g293
g307
sg294
I22
sg295
I2
sg296
I27
sg297
I29
sg298
I27
sa(dp324
g293
g307
sg294
I23
sg295
I1
sg296
I24
sg297
I29
sg298
I8
sa(dp325
g293
g300
sg294
I24
sg295
I2
sg296
I3
sg297
I33
sg298
I35
sa(dp326
g293
g307
sg294
I25
sg295
I0
sg296
I17
sg297
I37
sg298
I0
satRp327
(dp328
g50
I01
sg51
(lp329
g294
ag297
ag295
ag298
ag296
ag293
asg53
Nsg54
I0
sg55
g56
(g13
tRp330
sbsS'max_archive_size'
p331
NsS'solution_found_flag'
p332
I01
sS'time_taken'
p333
F0.80045700073242188
sS'benchmark_name'
p334
S'M_A2'
p335
sa(dp336
S'tree_str'
p337
S'a2(a2(ARG1,a2(a2(ARG0,ARG2),a2(a2(a2(ARG2,ARG2),a2(ARG0,ARG0)),a2(ARG1,a2(ARG1,a2(ARG0,ARG2)))))),a2(a2(ARG0,a2(ARG0,ARG0)),a2(a2(a2(ARG1,ARG2),a2(ARG1,ARG0)),a2(ARG1,ARG2))))'
p338
sS'tree_len'
p339
I39
sS'archive_size'
p340
I144
sS'number_of_operators'
p341
I19
sS'alg_name'
p342
S'small-LTI'
p343
sS'archive_tree_deapth'
p344
I2
sS'logbook'
p345
g12
(g13
g14
(lp346
(dp347
S'status'
p348
NsS'iteration'
p349
I0
sS'count_wrongs'
p350
I6
sS'picked_node'
p351
NsS'len_master_tree'
p352
I1
sS'total_wrongs'
p353
I6
sa(dp354
g348
S'worst'
p355
sg349
I1
sg350
I7
sg351
I0
sg352
I5
sg353
I25
sa(dp356
g348
S'better'
p357
sg349
I2
sg350
I4
sg351
I1
sg352
I9
sg353
I24
sa(dp358
g348
g357
sg349
I3
sg350
I5
sg351
I2
sg352
I13
sg353
I35
sa(dp359
g348
g357
sg349
I4
sg350
I3
sg351
I11
sg352
I17
sg353
I25
sa(dp360
g348
S'perfect'
p361
sg349
I5
sg350
I3
sg351
I15
sg352
I21
sg353
I20
sa(dp362
g348
g355
sg349
I6
sg350
I5
sg351
I10
sg352
I17
sg353
I41
sa(dp363
g348
g357
sg349
I7
sg350
I4
sg351
I14
sg352
I21
sg353
I29
sa(dp364
g348
g361
sg349
I8
sg350
I4
sg351
I19
sg352
I21
sg353
I26
sa(dp365
g348
g361
sg349
I9
sg350
I4
sg351
I16
sg352
I25
sg353
I25
sa(dp366
g348
g361
sg349
I10
sg350
I3
sg351
I16
sg352
I29
sg353
I14
sa(dp367
g348
g355
sg349
I11
sg350
I3
sg351
I7
sg352
I33
sg353
I20
sa(dp368
g348
g361
sg349
I12
sg350
I2
sg351
I31
sg352
I37
sg353
I8
sa(dp369
g348
g355
sg349
I13
sg350
I3
sg351
I5
sg352
I29
sg353
I14
sa(dp370
g348
g355
sg349
I14
sg350
I3
sg351
I28
sg352
I33
sg353
I20
sa(dp371
g348
g357
sg349
I15
sg350
I3
sg351
I28
sg352
I29
sg353
I14
sa(dp372
g348
g355
sg349
I16
sg350
I3
sg351
I28
sg352
I35
sg353
I26
sa(dp373
g348
g361
sg349
I17
sg350
I3
sg351
I32
sg352
I33
sg353
I20
sa(dp374
g348
g361
sg349
I18
sg350
I2
sg351
I30
sg352
I37
sg353
I8
sa(dp375
g348
g355
sg349
I19
sg350
I3
sg351
I26
sg352
I29
sg353
I14
sa(dp376
g348
g355
sg349
I20
sg350
I5
sg351
I28
sg352
I29
sg353
I45
sa(dp377
g348
g361
sg349
I21
sg350
I5
sg351
I21
sg352
I29
sg353
I43
sa(dp378
g348
g361
sg349
I22
sg350
I5
sg351
I20
sg352
I33
sg353
I26
sa(dp379
g348
g357
sg349
I23
sg350
I3
sg351
I22
sg352
I33
sg353
I14
sa(dp380
g348
g355
sg349
I24
sg350
I3
sg351
I32
sg352
I37
sg353
I20
sa(dp381
g348
g361
sg349
I25
sg350
I2
sg351
I35
sg352
I41
sg353
I8
sa(dp382
g348
g355
sg349
I26
sg350
I3
sg351
I20
sg352
I33
sg353
I14
sa(dp383
g348
g355
sg349
I27
sg350
I3
sg351
I32
sg352
I39
sg353
I26
sa(dp384
g348
g361
sg349
I28
sg350
I3
sg351
I36
sg352
I37
sg353
I20
sa(dp385
g348
g361
sg349
I29
sg350
I2
sg351
I34
sg352
I41
sg353
I8
sa(dp386
g348
g355
sg349
I30
sg350
I3
sg351
I30
sg352
I33
sg353
I14
sa(dp387
g348
g355
sg349
I31
sg350
I4
sg351
I3
sg352
I33
sg353
I20
sa(dp388
g348
g357
sg349
I32
sg350
I3
sg351
I28
sg352
I33
sg353
I14
sa(dp389
g348
g355
sg349
I33
sg350
I4
sg351
I28
sg352
I33
sg353
I20
sa(dp390
g348
g357
sg349
I34
sg350
I3
sg351
I30
sg352
I37
sg353
I50
sa(dp391
g348
g361
sg349
I35
sg350
I2
sg351
I20
sg352
I35
sg353
I14
sa(dp392
g348
g361
sg349
I36
sg350
I1
sg351
I30
sg352
I39
sg353
I3
sa(dp393
g348
g355
sg349
I37
sg350
I3
sg351
I1
sg352
I19
sg353
I17
sa(dp394
g348
g357
sg349
I38
sg350
I3
sg351
I17
sg352
I23
sg353
I18
sa(dp395
g348
g361
sg349
I39
sg350
I3
sg351
I22
sg352
I27
sg353
I17
sa(dp396
g348
g361
sg349
I40
sg350
I2
sg351
I19
sg352
I31
sg353
I8
sa(dp397
g348
g355
sg349
I41
sg350
I3
sg351
I16
sg352
I19
sg353
I25
sa(dp398
g348
g361
sg349
I42
sg350
I3
sg351
I9
sg352
I19
sg353
I22
sa(dp399
g348
g361
sg349
I43
sg350
I2
sg351
I5
sg352
I25
sg353
I8
sa(dp400
g348
g355
sg349
I44
sg350
I3
sg351
I10
sg352
I27
sg353
I30
sa(dp401
g348
g361
sg349
I45
sg350
I2
sg351
I12
sg352
I29
sg353
I11
sa(dp402
g348
g361
sg349
I46
sg350
I1
sg351
I23
sg352
I33
sg353
I3
sa(dp403
g348
g355
sg349
I47
sg350
I2
sg351
I9
sg352
I37
sg353
I18
sa(dp404
g348
g361
sg349
I48
sg350
I2
sg351
I27
sg352
I33
sg353
I15
sa(dp405
g348
g361
sg349
I49
sg350
I0
sg351
I28
sg352
I39
sg353
I0
satRp406
(dp407
g50
I01
sg51
(lp408
g349
ag352
ag350
ag353
ag351
ag348
asg53
Nsg54
I0
sg55
g56
(g13
tRp409
sbsS'max_archive_size'
p410
NsS'solution_found_flag'
p411
I01
sS'time_taken'
p412
F0.78783297538757324
sS'benchmark_name'
p413
S'M_A2'
p414
sa(dp415
S'tree_str'
p416
S'a2(a2(a2(ARG0,a2(ARG1,a2(ARG1,ARG0))),a2(ARG0,ARG2)),a2(a2(ARG2,a2(ARG2,ARG1)),a2(a2(a2(a2(ARG0,ARG2),ARG2),a2(ARG1,ARG0)),a2(a2(ARG2,a2(ARG0,ARG2)),a2(ARG0,ARG1)))))'
p417
sS'tree_len'
p418
I37
sS'archive_size'
p419
I144
sS'number_of_operators'
p420
I18
sS'alg_name'
p421
S'small-LTI'
p422
sS'archive_tree_deapth'
p423
I2
sS'logbook'
p424
g12
(g13
g14
(lp425
(dp426
S'status'
p427
NsS'iteration'
p428
I0
sS'count_wrongs'
p429
I6
sS'picked_node'
p430
NsS'len_master_tree'
p431
I1
sS'total_wrongs'
p432
I6
sa(dp433
g427
S'worst'
p434
sg428
I1
sg429
I7
sg430
I0
sg431
I5
sg432
I30
sa(dp435
g427
S'better'
p436
sg428
I2
sg429
I6
sg430
I2
sg431
I9
sg432
I25
sa(dp437
g427
g436
sg428
I3
sg429
I5
sg430
I8
sg431
I13
sg432
I20
sa(dp438
g427
g436
sg428
I4
sg429
I4
sg430
I1
sg431
I19
sg432
I25
sa(dp439
g427
g436
sg428
I5
sg429
I3
sg430
I14
sg431
I25
sg432
I22
sa(dp440
g427
S'perfect'
p441
sg428
I6
sg429
I3
sg430
I19
sg431
I27
sg432
I20
sa(dp442
g427
g441
sg428
I7
sg429
I2
sg430
I21
sg431
I33
sg432
I12
sa(dp443
g427
g434
sg428
I8
sg429
I3
sg430
I13
sg431
I21
sg432
I21
sa(dp444
g427
g441
sg428
I9
sg429
I3
sg430
I19
sg431
I25
sg432
I18
sa(dp445
g427
g434
sg428
I10
sg429
I4
sg430
I18
sg431
I19
sg432
I25
sa(dp446
g427
g436
sg428
I11
sg429
I3
sg430
I18
sg431
I25
sg432
I22
sa(dp447
g427
g441
sg428
I12
sg429
I3
sg430
I23
sg431
I27
sg432
I19
sa(dp448
g427
g441
sg428
I13
sg429
I1
sg430
I13
sg431
I29
sg432
I7
sa(dp449
g427
g434
sg428
I14
sg429
I2
sg430
I14
sg431
I33
sg432
I31
sa(dp450
g427
g441
sg428
I15
sg429
I1
sg430
I29
sg431
I37
sg432
I16
sa(dp451
g427
g441
sg428
I16
sg429
I0
sg430
I29
sg431
I37
sg432
I0
satRp452
(dp453
g50
I01
sg51
(lp454
g428
ag431
ag429
ag432
ag430
ag427
asg53
Nsg54
I0
sg55
g56
(g13
tRp455
sbsS'max_archive_size'
p456
NsS'solution_found_flag'
p457
I01
sS'time_taken'
p458
F0.8767399787902832
sS'benchmark_name'
p459
S'M_A2'
p460
sa(dp461
S'tree_str'
p462
S'a2(a2(a2(ARG0,ARG0),a2(ARG0,a2(ARG1,a2(a2(ARG0,a2(ARG0,ARG1)),ARG2)))),a2(a2(ARG2,a2(ARG2,ARG1)),a2(a2(a2(a2(ARG0,ARG2),ARG2),a2(ARG1,a2(ARG1,a2(ARG1,ARG0)))),a2(a2(ARG1,a2(ARG0,ARG2)),a2(ARG2,ARG1)))))'
p463
sS'tree_len'
p464
I45
sS'archive_size'
p465
I144
sS'number_of_operators'
p466
I22
sS'alg_name'
p467
S'small-LTI'
p468
sS'archive_tree_deapth'
p469
I2
sS'logbook'
p470
g12
(g13
g14
(lp471
(dp472
S'status'
p473
NsS'iteration'
p474
I0
sS'count_wrongs'
p475
I6
sS'picked_node'
p476
NsS'len_master_tree'
p477
I1
sS'total_wrongs'
p478
I6
sa(dp479
g473
S'worst'
p480
sg474
I1
sg475
I7
sg476
I0
sg477
I5
sg478
I30
sa(dp481
g473
S'better'
p482
sg474
I2
sg475
I6
sg476
I2
sg477
I9
sg478
I25
sa(dp483
g473
g482
sg474
I3
sg475
I6
sg476
I8
sg477
I13
sg478
I26
sa(dp484
g473
S'perfect'
p485
sg474
I4
sg475
I6
sg476
I11
sg477
I17
sg478
I25
sa(dp486
g473
g482
sg474
I5
sg475
I6
sg476
I5
sg477
I17
sg478
I25
sa(dp487
g473
g482
sg474
I6
sg475
I4
sg476
I3
sg477
I21
sg478
I25
sa(dp488
g473
g485
sg474
I7
sg475
I4
sg476
I9
sg477
I17
sg478
I21
sa(dp489
g473
g485
sg474
I8
sg475
I4
sg476
I8
sg477
I21
sg478
I19
sa(dp490
g473
g480
sg474
I9
sg475
I6
sg476
I2
sg477
I9
sg478
I25
sa(dp491
g473
g482
sg474
I10
sg475
I5
sg476
I5
sg477
I13
sg478
I20
sa(dp492
g473
g485
sg474
I11
sg475
I5
sg476
I11
sg477
I17
sg478
I16
sa(dp493
g473
g482
sg474
I12
sg475
I4
sg476
I1
sg477
I23
sg478
I25
sa(dp494
g473
g482
sg474
I13
sg475
I3
sg476
I18
sg477
I29
sg478
I22
sa(dp495
g473
g485
sg474
I14
sg475
I3
sg476
I24
sg477
I31
sg478
I20
sa(dp496
g473
g485
sg474
I15
sg475
I2
sg476
I27
sg477
I37
sg478
I12
sa(dp497
g473
g480
sg474
I16
sg475
I3
sg476
I17
sg477
I25
sg478
I21
sa(dp498
g473
g485
sg474
I17
sg475
I3
sg476
I23
sg477
I29
sg478
I18
sa(dp499
g473
g480
sg474
I18
sg475
I4
sg476
I22
sg477
I23
sg478
I25
sa(dp500
g473
g482
sg474
I19
sg475
I3
sg476
I22
sg477
I29
sg478
I22
sa(dp501
g473
g485
sg474
I20
sg475
I3
sg476
I26
sg477
I31
sg478
I19
sa(dp502
g473
g485
sg474
I21
sg475
I1
sg476
I17
sg477
I33
sg478
I7
sa(dp503
g473
g480
sg474
I22
sg475
I2
sg476
I18
sg477
I37
sg478
I31
sa(dp504
g473
g485
sg474
I23
sg475
I1
sg476
I33
sg477
I41
sg478
I16
sa(dp505
g473
g485
sg474
I24
sg475
I0
sg476
I21
sg477
I45
sg478
I0
satRp506
(dp507
g50
I01
sg51
(lp508
g474
ag477
ag475
ag478
ag476
ag473
asg53
Nsg54
I0
sg55
g56
(g13
tRp509
sbsS'max_archive_size'
p510
NsS'solution_found_flag'
p511
I01
sS'time_taken'
p512
F1.0761499404907227
sS'benchmark_name'
p513
S'M_A2'
p514
sa(dp515
S'tree_str'
p516
S'a2(a2(ARG1,a2(a2(ARG0,ARG2),a2(ARG1,a2(ARG1,a2(ARG1,ARG0))))),a2(a2(a2(a2(a2(ARG1,ARG2),ARG0),a2(ARG1,a2(ARG2,ARG2))),a2(a2(ARG1,a2(ARG1,ARG1)),a2(ARG1,a2(ARG1,ARG0)))),a2(a2(a2(ARG1,ARG2),a2(ARG1,ARG0)),a2(ARG1,ARG2))))'
p517
sS'tree_len'
p518
I49
sS'archive_size'
p519
I144
sS'number_of_operators'
p520
I24
sS'alg_name'
p521
S'small-LTI'
p522
sS'archive_tree_deapth'
p523
I2
sS'logbook'
p524
g12
(g13
g14
(lp525
(dp526
S'status'
p527
NsS'iteration'
p528
I0
sS'count_wrongs'
p529
I6
sS'picked_node'
p530
NsS'len_master_tree'
p531
I1
sS'total_wrongs'
p532
I6
sa(dp533
g527
S'worst'
p534
sg528
I1
sg529
I7
sg530
I0
sg531
I5
sg532
I25
sa(dp535
g527
S'better'
p536
sg528
I2
sg529
I4
sg530
I1
sg531
I9
sg532
I24
sa(dp537
g527
g536
sg528
I3
sg529
I4
sg530
I2
sg531
I13
sg532
I31
sa(dp538
g527
g536
sg528
I4
sg529
I4
sg530
I11
sg531
I17
sg532
I28
sa(dp539
g527
S'perfect'
p540
sg528
I5
sg529
I4
sg530
I16
sg531
I21
sg532
I19
sa(dp541
g527
g534
sg528
I6
sg529
I5
sg530
I9
sg531
I25
sg532
I41
sa(dp542
g527
g540
sg528
I7
sg529
I4
sg530
I10
sg531
I29
sg532
I22
sa(dp543
g527
g534
sg528
I8
sg529
I5
sg530
I19
sg531
I25
sg532
I43
sa(dp544
g527
g540
sg528
I9
sg529
I4
sg530
I19
sg531
I25
sg532
I19
sa(dp545
g527
g534
sg528
I10
sg529
I5
sg530
I19
sg531
I25
sg532
I43
sa(dp546
g527
g540
sg528
I11
sg529
I4
sg530
I11
sg531
I25
sg532
I19
sa(dp547
g527
g534
sg528
I12
sg529
I5
sg530
I23
sg531
I29
sg532
I49
sa(dp548
g527
g540
sg528
I13
sg529
I4
sg530
I18
sg531
I25
sg532
I22
sa(dp549
g527
g534
sg528
I14
sg529
I5
sg530
I21
sg531
I25
sg532
I45
sa(dp550
g527
g540
sg528
I15
sg529
I4
sg530
I23
sg531
I25
sg532
I22
sa(dp551
g527
g534
sg528
I16
sg529
I5
sg530
I22
sg531
I25
sg532
I45
sa(dp552
g527
g540
sg528
I17
sg529
I4
sg530
I23
sg531
I29
sg532
I22
sa(dp553
g527
g540
sg528
I18
sg529
I4
sg530
I20
sg531
I33
sg532
I26
sa(dp554
g527
g540
sg528
I19
sg529
I4
sg530
I27
sg531
I37
sg532
I23
sa(dp555
g527
g534
sg528
I20
sg529
I5
sg530
I19
sg531
I25
sg532
I45
sa(dp556
g527
g540
sg528
I21
sg529
I5
sg530
I17
sg531
I29
sg532
I43
sa(dp557
g527
g540
sg528
I22
sg529
I4
sg530
I12
sg531
I29
sg532
I22
sa(dp558
g527
g534
sg528
I23
sg529
I5
sg530
I18
sg531
I25
sg532
I37
sa(dp559
g527
g540
sg528
I24
sg529
I5
sg530
I23
sg531
I25
sg532
I27
sa(dp560
g527
g540
sg528
I25
sg529
I4
sg530
I17
sg531
I29
sg532
I19
sa(dp561
g527
g534
sg528
I26
sg529
I5
sg530
I22
sg531
I33
sg532
I44
sa(dp562
g527
g540
sg528
I27
sg529
I4
sg530
I16
sg531
I37
sg532
I22
sa(dp563
g527
g534
sg528
I28
sg529
I5
sg530
I29
sg531
I37
sg532
I51
sa(dp564
g527
g540
sg528
I29
sg529
I5
sg530
I21
sg531
I37
sg532
I47
sa(dp565
g527
g540
sg528
I30
sg529
I4
sg530
I34
sg531
I37
sg532
I22
sa(dp566
g527
g534
sg528
I31
sg529
I5
sg530
I27
sg531
I37
sg532
I46
sa(dp567
g527
g540
sg528
I32
sg529
I4
sg530
I35
sg531
I41
sg532
I22
sa(dp568
g527
g540
sg528
I33
sg529
I4
sg530
I35
sg531
I45
sg532
I26
sa(dp569
g527
g540
sg528
I34
sg529
I4
sg530
I38
sg531
I49
sg532
I23
sa(dp570
g527
g534
sg528
I35
sg529
I5
sg530
I26
sg531
I37
sg532
I55
sa(dp571
g527
g540
sg528
I36
sg529
I4
sg530
I26
sg531
I33
sg532
I22
sa(dp572
g527
g534
sg528
I37
sg529
I5
sg530
I31
sg531
I33
sg532
I51
sa(dp573
g527
g540
sg528
I38
sg529
I5
sg530
I16
sg531
I29
sg532
I46
sa(dp574
g527
g540
sg528
I39
sg529
I4
sg530
I26
sg531
I29
sg532
I22
sa(dp575
g527
g540
sg528
I40
sg529
I3
sg530
I23
sg531
I33
sg532
I14
sa(dp576
g527
g534
sg528
I41
sg529
I4
sg530
I2
sg531
I37
sg532
I27
sa(dp577
g527
g540
sg528
I42
sg529
I2
sg530
I33
sg531
I43
sg532
I11
sa(dp578
g527
g534
sg528
I43
sg529
I2
sg530
I6
sg531
I47
sg532
I17
sa(dp579
g527
g540
sg528
I44
sg529
I1
sg530
I45
sg531
I51
sg532
I5
sa(dp580
g527
g534
sg528
I45
sg529
I2
sg530
I4
sg531
I43
sg532
I11
sa(dp581
g527
g534
sg528
I46
sg529
I2
sg530
I42
sg531
I47
sg532
I17
sa(dp582
g527
g536
sg528
I47
sg529
I2
sg530
I42
sg531
I43
sg532
I11
sa(dp583
g527
g534
sg528
I48
sg529
I2
sg530
I42
sg531
I49
sg532
I23
sa(dp584
g527
g540
sg528
I49
sg529
I2
sg530
I46
sg531
I47
sg532
I17
sa(dp585
g527
g540
sg528
I50
sg529
I1
sg530
I44
sg531
I51
sg532
I5
sa(dp586
g527
g534
sg528
I51
sg529
I2
sg530
I2
sg531
I43
sg532
I11
sa(dp587
g527
g534
sg528
I52
sg529
I4
sg530
I42
sg531
I43
sg532
I49
sa(dp588
g527
g540
sg528
I53
sg529
I4
sg530
I22
sg531
I43
sg532
I44
sa(dp589
g527
g540
sg528
I54
sg529
I4
sg530
I21
sg531
I47
sg532
I23
sa(dp590
g527
g536
sg528
I55
sg529
I3
sg530
I36
sg531
I47
sg532
I42
sa(dp591
g527
g540
sg528
I56
sg529
I2
sg530
I4
sg531
I39
sg532
I11
sa(dp592
g527
g534
sg528
I57
sg529
I2
sg530
I33
sg531
I43
sg532
I17
sa(dp593
g527
g540
sg528
I58
sg529
I1
sg530
I41
sg531
I47
sg532
I5
sa(dp594
g527
g534
sg528
I59
sg529
I2
sg530
I24
sg531
I39
sg532
I11
sa(dp595
g527
g534
sg528
I60
sg529
I2
sg530
I38
sg531
I43
sg532
I17
sa(dp596
g527
g536
sg528
I61
sg529
I2
sg530
I38
sg531
I39
sg532
I11
sa(dp597
g527
g534
sg528
I62
sg529
I2
sg530
I38
sg531
I45
sg532
I23
sa(dp598
g527
g540
sg528
I63
sg529
I2
sg530
I40
sg531
I49
sg532
I20
sa(dp599
g527
g540
sg528
I64
sg529
I1
sg530
I41
sg531
I47
sg532
I5
sa(dp600
g527
g534
sg528
I65
sg529
I2
sg530
I34
sg531
I39
sg532
I11
sa(dp601
g527
g534
sg528
I66
sg529
I4
sg530
I38
sg531
I39
sg532
I40
sa(dp602
g527
g540
sg528
I67
sg529
I4
sg530
I12
sg531
I43
sg532
I23
sa(dp603
g527
g536
sg528
I68
sg529
I2
sg530
I37
sg531
I43
sg532
I11
sa(dp604
g527
g534
sg528
I69
sg529
I3
sg530
I33
sg531
I43
sg532
I17
sa(dp605
g527
g536
sg528
I70
sg529
I2
sg530
I38
sg531
I43
sg532
I11
sa(dp606
g527
g534
sg528
I71
sg529
I3
sg530
I38
sg531
I43
sg532
I17
sa(dp607
g527
g536
sg528
I72
sg529
I2
sg530
I40
sg531
I47
sg532
I49
sa(dp608
g527
g540
sg528
I73
sg529
I1
sg530
I33
sg531
I45
sg532
I19
sa(dp609
g527
g540
sg528
I74
sg529
I0
sg530
I38
sg531
I49
sg532
I0
satRp610
(dp611
g50
I01
sg51
(lp612
g528
ag531
ag529
ag532
ag530
ag527
asg53
Nsg54
I0
sg55
g56
(g13
tRp613
sbsS'max_archive_size'
p614
NsS'solution_found_flag'
p615
I01
sS'time_taken'
p616
F1.9633419513702393
sS'benchmark_name'
p617
S'M_A2'
p618
sa(dp619
S'tree_str'
p620
S'a2(a2(a2(ARG0,a2(a2(ARG2,a2(a2(a2(ARG0,ARG0),ARG0),ARG2)),ARG1)),a2(ARG0,ARG0)),a2(a2(a2(a2(a2(a2(ARG0,ARG2),ARG2),ARG2),a2(a2(ARG0,a2(ARG1,ARG0)),a2(a2(ARG1,ARG2),ARG0))),ARG2),a2(a2(a2(ARG1,ARG2),a2(ARG0,ARG1)),a2(a2(ARG2,a2(ARG0,ARG0)),ARG0))))'
p621
sS'tree_len'
p622
I55
sS'archive_size'
p623
I144
sS'number_of_operators'
p624
I27
sS'alg_name'
p625
S'small-LTI'
p626
sS'archive_tree_deapth'
p627
I2
sS'logbook'
p628
g12
(g13
g14
(lp629
(dp630
S'status'
p631
NsS'iteration'
p632
I0
sS'count_wrongs'
p633
I6
sS'picked_node'
p634
NsS'len_master_tree'
p635
I1
sS'total_wrongs'
p636
I6
sa(dp637
g631
S'worst'
p638
sg632
I1
sg633
I7
sg634
I0
sg635
I5
sg636
I25
sa(dp639
g631
S'better'
p640
sg632
I2
sg633
I4
sg634
I1
sg635
I9
sg636
I24
sa(dp641
g631
g640
sg632
I3
sg633
I5
sg634
I2
sg635
I13
sg636
I40
sa(dp642
g631
g640
sg632
I4
sg633
I3
sg634
I11
sg635
I17
sg636
I25
sa(dp643
g631
S'perfect'
p644
sg632
I5
sg633
I3
sg634
I16
sg635
I21
sg636
I20
sa(dp645
g631
g638
sg632
I6
sg633
I5
sg634
I10
sg635
I17
sg636
I41
sa(dp646
g631
g640
sg632
I7
sg633
I5
sg634
I12
sg635
I21
sg636
I44
sa(dp647
g631
g644
sg632
I8
sg633
I3
sg634
I12
sg635
I25
sg636
I14
sa(dp648
g631
g638
sg632
I9
sg633
I3
sg634
I2
sg635
I29
sg636
I33
sa(dp649
g631
g644
sg632
I10
sg633
I3
sg634
I12
sg635
I33
sg636
I30
sa(dp650
g631
g640
sg632
I11
sg633
I3
sg634
I23
sg635
I29
sg636
I14
sa(dp651
g631
g638
sg632
I12
sg633
I3
sg634
I6
sg635
I33
sg636
I20
sa(dp652
g631
g644
sg632
I13
sg633
I2
sg634
I31
sg635
I37
sg636
I8
sa(dp653
g631
g638
sg632
I14
sg633
I3
sg634
I2
sg635
I29
sg636
I14
sa(dp654
g631
g638
sg632
I15
sg633
I3
sg634
I28
sg635
I33
sg636
I20
sa(dp655
g631
g640
sg632
I16
sg633
I3
sg634
I28
sg635
I29
sg636
I14
sa(dp656
g631
g638
sg632
I17
sg633
I3
sg634
I23
sg635
I33
sg636
I30
sa(dp657
g631
g640
sg632
I18
sg633
I3
sg634
I31
sg635
I37
sg636
I26
sa(dp658
g631
g644
sg632
I19
sg633
I3
sg634
I36
sg635
I41
sg636
I25
sa(dp659
g631
g644
sg632
I20
sg633
I2
sg634
I29
sg635
I47
sg636
I11
sa(dp660
g631
g638
sg632
I21
sg633
I2
sg634
I27
sg635
I51
sg636
I17
sa(dp661
g631
g644
sg632
I22
sg633
I1
sg634
I49
sg635
I55
sg636
I5
sa(dp662
g631
g638
sg632
I23
sg633
I2
sg634
I23
sg635
I47
sg636
I11
sa(dp663
g631
g638
sg632
I24
sg633
I2
sg634
I46
sg635
I51
sg636
I17
sa(dp664
g631
g640
sg632
I25
sg633
I2
sg634
I46
sg635
I47
sg636
I11
sa(dp665
g631
g638
sg632
I26
sg633
I2
sg634
I46
sg635
I53
sg636
I23
sa(dp666
g631
g644
sg632
I27
sg633
I2
sg634
I50
sg635
I51
sg636
I17
sa(dp667
g631
g644
sg632
I28
sg633
I1
sg634
I48
sg635
I55
sg636
I5
sa(dp668
g631
g638
sg632
I29
sg633
I2
sg634
I44
sg635
I47
sg636
I11
sa(dp669
g631
g638
sg632
I30
sg633
I4
sg634
I46
sg635
I47
sg636
I44
sa(dp670
g631
g644
sg632
I31
sg633
I4
sg634
I8
sg635
I47
sg636
I23
sa(dp671
g631
g640
sg632
I32
sg633
I3
sg634
I41
sg635
I47
sg636
I35
sa(dp672
g631
g644
sg632
I33
sg633
I2
sg634
I8
sg635
I47
sg636
I11
sa(dp673
g631
g638
sg632
I34
sg633
I2
sg634
I41
sg635
I51
sg636
I17
sa(dp674
g631
g640
sg632
I35
sg633
I2
sg634
I49
sg635
I55
sg636
I18
sa(dp675
g631
g644
sg632
I36
sg633
I1
sg634
I50
sg635
I55
sg636
I5
sa(dp676
g631
g638
sg632
I37
sg633
I2
sg634
I34
sg635
I47
sg636
I11
sa(dp677
g631
g638
sg632
I38
sg633
I3
sg634
I32
sg635
I47
sg636
I17
sa(dp678
g631
g640
sg632
I39
sg633
I2
sg634
I42
sg635
I47
sg636
I11
sa(dp679
g631
g638
sg632
I40
sg633
I3
sg634
I42
sg635
I47
sg636
I17
sa(dp680
g631
g640
sg632
I41
sg633
I2
sg634
I43
sg635
I51
sg636
I32
sa(dp681
g631
g644
sg632
I42
sg633
I2
sg634
I18
sg635
I47
sg636
I19
sa(dp682
g631
g640
sg632
I43
sg633
I1
sg634
I42
sg635
I51
sg636
I11
sa(dp683
g631
g644
sg632
I44
sg633
I0
sg634
I49
sg635
I55
sg636
I0
satRp684
(dp685
g50
I01
sg51
(lp686
g632
ag635
ag633
ag636
ag634
ag631
asg53
Nsg54
I0
sg55
g56
(g13
tRp687
sbsS'max_archive_size'
p688
NsS'solution_found_flag'
p689
I01
sS'time_taken'
p690
F0.8797919750213623
sS'benchmark_name'
p691
S'M_A2'
p692
sa(dp693
S'tree_str'
p694
S'a2(a2(a2(ARG2,a2(ARG1,a2(ARG1,ARG2))),a2(ARG2,ARG0)),a2(a2(ARG0,a2(ARG0,ARG0)),a2(a2(a2(a2(ARG2,a2(ARG1,ARG2)),ARG2),a2(a2(ARG0,ARG2),ARG0)),ARG1)))'
p695
sS'tree_len'
p696
I33
sS'archive_size'
p697
I144
sS'number_of_operators'
p698
I16
sS'alg_name'
p699
S'small-LTI'
p700
sS'archive_tree_deapth'
p701
I2
sS'logbook'
p702
g12
(g13
g14
(lp703
(dp704
S'status'
p705
NsS'iteration'
p706
I0
sS'count_wrongs'
p707
I6
sS'picked_node'
p708
NsS'len_master_tree'
p709
I1
sS'total_wrongs'
p710
I6
sa(dp711
g705
S'worst'
p712
sg706
I1
sg707
I7
sg708
I0
sg709
I5
sg710
I30
sa(dp713
g705
S'better'
p714
sg706
I2
sg707
I6
sg708
I2
sg709
I9
sg710
I25
sa(dp715
g705
g714
sg706
I3
sg707
I5
sg708
I8
sg709
I13
sg710
I20
sa(dp716
g705
g714
sg706
I4
sg707
I4
sg708
I1
sg709
I19
sg710
I25
sa(dp717
g705
g714
sg706
I5
sg707
I3
sg708
I14
sg709
I25
sg710
I22
sa(dp718
g705
S'perfect'
p719
sg706
I6
sg707
I3
sg708
I19
sg709
I27
sg710
I20
sa(dp720
g705
g719
sg706
I7
sg707
I2
sg708
I21
sg709
I33
sg710
I12
sa(dp721
g705
g712
sg706
I8
sg707
I3
sg708
I13
sg709
I21
sg710
I21
sa(dp722
g705
g719
sg706
I9
sg707
I3
sg708
I19
sg709
I25
sg710
I18
sa(dp723
g705
g712
sg706
I10
sg707
I4
sg708
I18
sg709
I19
sg710
I25
sa(dp724
g705
g714
sg706
I11
sg707
I3
sg708
I18
sg709
I25
sg710
I22
sa(dp725
g705
g719
sg706
I12
sg707
I3
sg708
I22
sg709
I27
sg710
I19
sa(dp726
g705
g719
sg706
I13
sg707
I1
sg708
I13
sg709
I29
sg710
I7
sa(dp727
g705
g712
sg706
I14
sg707
I2
sg708
I15
sg709
I27
sg710
I36
sa(dp728
g705
g719
sg706
I15
sg707
I1
sg708
I24
sg709
I29
sg710
I7
sa(dp729
g705
g712
sg706
I16
sg707
I2
sg708
I20
sg709
I27
sg710
I36
sa(dp730
g705
g719
sg706
I17
sg707
I1
sg708
I25
sg709
I29
sg710
I7
sa(dp731
g705
g712
sg706
I18
sg707
I2
sg708
I20
sg709
I27
sg710
I36
sa(dp732
g705
g714
sg706
I19
sg707
I2
sg708
I22
sg709
I29
sg710
I21
sa(dp733
g705
g719
sg706
I20
sg707
I0
sg708
I24
sg709
I33
sg710
I0
satRp734
(dp735
g50
I01
sg51
(lp736
g706
ag709
ag707
ag710
ag708
ag705
asg53
Nsg54
I0
sg55
g56
(g13
tRp737
sbsS'max_archive_size'
p738
NsS'solution_found_flag'
p739
I01
sS'time_taken'
p740
F1.0157179832458496
sS'benchmark_name'
p741
S'M_A2'
p742
sa(dp743
S'tree_str'
p744
S'a2(a2(a2(ARG0,a2(ARG2,a2(a2(ARG1,ARG2),a2(ARG2,ARG1)))),a2(ARG1,a2(a2(ARG2,ARG0),a2(ARG0,ARG2)))),a2(a2(ARG0,a2(ARG0,ARG0)),a2(a2(a2(ARG1,ARG2),a2(ARG1,ARG0)),a2(ARG1,ARG2))))'
p745
sS'tree_len'
p746
I39
sS'archive_size'
p747
I144
sS'number_of_operators'
p748
I19
sS'alg_name'
p749
S'small-LTI'
p750
sS'archive_tree_deapth'
p751
I2
sS'logbook'
p752
g12
(g13
g14
(lp753
(dp754
S'status'
p755
NsS'iteration'
p756
I0
sS'count_wrongs'
p757
I6
sS'picked_node'
p758
NsS'len_master_tree'
p759
I1
sS'total_wrongs'
p760
I6
sa(dp761
g755
S'worst'
p762
sg756
I1
sg757
I7
sg758
I0
sg759
I5
sg760
I25
sa(dp763
g755
S'better'
p764
sg756
I2
sg757
I4
sg758
I1
sg759
I9
sg760
I24
sa(dp765
g755
g764
sg756
I3
sg757
I5
sg758
I2
sg759
I13
sg760
I37
sa(dp766
g755
g764
sg756
I4
sg757
I2
sg758
I4
sg759
I17
sg760
I22
sa(dp767
g755
S'perfect'
p768
sg756
I5
sg757
I2
sg758
I11
sg759
I21
sg760
I17
sa(dp769
g755
g762
sg756
I6
sg757
I2
sg758
I7
sg759
I17
sg760
I24
sa(dp770
g755
g768
sg756
I7
sg757
I2
sg758
I13
sg759
I21
sg760
I19
sa(dp771
g755
g768
sg756
I8
sg757
I2
sg758
I14
sg759
I25
sg760
I18
sa(dp772
g755
g762
sg756
I9
sg757
I3
sg758
I12
sg759
I17
sg760
I31
sa(dp773
g755
g768
sg756
I10
sg757
I1
sg758
I16
sg759
I21
sg760
I12
sa(dp774
g755
g762
sg756
I11
sg757
I3
sg758
I9
sg759
I21
sg760
I26
sa(dp775
g755
g768
sg756
I12
sg757
I2
sg758
I6
sg759
I27
sg760
I14
sa(dp776
g755
g768
sg756
I13
sg757
I1
sg758
I19
sg759
I33
sg760
I3
sa(dp777
g755
g762
sg756
I14
sg757
I2
sg758
I2
sg759
I37
sg760
I21
sa(dp778
g755
g768
sg756
I15
sg757
I1
sg758
I11
sg759
I37
sg760
I7
sa(dp779
g755
g762
sg756
I16
sg757
I2
sg758
I27
sg759
I37
sg760
I18
sa(dp780
g755
g768
sg756
I17
sg757
I2
sg758
I27
sg759
I33
sg760
I15
sa(dp781
g755
g768
sg756
I18
sg757
I0
sg758
I28
sg759
I39
sg760
I0
satRp782
(dp783
g50
I01
sg51
(lp784
g756
ag759
ag757
ag760
ag758
ag755
asg53
Nsg54
I0
sg55
g56
(g13
tRp785
sbsS'max_archive_size'
p786
NsS'solution_found_flag'
p787
I01
sS'time_taken'
p788
F1.0127818584442139
sS'benchmark_name'
p789
S'M_A2'
p790
sa(dp791
S'tree_str'
p792
S'a2(a2(a2(ARG2,a2(ARG0,a2(ARG0,a2(a2(ARG0,ARG0),ARG0)))),a2(a2(a2(a2(ARG0,ARG2),ARG2),ARG2),a2(a2(ARG2,ARG0),a2(a2(ARG2,ARG2),ARG1)))),a2(a2(ARG2,a2(ARG2,ARG2)),a2(a2(a2(ARG1,a2(a2(ARG2,ARG1),ARG2)),a2(a2(ARG0,ARG0),a2(ARG0,ARG2))),ARG1)))'
p793
sS'tree_len'
p794
I53
sS'archive_size'
p795
I144
sS'number_of_operators'
p796
I26
sS'alg_name'
p797
S'small-LTI'
p798
sS'archive_tree_deapth'
p799
I2
sS'logbook'
p800
g12
(g13
g14
(lp801
(dp802
S'status'
p803
NsS'iteration'
p804
I0
sS'count_wrongs'
p805
I6
sS'picked_node'
p806
NsS'len_master_tree'
p807
I1
sS'total_wrongs'
p808
I6
sa(dp809
g803
S'worst'
p810
sg804
I1
sg805
I7
sg806
I0
sg807
I5
sg808
I30
sa(dp811
g803
S'better'
p812
sg804
I2
sg805
I6
sg806
I2
sg807
I9
sg808
I25
sa(dp813
g803
g812
sg804
I3
sg805
I6
sg806
I8
sg807
I13
sg808
I26
sa(dp814
g803
S'perfect'
p815
sg804
I4
sg805
I6
sg806
I11
sg807
I17
sg808
I25
sa(dp816
g803
g812
sg804
I5
sg805
I6
sg806
I5
sg807
I17
sg808
I25
sa(dp817
g803
g812
sg804
I6
sg805
I4
sg806
I4
sg807
I21
sg808
I26
sa(dp818
g803
g815
sg804
I7
sg805
I4
sg806
I10
sg807
I17
sg808
I22
sa(dp819
g803
g815
sg804
I8
sg805
I4
sg806
I14
sg807
I21
sg808
I19
sa(dp820
g803
g810
sg804
I9
sg805
I6
sg806
I2
sg807
I9
sg808
I25
sa(dp821
g803
g812
sg804
I10
sg805
I6
sg806
I8
sg807
I13
sg808
I26
sa(dp822
g803
g815
sg804
I11
sg805
I6
sg806
I11
sg807
I17
sg808
I25
sa(dp823
g803
g812
sg804
I12
sg805
I5
sg806
I5
sg807
I21
sg808
I15
sa(dp824
g803
g815
sg804
I13
sg805
I5
sg806
I17
sg807
I25
sg808
I13
sa(dp825
g803
g812
sg804
I14
sg805
I4
sg806
I1
sg807
I31
sg808
I42
sa(dp826
g803
g815
sg804
I15
sg805
I4
sg806
I15
sg807
I29
sg808
I39
sa(dp827
g803
g815
sg804
I16
sg805
I4
sg806
I14
sg807
I29
sg808
I34
sa(dp828
g803
g815
sg804
I17
sg805
I3
sg806
I3
sg807
I33
sg808
I21
sa(dp829
g803
g812
sg804
I18
sg805
I3
sg806
I15
sg807
I39
sg808
I22
sa(dp830
g803
g815
sg804
I19
sg805
I3
sg806
I33
sg807
I41
sg808
I20
sa(dp831
g803
g815
sg804
I20
sg805
I2
sg806
I35
sg807
I47
sg808
I12
sa(dp832
g803
g810
sg804
I21
sg805
I3
sg806
I14
sg807
I33
sg808
I21
sa(dp833
g803
g812
sg804
I22
sg805
I3
sg806
I31
sg807
I39
sg808
I22
sa(dp834
g803
g815
sg804
I23
sg805
I3
sg806
I34
sg807
I41
sg808
I20
sa(dp835
g803
g815
sg804
I24
sg805
I2
sg806
I37
sg807
I47
sg808
I12
sa(dp836
g803
g810
sg804
I25
sg805
I3
sg806
I30
sg807
I33
sg808
I21
sa(dp837
g803
g812
sg804
I26
sg805
I3
sg806
I16
sg807
I35
sg808
I22
sa(dp838
g803
g815
sg804
I27
sg805
I2
sg806
I15
sg807
I39
sg808
I14
sa(dp839
g803
g810
sg804
I28
sg805
I3
sg806
I14
sg807
I35
sg808
I22
sa(dp840
g803
g815
sg804
I29
sg805
I2
sg806
I31
sg807
I39
sg808
I14
sa(dp841
g803
g810
sg804
I30
sg805
I3
sg806
I30
sg807
I35
sg808
I22
sa(dp842
g803
g812
sg804
I31
sg805
I2
sg806
I28
sg807
I41
sg808
I47
sa(dp843
g803
g815
sg804
I32
sg805
I2
sg806
I16
sg807
I43
sg808
I49
sa(dp844
g803
g815
sg804
I33
sg805
I1
sg806
I24
sg807
I45
sg808
I10
sa(dp845
g803
g810
sg804
I34
sg805
I2
sg806
I32
sg807
I45
sg808
I40
sa(dp846
g803
g815
sg804
I35
sg805
I1
sg806
I5
sg807
I41
sg808
I10
sa(dp847
g803
g815
sg804
I36
sg805
I1
sg806
I34
sg807
I45
sg808
I7
sa(dp848
g803
g810
sg804
I37
sg805
I2
sg806
I29
sg807
I41
sg808
I41
sa(dp849
g803
g815
sg804
I38
sg805
I2
sg806
I25
sg807
I45
sg808
I39
sa(dp850
g803
g815
sg804
I39
sg805
I1
sg806
I34
sg807
I49
sg808
I8
sa(dp851
g803
g810
sg804
I40
sg805
I2
sg806
I33
sg807
I45
sg808
I21
sa(dp852
g803
g815
sg804
I41
sg805
I1
sg806
I43
sg807
I49
sg808
I7
sa(dp853
g803
g810
sg804
I42
sg805
I2
sg806
I38
sg807
I45
sg808
I21
sa(dp854
g803
g812
sg804
I43
sg805
I1
sg806
I39
sg807
I45
sg808
I10
sa(dp855
g803
g815
sg804
I44
sg805
I1
sg806
I40
sg807
I49
sg808
I7
sa(dp856
g803
g810
sg804
I45
sg805
I2
sg806
I38
sg807
I45
sg808
I39
sa(dp857
g803
g815
sg804
I46
sg805
I1
sg806
I8
sg807
I49
sg808
I10
sa(dp858
g803
g815
sg804
I47
sg805
I1
sg806
I42
sg807
I53
sg808
I7
sa(dp859
g803
g810
sg804
I48
sg805
I2
sg806
I37
sg807
I49
sg808
I21
sa(dp860
g803
g815
sg804
I49
sg805
I1
sg806
I44
sg807
I53
sg808
I8
sa(dp861
g803
g810
sg804
I50
sg805
I2
sg806
I42
sg807
I49
sg808
I50
sa(dp862
g803
g815
sg804
I51
sg805
I1
sg806
I7
sg807
I41
sg808
I10
sa(dp863
g803
g815
sg804
I52
sg805
I1
sg806
I34
sg807
I45
sg808
I7
sa(dp864
g803
g810
sg804
I53
sg805
I2
sg806
I29
sg807
I41
sg808
I25
sa(dp865
g803
g815
sg804
I54
sg805
I1
sg806
I37
sg807
I41
sg808
I10
sa(dp866
g803
g815
sg804
I55
sg805
I1
sg806
I38
sg807
I45
sg808
I7
sa(dp867
g803
g810
sg804
I56
sg805
I2
sg806
I34
sg807
I41
sg808
I21
sa(dp868
g803
g815
sg804
I57
sg805
I1
sg806
I39
sg807
I45
sg808
I7
sa(dp869
g803
g810
sg804
I58
sg805
I2
sg806
I34
sg807
I41
sg808
I44
sa(dp870
g803
g815
sg804
I59
sg805
I2
sg806
I31
sg807
I41
sg808
I41
sa(dp871
g803
g815
sg804
I60
sg805
I1
sg806
I36
sg807
I45
sg808
I7
sa(dp872
g803
g810
sg804
I61
sg805
I2
sg806
I31
sg807
I41
sg808
I41
sa(dp873
g803
g815
sg804
I62
sg805
I2
sg806
I28
sg807
I45
sg808
I39
sa(dp874
g803
g815
sg804
I63
sg805
I1
sg806
I38
sg807
I49
sg808
I7
sa(dp875
g803
g810
sg804
I64
sg805
I2
sg806
I33
sg807
I45
sg808
I21
sa(dp876
g803
g815
sg804
I65
sg805
I1
sg806
I43
sg807
I49
sg808
I7
sa(dp877
g803
g810
sg804
I66
sg805
I2
sg806
I38
sg807
I45
sg808
I21
sa(dp878
g803
g815
sg804
I67
sg805
I1
sg806
I43
sg807
I49
sg808
I7
sa(dp879
g803
g810
sg804
I68
sg805
I2
sg806
I38
sg807
I45
sg808
I21
sa(dp880
g803
g815
sg804
I69
sg805
I1
sg806
I43
sg807
I49
sg808
I7
sa(dp881
g803
g810
sg804
I70
sg805
I2
sg806
I38
sg807
I45
sg808
I39
sa(dp882
g803
g815
sg804
I71
sg805
I1
sg806
I43
sg807
I49
sg808
I7
sa(dp883
g803
g810
sg804
I72
sg805
I2
sg806
I38
sg807
I45
sg808
I21
sa(dp884
g803
g812
sg804
I73
sg805
I1
sg806
I39
sg807
I45
sg808
I10
sa(dp885
g803
g815
sg804
I74
sg805
I1
sg806
I40
sg807
I49
sg808
I7
sa(dp886
g803
g810
sg804
I75
sg805
I2
sg806
I38
sg807
I45
sg808
I25
sa(dp887
g803
g815
sg804
I76
sg805
I1
sg806
I41
sg807
I45
sg808
I10
sa(dp888
g803
g815
sg804
I77
sg805
I1
sg806
I42
sg807
I49
sg808
I7
sa(dp889
g803
g810
sg804
I78
sg805
I2
sg806
I38
sg807
I45
sg808
I45
sa(dp890
g803
g815
sg804
I79
sg805
I1
sg806
I33
sg807
I45
sg808
I10
sa(dp891
g803
g815
sg804
I80
sg805
I1
sg806
I38
sg807
I49
sg808
I7
sa(dp892
g803
g810
sg804
I81
sg805
I2
sg806
I33
sg807
I45
sg808
I21
sa(dp893
g803
g815
sg804
I82
sg805
I1
sg806
I40
sg807
I49
sg808
I8
sa(dp894
g803
g810
sg804
I83
sg805
I2
sg806
I38
sg807
I45
sg808
I21
sa(dp895
g803
g815
sg804
I84
sg805
I1
sg806
I43
sg807
I49
sg808
I7
sa(dp896
g803
g810
sg804
I85
sg805
I2
sg806
I38
sg807
I45
sg808
I21
sa(dp897
g803
g815
sg804
I86
sg805
I1
sg806
I39
sg807
I49
sg808
I8
sa(dp898
g803
g815
sg804
I87
sg805
I0
sg806
I41
sg807
I53
sg808
I0
satRp899
(dp900
g50
I01
sg51
(lp901
g804
ag807
ag805
ag808
ag806
ag803
asg53
Nsg54
I0
sg55
g56
(g13
tRp902
sbsS'max_archive_size'
p903
NsS'solution_found_flag'
p904
I01
sS'time_taken'
p905
F1.8712518215179443
sS'benchmark_name'
p906
S'M_A2'
p907
sa(dp908
S'tree_str'
p909
S'a2(a2(a2(ARG0,a2(ARG1,a2(ARG1,ARG0))),a2(ARG0,ARG2)),a2(a2(ARG2,a2(ARG2,ARG1)),a2(a2(a2(a2(ARG0,ARG2),ARG2),a2(ARG1,ARG0)),a2(a2(ARG2,a2(ARG0,ARG2)),a2(ARG0,ARG1)))))'
p910
sS'tree_len'
p911
I37
sS'archive_size'
p912
I144
sS'number_of_operators'
p913
I18
sS'alg_name'
p914
S'small-LTI'
p915
sS'archive_tree_deapth'
p916
I2
sS'logbook'
p917
g12
(g13
g14
(lp918
(dp919
S'status'
p920
NsS'iteration'
p921
I0
sS'count_wrongs'
p922
I6
sS'picked_node'
p923
NsS'len_master_tree'
p924
I1
sS'total_wrongs'
p925
I6
sa(dp926
g920
S'worst'
p927
sg921
I1
sg922
I7
sg923
I0
sg924
I5
sg925
I30
sa(dp928
g920
S'better'
p929
sg921
I2
sg922
I6
sg923
I2
sg924
I9
sg925
I25
sa(dp930
g920
g929
sg921
I3
sg922
I6
sg923
I8
sg924
I13
sg925
I26
sa(dp931
g920
S'perfect'
p932
sg921
I4
sg922
I6
sg923
I11
sg924
I17
sg925
I25
sa(dp933
g920
g929
sg921
I5
sg922
I6
sg923
I5
sg924
I17
sg925
I25
sa(dp934
g920
g929
sg921
I6
sg922
I4
sg923
I4
sg924
I21
sg925
I26
sa(dp935
g920
g932
sg921
I7
sg922
I4
sg923
I10
sg924
I17
sg925
I22
sa(dp936
g920
g932
sg921
I8
sg922
I4
sg923
I12
sg924
I21
sg925
I21
sa(dp937
g920
g932
sg921
I9
sg922
I4
sg923
I9
sg924
I25
sg925
I19
sa(dp938
g920
g927
sg921
I10
sg922
I6
sg923
I2
sg924
I9
sg925
I25
sa(dp939
g920
g929
sg921
I11
sg922
I5
sg923
I8
sg924
I13
sg925
I20
sa(dp940
g920
g929
sg921
I12
sg922
I4
sg923
I1
sg924
I19
sg925
I25
sa(dp941
g920
g929
sg921
I13
sg922
I3
sg923
I14
sg924
I25
sg925
I22
sa(dp942
g920
g932
sg921
I14
sg922
I3
sg923
I23
sg924
I27
sg925
I19
sa(dp943
g920
g932
sg921
I15
sg922
I1
sg923
I15
sg924
I29
sg925
I7
sa(dp944
g920
g927
sg921
I16
sg922
I2
sg923
I14
sg924
I33
sg925
I31
sa(dp945
g920
g932
sg921
I17
sg922
I1
sg923
I29
sg924
I37
sg925
I16
sa(dp946
g920
g932
sg921
I18
sg922
I0
sg923
I30
sg924
I37
sg925
I0
satRp947
(dp948
g50
I01
sg51
(lp949
g921
ag924
ag922
ag925
ag923
ag920
asg53
Nsg54
I0
sg55
g56
(g13
tRp950
sbsS'max_archive_size'
p951
NsS'solution_found_flag'
p952
I01
sS'time_taken'
p953
F0.8298649787902832
sS'benchmark_name'
p954
S'M_A2'
p955
sa(dp956
S'tree_str'
p957
S'a2(a2(a2(ARG0,ARG0),a2(ARG1,a2(ARG1,a2(a2(a2(ARG0,ARG2),ARG2),ARG2)))),a2(a2(a2(a2(a2(ARG1,ARG2),ARG1),ARG2),a2(ARG0,a2(ARG0,a2(ARG2,ARG0)))),a2(a2(a2(ARG1,a2(ARG0,ARG1)),a2(ARG1,ARG0)),a2(ARG0,ARG2))))'
p958
sS'tree_len'
p959
I45
sS'archive_size'
p960
I144
sS'number_of_operators'
p961
I22
sS'alg_name'
p962
S'small-LTI'
p963
sS'archive_tree_deapth'
p964
I2
sS'logbook'
p965
g12
(g13
g14
(lp966
(dp967
S'status'
p968
NsS'iteration'
p969
I0
sS'count_wrongs'
p970
I6
sS'picked_node'
p971
NsS'len_master_tree'
p972
I1
sS'total_wrongs'
p973
I6
sa(dp974
g968
S'worst'
p975
sg969
I1
sg970
I7
sg971
I0
sg972
I5
sg973
I25
sa(dp976
g968
S'better'
p977
sg969
I2
sg970
I4
sg971
I1
sg972
I9
sg973
I24
sa(dp978
g968
g977
sg969
I3
sg970
I5
sg971
I2
sg972
I13
sg973
I40
sa(dp979
g968
g977
sg969
I4
sg970
I3
sg971
I11
sg972
I17
sg973
I25
sa(dp980
g968
S'perfect'
p981
sg969
I5
sg970
I3
sg971
I9
sg972
I21
sg973
I14
sa(dp982
g968
g975
sg969
I6
sg970
I3
sg971
I7
sg972
I25
sg973
I20
sa(dp983
g968
g981
sg969
I7
sg970
I2
sg971
I23
sg972
I29
sg973
I8
sa(dp984
g968
g981
sg969
I8
sg970
I1
sg971
I2
sg972
I33
sg973
I5
sa(dp985
g968
g975
sg969
I9
sg970
I3
sg971
I2
sg972
I25
sg973
I20
sa(dp986
g968
g981
sg969
I10
sg970
I2
sg971
I16
sg972
I31
sg973
I11
sa(dp987
g968
g975
sg969
I11
sg970
I2
sg971
I23
sg972
I35
sg973
I29
sa(dp988
g968
g981
sg969
I12
sg970
I1
sg971
I29
sg972
I37
sg973
I8
sa(dp989
g968
g981
sg969
I13
sg970
I1
sg971
I32
sg972
I41
sg973
I5
sa(dp990
g968
g975
sg969
I14
sg970
I2
sg971
I20
sg972
I43
sg973
I66
sa(dp991
g968
g981
sg969
I15
sg970
I0
sg971
I14
sg972
I45
sg973
I0
satRp992
(dp993
g50
I01
sg51
(lp994
g969
ag972
ag970
ag973
ag971
ag968
asg53
Nsg54
I0
sg55
g56
(g13
tRp995
sbsS'max_archive_size'
p996
NsS'solution_found_flag'
p997
I01
sS'time_taken'
p998
F0.5018160343170166
sS'benchmark_name'
p999
S'M_A2'
p1000
sa(dp1001
S'tree_str'
p1002
S'a2(a2(a2(ARG0,a2(ARG2,a2(ARG0,a2(a2(a2(ARG0,ARG1),ARG1),ARG0)))),a2(ARG1,ARG2)),a2(a2(ARG0,a2(ARG0,ARG0)),a2(a2(a2(ARG1,ARG2),a2(ARG1,ARG0)),a2(ARG1,ARG2))))'
p1003
sS'tree_len'
p1004
I35
sS'archive_size'
p1005
I144
sS'number_of_operators'
p1006
I17
sS'alg_name'
p1007
S'small-LTI'
p1008
sS'archive_tree_deapth'
p1009
I2
sS'logbook'
p1010
g12
(g13
g14
(lp1011
(dp1012
S'status'
p1013
NsS'iteration'
p1014
I0
sS'count_wrongs'
p1015
I6
sS'picked_node'
p1016
NsS'len_master_tree'
p1017
I1
sS'total_wrongs'
p1018
I6
sa(dp1019
g1013
S'worst'
p1020
sg1014
I1
sg1015
I7
sg1016
I0
sg1017
I5
sg1018
I25
sa(dp1021
g1013
S'better'
p1022
sg1014
I2
sg1015
I4
sg1016
I1
sg1017
I9
sg1018
I24
sa(dp1023
g1013
g1022
sg1014
I3
sg1015
I5
sg1016
I2
sg1017
I13
sg1018
I39
sa(dp1024
g1013
g1022
sg1014
I4
sg1015
I2
sg1016
I4
sg1017
I17
sg1018
I24
sa(dp1025
g1013
S'perfect'
p1026
sg1014
I5
sg1015
I2
sg1016
I16
sg1017
I21
sg1018
I15
sa(dp1027
g1013
g1020
sg1014
I6
sg1015
I4
sg1016
I8
sg1017
I25
sg1018
I55
sa(dp1028
g1013
g1026
sg1014
I7
sg1015
I3
sg1016
I24
sg1017
I29
sg1018
I30
sa(dp1029
g1013
g1026
sg1014
I8
sg1015
I2
sg1016
I18
sg1017
I33
sg1018
I10
sa(dp1030
g1013
g1026
sg1014
I9
sg1015
I2
sg1016
I9
sg1017
I37
sg1018
I9
sa(dp1031
g1013
g1020
sg1014
I10
sg1015
I2
sg1016
I7
sg1017
I25
sg1018
I13
sa(dp1032
g1013
g1026
sg1014
I11
sg1015
I2
sg1016
I24
sg1017
I29
sg1018
I8
sa(dp1033
g1013
g1020
sg1014
I12
sg1015
I2
sg1016
I20
sg1017
I25
sg1018
I15
sa(dp1034
g1013
g1022
sg1014
I13
sg1015
I2
sg1016
I20
sg1017
I25
sg1018
I10
sa(dp1035
g1013
g1026
sg1014
I14
sg1015
I1
sg1016
I24
sg1017
I29
sg1018
I3
sa(dp1036
g1013
g1020
sg1014
I15
sg1015
I2
sg1016
I2
sg1017
I33
sg1018
I21
sa(dp1037
g1013
g1026
sg1014
I16
sg1015
I1
sg1016
I23
sg1017
I33
sg1018
I7
sa(dp1038
g1013
g1020
sg1014
I17
sg1015
I2
sg1016
I23
sg1017
I33
sg1018
I18
sa(dp1039
g1013
g1026
sg1014
I18
sg1015
I2
sg1016
I23
sg1017
I29
sg1018
I15
sa(dp1040
g1013
g1026
sg1014
I19
sg1015
I0
sg1016
I24
sg1017
I35
sg1018
I0
satRp1041
(dp1042
g50
I01
sg51
(lp1043
g1014
ag1017
ag1015
ag1018
ag1016
ag1013
asg53
Nsg54
I0
sg55
g56
(g13
tRp1044
sbsS'max_archive_size'
p1045
NsS'solution_found_flag'
p1046
I01
sS'time_taken'
p1047
F0.93723607063293457
sS'benchmark_name'
p1048
S'M_A2'
p1049
sa(dp1050
S'tree_str'
p1051
S'a2(a2(a2(ARG0,ARG2),a2(a2(a2(ARG0,ARG0),ARG0),a2(ARG1,a2(ARG1,ARG0)))),a2(a2(a2(ARG2,a2(ARG0,ARG2)),a2(a2(ARG1,a2(ARG1,a2(ARG0,ARG1))),a2(ARG1,ARG0))),a2(ARG2,a2(ARG2,ARG0))))'
p1052
sS'tree_len'
p1053
I39
sS'archive_size'
p1054
I144
sS'number_of_operators'
p1055
I19
sS'alg_name'
p1056
S'small-LTI'
p1057
sS'archive_tree_deapth'
p1058
I2
sS'logbook'
p1059
g12
(g13
g14
(lp1060
(dp1061
S'status'
p1062
NsS'iteration'
p1063
I0
sS'count_wrongs'
p1064
I6
sS'picked_node'
p1065
NsS'len_master_tree'
p1066
I1
sS'total_wrongs'
p1067
I6
sa(dp1068
g1062
S'worst'
p1069
sg1063
I1
sg1064
I7
sg1065
I0
sg1066
I5
sg1067
I25
sa(dp1070
g1062
S'better'
p1071
sg1063
I2
sg1064
I4
sg1065
I1
sg1066
I9
sg1067
I24
sa(dp1072
g1062
g1071
sg1063
I3
sg1064
I5
sg1065
I2
sg1066
I13
sg1067
I39
sa(dp1073
g1062
g1071
sg1063
I4
sg1064
I4
sg1065
I4
sg1066
I15
sg1067
I43
sa(dp1074
g1062
g1071
sg1063
I5
sg1064
I3
sg1065
I10
sg1066
I17
sg1067
I17
sa(dp1075
g1062
S'perfect'
p1076
sg1063
I6
sg1064
I2
sg1065
I16
sg1066
I23
sg1067
I9
sa(dp1077
g1062
g1069
sg1063
I7
sg1064
I3
sg1065
I9
sg1066
I17
sg1067
I17
sa(dp1078
g1062
g1069
sg1063
I8
sg1064
I4
sg1065
I14
sg1066
I17
sg1067
I34
sa(dp1079
g1062
g1076
sg1063
I9
sg1064
I3
sg1065
I15
sg1066
I17
sg1067
I17
sa(dp1080
g1062
g1076
sg1063
I10
sg1064
I2
sg1065
I15
sg1066
I23
sg1067
I9
sa(dp1081
g1062
g1069
sg1063
I11
sg1064
I3
sg1065
I12
sg1066
I17
sg1067
I17
sa(dp1082
g1062
g1069
sg1063
I12
sg1064
I4
sg1065
I14
sg1066
I17
sg1067
I31
sa(dp1083
g1062
g1076
sg1063
I13
sg1064
I2
sg1065
I16
sg1066
I23
sg1067
I9
sa(dp1084
g1062
g1069
sg1063
I14
sg1064
I3
sg1065
I12
sg1066
I19
sg1067
I25
sa(dp1085
g1062
g1071
sg1063
I15
sg1064
I2
sg1065
I8
sg1066
I23
sg1067
I23
sa(dp1086
g1062
g1076
sg1063
I16
sg1064
I1
sg1065
I17
sg1066
I27
sg1067
I3
sa(dp1087
g1062
g1069
sg1063
I17
sg1064
I2
sg1065
I2
sg1066
I31
sg1067
I17
sa(dp1088
g1062
g1071
sg1063
I18
sg1064
I1
sg1065
I26
sg1066
I27
sg1067
I3
sa(dp1089
g1062
g1069
sg1063
I19
sg1064
I2
sg1065
I26
sg1066
I31
sg1067
I17
sa(dp1090
g1062
g1071
sg1063
I20
sg1064
I1
sg1065
I26
sg1066
I31
sg1067
I10
sa(dp1091
g1062
g1069
sg1063
I21
sg1064
I3
sg1065
I5
sg1066
I31
sg1067
I44
sa(dp1092
g1062
g1076
sg1063
I22
sg1064
I3
sg1065
I10
sg1066
I31
sg1067
I26
sa(dp1093
g1062
g1071
sg1063
I23
sg1064
I1
sg1065
I3
sg1066
I31
sg1067
I10
sa(dp1094
g1062
g1069
sg1063
I24
sg1064
I2
sg1065
I2
sg1066
I31
sg1067
I17
sa(dp1095
g1062
g1076
sg1063
I25
sg1064
I1
sg1065
I27
sg1066
I35
sg1067
I7
sa(dp1096
g1062
g1076
sg1063
I26
sg1064
I0
sg1065
I26
sg1066
I39
sg1067
I0
satRp1097
(dp1098
g50
I01
sg51
(lp1099
g1063
ag1066
ag1064
ag1067
ag1065
ag1062
asg53
Nsg54
I0
sg55
g56
(g13
tRp1100
sbsS'max_archive_size'
p1101
NsS'solution_found_flag'
p1102
I01
sS'time_taken'
p1103
F1.0436549186706543
sS'benchmark_name'
p1104
S'M_A2'
p1105
sa(dp1106
S'tree_str'
p1107
S'a2(a2(a2(ARG0,a2(ARG2,a2(ARG0,a2(ARG0,a2(a2(a2(ARG1,ARG2),ARG2),ARG2))))),a2(a2(a2(ARG1,ARG1),ARG1),a2(a2(ARG0,ARG2),a2(ARG2,ARG1)))),a2(a2(a2(ARG2,a2(a2(a2(ARG0,ARG0),ARG1),a2(a2(ARG0,ARG0),ARG0))),a2(a2(ARG1,a2(ARG2,ARG2)),a2(ARG1,ARG1))),a2(ARG0,a2(ARG0,ARG2))))'
p1108
sS'tree_len'
p1109
I59
sS'archive_size'
p1110
I144
sS'number_of_operators'
p1111
I29
sS'alg_name'
p1112
S'small-LTI'
p1113
sS'archive_tree_deapth'
p1114
I2
sS'logbook'
p1115
g12
(g13
g14
(lp1116
(dp1117
S'status'
p1118
NsS'iteration'
p1119
I0
sS'count_wrongs'
p1120
I6
sS'picked_node'
p1121
NsS'len_master_tree'
p1122
I1
sS'total_wrongs'
p1123
I6
sa(dp1124
g1118
S'worst'
p1125
sg1119
I1
sg1120
I7
sg1121
I0
sg1122
I5
sg1123
I25
sa(dp1126
g1118
S'better'
p1127
sg1119
I2
sg1120
I4
sg1121
I1
sg1122
I9
sg1123
I24
sa(dp1128
g1118
g1127
sg1119
I3
sg1120
I5
sg1121
I2
sg1122
I13
sg1123
I37
sa(dp1129
g1118
g1127
sg1119
I4
sg1120
I2
sg1121
I4
sg1122
I17
sg1123
I22
sa(dp1130
g1118
S'perfect'
p1131
sg1119
I5
sg1120
I2
sg1121
I16
sg1122
I21
sg1123
I13
sa(dp1132
g1118
g1131
sg1119
I6
sg1120
I2
sg1121
I10
sg1122
I25
sg1123
I8
sa(dp1133
g1118
g1125
sg1119
I7
sg1120
I2
sg1121
I7
sg1122
I21
sg1123
I15
sa(dp1134
g1118
g1125
sg1119
I8
sg1120
I3
sg1121
I17
sg1122
I25
sg1123
I41
sa(dp1135
g1118
g1131
sg1119
I9
sg1120
I2
sg1121
I15
sg1122
I29
sg1123
I19
sa(dp1136
g1118
g1131
sg1119
I10
sg1120
I2
sg1121
I23
sg1122
I33
sg1123
I10
sa(dp1137
g1118
g1125
sg1119
I11
sg1120
I2
sg1121
I15
sg1122
I25
sg1123
I13
sa(dp1138
g1118
g1131
sg1119
I12
sg1120
I2
sg1121
I23
sg1122
I29
sg1123
I8
sa(dp1139
g1118
g1125
sg1119
I13
sg1120
I2
sg1121
I20
sg1122
I25
sg1123
I15
sa(dp1140
g1118
g1125
sg1119
I14
sg1120
I4
sg1121
I21
sg1122
I29
sg1123
I59
sa(dp1141
g1118
g1131
sg1119
I15
sg1120
I3
sg1121
I18
sg1122
I33
sg1123
I30
sa(dp1142
g1118
g1131
sg1119
I16
sg1120
I2
sg1121
I24
sg1122
I37
sg1123
I10
sa(dp1143
g1118
g1131
sg1119
I17
sg1120
I2
sg1121
I21
sg1122
I41
sg1123
I9
sa(dp1144
g1118
g1125
sg1119
I18
sg1120
I3
sg1121
I20
sg1122
I41
sg1123
I50
sa(dp1145
g1118
g1131
sg1119
I19
sg1120
I2
sg1121
I17
sg1122
I39
sg1123
I13
sa(dp1146
g1118
g1131
sg1119
I20
sg1120
I2
sg1121
I33
sg1122
I43
sg1123
I11
sa(dp1147
g1118
g1131
sg1119
I21
sg1120
I1
sg1121
I30
sg1122
I47
sg1123
I3
sa(dp1148
g1118
g1125
sg1119
I22
sg1120
I3
sg1121
I1
sg1122
I25
sg1123
I17
sa(dp1149
g1118
g1127
sg1119
I23
sg1120
I3
sg1121
I23
sg1122
I29
sg1123
I22
sa(dp1150
g1118
g1125
sg1119
I24
sg1120
I3
sg1121
I24
sg1122
I25
sg1123
I17
sa(dp1151
g1118
g1127
sg1119
I25
sg1120
I3
sg1121
I24
sg1122
I29
sg1123
I22
sa(dp1152
g1118
g1125
sg1119
I26
sg1120
I3
sg1121
I24
sg1122
I29
sg1123
I25
sa(dp1153
g1118
g1127
sg1119
I27
sg1120
I3
sg1121
I27
sg1122
I33
sg1123
I26
sa(dp1154
g1118
g1131
sg1119
I28
sg1120
I2
sg1121
I27
sg1122
I37
sg1123
I8
sa(dp1155
g1118
g1125
sg1119
I29
sg1120
I3
sg1121
I23
sg1122
I41
sg1123
I46
sa(dp1156
g1118
g1131
sg1119
I30
sg1120
I3
sg1121
I15
sg1122
I41
sg1123
I40
sa(dp1157
g1118
g1131
sg1119
I31
sg1120
I1
sg1121
I32
sg1122
I45
sg1123
I3
sa(dp1158
g1118
g1125
sg1119
I32
sg1120
I2
sg1121
I16
sg1122
I49
sg1123
I25
sa(dp1159
g1118
g1131
sg1119
I33
sg1120
I1
sg1121
I33
sg1122
I49
sg1123
I7
sa(dp1160
g1118
g1125
sg1119
I34
sg1120
I2
sg1121
I43
sg1122
I49
sg1123
I21
sa(dp1161
g1118
g1131
sg1119
I35
sg1120
I2
sg1121
I4
sg1122
I55
sg1123
I21
sa(dp1162
g1118
g1131
sg1119
I36
sg1120
I1
sg1121
I3
sg1122
I59
sg1123
I7
sa(dp1163
g1118
g1131
sg1119
I37
sg1120
I0
sg1121
I42
sg1122
I59
sg1123
I0
satRp1164
(dp1165
g50
I01
sg51
(lp1166
g1119
ag1122
ag1120
ag1123
ag1121
ag1118
asg53
Nsg54
I0
sg55
g56
(g13
tRp1167
sbsS'max_archive_size'
p1168
NsS'solution_found_flag'
p1169
I01
sS'time_taken'
p1170
F1.2771780490875244
sS'benchmark_name'
p1171
S'M_A2'
p1172
sa(dp1173
S'tree_str'
p1174
S'a2(a2(a2(a2(ARG1,a2(a2(ARG2,ARG1),a2(ARG0,ARG0))),ARG0),a2(ARG2,ARG2)),a2(a2(a2(a2(a2(ARG2,ARG2),ARG1),a2(ARG0,a2(ARG0,ARG0))),a2(a2(a2(a2(ARG0,ARG1),ARG2),a2(ARG2,ARG2)),a2(ARG2,ARG1))),a2(a2(a2(ARG1,ARG2),a2(ARG1,ARG0)),a2(ARG1,ARG2))))'
p1175
sS'tree_len'
p1176
I53
sS'archive_size'
p1177
I144
sS'number_of_operators'
p1178
I26
sS'alg_name'
p1179
S'small-LTI'
p1180
sS'archive_tree_deapth'
p1181
I2
sS'logbook'
p1182
g12
(g13
g14
(lp1183
(dp1184
S'status'
p1185
NsS'iteration'
p1186
I0
sS'count_wrongs'
p1187
I6
sS'picked_node'
p1188
NsS'len_master_tree'
p1189
I1
sS'total_wrongs'
p1190
I6
sa(dp1191
g1185
S'worst'
p1192
sg1186
I1
sg1187
I7
sg1188
I0
sg1189
I5
sg1190
I25
sa(dp1193
g1185
S'better'
p1194
sg1186
I2
sg1187
I4
sg1188
I1
sg1189
I9
sg1190
I24
sa(dp1195
g1185
g1194
sg1186
I3
sg1187
I5
sg1188
I2
sg1189
I13
sg1190
I31
sa(dp1196
g1185
S'perfect'
p1197
sg1186
I4
sg1187
I4
sg1188
I11
sg1189
I17
sg1190
I19
sa(dp1198
g1185
g1192
sg1186
I5
sg1187
I4
sg1188
I7
sg1189
I21
sg1190
I25
sa(dp1199
g1185
g1197
sg1186
I6
sg1187
I3
sg1188
I19
sg1189
I25
sg1190
I13
sa(dp1200
g1185
g1192
sg1186
I7
sg1187
I4
sg1188
I3
sg1189
I17
sg1190
I19
sa(dp1201
g1185
g1192
sg1186
I8
sg1187
I4
sg1188
I16
sg1189
I21
sg1190
I25
sa(dp1202
g1185
g1194
sg1186
I9
sg1187
I4
sg1188
I16
sg1189
I17
sg1190
I19
sa(dp1203
g1185
g1192
sg1186
I10
sg1187
I5
sg1188
I4
sg1189
I21
sg1190
I40
sa(dp1204
g1185
g1197
sg1186
I11
sg1187
I4
sg1188
I5
sg1189
I25
sg1190
I22
sa(dp1205
g1185
g1197
sg1186
I12
sg1187
I3
sg1188
I16
sg1189
I29
sg1190
I14
sa(dp1206
g1185
g1192
sg1186
I13
sg1187
I4
sg1188
I2
sg1189
I33
sg1190
I43
sa(dp1207
g1185
g1197
sg1186
I14
sg1187
I3
sg1188
I23
sg1189
I33
sg1190
I18
sa(dp1208
g1185
g1192
sg1186
I15
sg1187
I4
sg1188
I23
sg1189
I33
sg1190
I27
sa(dp1209
g1185
g1197
sg1186
I16
sg1187
I2
sg1188
I29
sg1189
I39
sg1190
I11
sa(dp1210
g1185
g1192
sg1186
I17
sg1187
I2
sg1188
I13
sg1189
I43
sg1190
I17
sa(dp1211
g1185
g1197
sg1186
I18
sg1187
I1
sg1188
I41
sg1189
I47
sg1190
I5
sa(dp1212
g1185
g1192
sg1186
I19
sg1187
I2
sg1188
I11
sg1189
I39
sg1190
I11
sa(dp1213
g1185
g1192
sg1186
I20
sg1187
I2
sg1188
I38
sg1189
I43
sg1190
I17
sa(dp1214
g1185
g1194
sg1186
I21
sg1187
I2
sg1188
I38
sg1189
I39
sg1190
I11
sa(dp1215
g1185
g1192
sg1186
I22
sg1187
I2
sg1188
I38
sg1189
I45
sg1190
I23
sa(dp1216
g1185
g1197
sg1186
I23
sg1187
I2
sg1188
I42
sg1189
I43
sg1190
I17
sa(dp1217
g1185
g1197
sg1186
I24
sg1187
I1
sg1188
I40
sg1189
I47
sg1190
I5
sa(dp1218
g1185
g1192
sg1186
I25
sg1187
I2
sg1188
I36
sg1189
I39
sg1190
I11
sa(dp1219
g1185
g1192
sg1186
I26
sg1187
I4
sg1188
I38
sg1189
I39
sg1190
I44
sa(dp1220
g1185
g1197
sg1186
I27
sg1187
I4
sg1188
I21
sg1189
I43
sg1190
I23
sa(dp1221
g1185
g1194
sg1186
I28
sg1187
I2
sg1188
I37
sg1189
I43
sg1190
I11
sa(dp1222
g1185
g1192
sg1186
I29
sg1187
I2
sg1188
I42
sg1189
I47
sg1190
I17
sa(dp1223
g1185
g1197
sg1186
I30
sg1187
I1
sg1188
I45
sg1189
I51
sg1190
I5
sa(dp1224
g1185
g1192
sg1186
I31
sg1187
I2
sg1188
I35
sg1189
I43
sg1190
I11
sa(dp1225
g1185
g1192
sg1186
I32
sg1187
I2
sg1188
I42
sg1189
I49
sg1190
I23
sa(dp1226
g1185
g1197
sg1186
I33
sg1187
I2
sg1188
I46
sg1189
I47
sg1190
I17
sa(dp1227
g1185
g1197
sg1186
I34
sg1187
I1
sg1188
I44
sg1189
I51
sg1190
I5
sa(dp1228
g1185
g1192
sg1186
I35
sg1187
I2
sg1188
I40
sg1189
I43
sg1190
I11
sa(dp1229
g1185
g1192
sg1186
I36
sg1187
I3
sg1188
I9
sg1189
I43
sg1190
I17
sa(dp1230
g1185
g1194
sg1186
I37
sg1187
I2
sg1188
I38
sg1189
I43
sg1190
I11
sa(dp1231
g1185
g1192
sg1186
I38
sg1187
I3
sg1188
I38
sg1189
I43
sg1190
I17
sa(dp1232
g1185
g1194
sg1186
I39
sg1187
I2
sg1188
I39
sg1189
I47
sg1190
I18
sa(dp1233
g1185
g1197
sg1186
I40
sg1187
I0
sg1188
I46
sg1189
I53
sg1190
I0
satRp1234
(dp1235
g50
I01
sg51
(lp1236
g1186
ag1189
ag1187
ag1190
ag1188
ag1185
asg53
Nsg54
I0
sg55
g56
(g13
tRp1237
sbsS'max_archive_size'
p1238
NsS'solution_found_flag'
p1239
I01
sS'time_taken'
p1240
F1.1354138851165771
sS'benchmark_name'
p1241
S'M_A2'
p1242
sa(dp1243
S'tree_str'
p1244
S'a2(a2(a2(ARG2,a2(ARG0,a2(ARG0,a2(a2(ARG0,ARG0),ARG0)))),a2(a2(a2(a2(ARG2,ARG2),ARG0),ARG2),a2(a2(ARG2,ARG0),a2(a2(ARG2,ARG2),ARG1)))),a2(a2(ARG2,a2(ARG2,ARG2)),a2(a2(a2(a2(a2(ARG1,ARG1),ARG1),ARG2),a2(a2(a2(ARG1,ARG0),ARG0),ARG0)),ARG1)))'
p1245
sS'tree_len'
p1246
I53
sS'archive_size'
p1247
I144
sS'number_of_operators'
p1248
I26
sS'alg_name'
p1249
S'small-LTI'
p1250
sS'archive_tree_deapth'
p1251
I2
sS'logbook'
p1252
g12
(g13
g14
(lp1253
(dp1254
S'status'
p1255
NsS'iteration'
p1256
I0
sS'count_wrongs'
p1257
I6
sS'picked_node'
p1258
NsS'len_master_tree'
p1259
I1
sS'total_wrongs'
p1260
I6
sa(dp1261
g1255
S'worst'
p1262
sg1256
I1
sg1257
I7
sg1258
I0
sg1259
I5
sg1260
I30
sa(dp1263
g1255
S'better'
p1264
sg1256
I2
sg1257
I6
sg1258
I2
sg1259
I9
sg1260
I25
sa(dp1265
g1255
g1264
sg1256
I3
sg1257
I6
sg1258
I8
sg1259
I13
sg1260
I26
sa(dp1266
g1255
S'perfect'
p1267
sg1256
I4
sg1257
I6
sg1258
I11
sg1259
I17
sg1260
I25
sa(dp1268
g1255
g1264
sg1256
I5
sg1257
I6
sg1258
I5
sg1259
I17
sg1260
I25
sa(dp1269
g1255
g1264
sg1256
I6
sg1257
I4
sg1258
I4
sg1259
I21
sg1260
I26
sa(dp1270
g1255
g1267
sg1256
I7
sg1257
I4
sg1258
I10
sg1259
I17
sg1260
I22
sa(dp1271
g1255
g1267
sg1256
I8
sg1257
I4
sg1258
I15
sg1259
I21
sg1260
I19
sa(dp1272
g1255
g1262
sg1256
I9
sg1257
I6
sg1258
I2
sg1259
I9
sg1260
I25
sa(dp1273
g1255
g1264
sg1256
I10
sg1257
I6
sg1258
I8
sg1259
I13
sg1260
I26
sa(dp1274
g1255
g1267
sg1256
I11
sg1257
I6
sg1258
I11
sg1259
I17
sg1260
I25
sa(dp1275
g1255
g1264
sg1256
I12
sg1257
I5
sg1258
I5
sg1259
I21
sg1260
I15
sa(dp1276
g1255
g1267
sg1256
I13
sg1257
I5
sg1258
I17
sg1259
I25
sg1260
I13
sa(dp1277
g1255
g1264
sg1256
I14
sg1257
I4
sg1258
I1
sg1259
I31
sg1260
I42
sa(dp1278
g1255
g1267
sg1256
I15
sg1257
I4
sg1258
I15
sg1259
I29
sg1260
I39
sa(dp1279
g1255
g1267
sg1256
I16
sg1257
I4
sg1258
I10
sg1259
I29
sg1260
I34
sa(dp1280
g1255
g1267
sg1256
I17
sg1257
I3
sg1258
I3
sg1259
I33
sg1260
I21
sa(dp1281
g1255
g1264
sg1256
I18
sg1257
I3
sg1258
I11
sg1259
I39
sg1260
I22
sa(dp1282
g1255
g1267
sg1256
I19
sg1257
I3
sg1258
I34
sg1259
I41
sg1260
I20
sa(dp1283
g1255
g1267
sg1256
I20
sg1257
I2
sg1258
I37
sg1259
I47
sg1260
I12
sa(dp1284
g1255
g1262
sg1256
I21
sg1257
I3
sg1258
I10
sg1259
I33
sg1260
I21
sa(dp1285
g1255
g1264
sg1256
I22
sg1257
I3
sg1258
I31
sg1259
I39
sg1260
I22
sa(dp1286
g1255
g1267
sg1256
I23
sg1257
I3
sg1258
I33
sg1259
I41
sg1260
I20
sa(dp1287
g1255
g1267
sg1256
I24
sg1257
I2
sg1258
I35
sg1259
I47
sg1260
I12
sa(dp1288
g1255
g1262
sg1256
I25
sg1257
I3
sg1258
I30
sg1259
I33
sg1260
I21
sa(dp1289
g1255
g1264
sg1256
I26
sg1257
I3
sg1258
I10
sg1259
I35
sg1260
I22
sa(dp1290
g1255
g1267
sg1256
I27
sg1257
I2
sg1258
I31
sg1259
I39
sg1260
I14
sa(dp1291
g1255
g1262
sg1256
I28
sg1257
I3
sg1258
I30
sg1259
I35
sg1260
I22
sa(dp1292
g1255
g1264
sg1256
I29
sg1257
I2
sg1258
I28
sg1259
I41
sg1260
I47
sa(dp1293
g1255
g1267
sg1256
I30
sg1257
I2
sg1258
I12
sg1259
I43
sg1260
I49
sa(dp1294
g1255
g1267
sg1256
I31
sg1257
I1
sg1258
I23
sg1259
I45
sg1260
I10
sa(dp1295
g1255
g1262
sg1256
I32
sg1257
I2
sg1258
I30
sg1259
I45
sg1260
I43
sa(dp1296
g1255
g1267
sg1256
I33
sg1257
I1
sg1258
I16
sg1259
I41
sg1260
I10
sa(dp1297
g1255
g1267
sg1256
I34
sg1257
I1
sg1258
I38
sg1259
I45
sg1260
I7
sa(dp1298
g1255
g1262
sg1256
I35
sg1257
I2
sg1258
I33
sg1259
I41
sg1260
I21
sa(dp1299
g1255
g1267
sg1256
I36
sg1257
I1
sg1258
I39
sg1259
I45
sg1260
I7
sa(dp1300
g1255
g1262
sg1256
I37
sg1257
I2
sg1258
I34
sg1259
I41
sg1260
I21
sa(dp1301
g1255
g1267
sg1256
I38
sg1257
I1
sg1258
I39
sg1259
I45
sg1260
I7
sa(dp1302
g1255
g1262
sg1256
I39
sg1257
I2
sg1258
I34
sg1259
I41
sg1260
I44
sa(dp1303
g1255
g1267
sg1256
I40
sg1257
I2
sg1258
I25
sg1259
I41
sg1260
I41
sa(dp1304
g1255
g1267
sg1256
I41
sg1257
I1
sg1258
I36
sg1259
I45
sg1260
I7
sa(dp1305
g1255
g1262
sg1256
I42
sg1257
I2
sg1258
I31
sg1259
I41
sg1260
I41
sa(dp1306
g1255
g1267
sg1256
I43
sg1257
I2
sg1258
I8
sg1259
I45
sg1260
I39
sa(dp1307
g1255
g1267
sg1256
I44
sg1257
I1
sg1258
I38
sg1259
I49
sg1260
I7
sa(dp1308
g1255
g1262
sg1256
I45
sg1257
I2
sg1258
I33
sg1259
I45
sg1260
I45
sa(dp1309
g1255
g1267
sg1256
I46
sg1257
I1
sg1258
I39
sg1259
I49
sg1260
I8
sa(dp1310
g1255
g1262
sg1256
I47
sg1257
I2
sg1258
I38
sg1259
I45
sg1260
I21
sa(dp1311
g1255
g1267
sg1256
I48
sg1257
I1
sg1258
I43
sg1259
I49
sg1260
I7
sa(dp1312
g1255
g1262
sg1256
I49
sg1257
I2
sg1258
I38
sg1259
I45
sg1260
I45
sa(dp1313
g1255
g1267
sg1256
I50
sg1257
I1
sg1258
I37
sg1259
I45
sg1260
I10
sa(dp1314
g1255
g1267
sg1256
I51
sg1257
I1
sg1258
I42
sg1259
I49
sg1260
I7
sa(dp1315
g1255
g1267
sg1256
I52
sg1257
I0
sg1258
I39
sg1259
I53
sg1260
I0
satRp1316
(dp1317
g50
I01
sg51
(lp1318
g1256
ag1259
ag1257
ag1260
ag1258
ag1255
asg53
Nsg54
I0
sg55
g56
(g13
tRp1319
sbsS'max_archive_size'
p1320
NsS'solution_found_flag'
p1321
I01
sS'time_taken'
p1322
F1.2021181583404541
sS'benchmark_name'
p1323
S'M_A2'
p1324
sa.