(lp1
(dp2
S'tree_str'
p3
S'a3(a3(a3(ARG2,a3(ARG0,ARG0)),a3(ARG0,a3(ARG1,a3(ARG2,ARG0)))),a3(a3(a3(a3(ARG1,a3(ARG2,ARG2)),a3(a3(a3(ARG0,ARG2),a3(ARG2,ARG0)),ARG0)),ARG0),a3(ARG2,a3(ARG1,ARG2))))'
p4
sS'tree_len'
p5
I37
sS'archive_size'
p6
I145
sS'number_of_operators'
p7
I18
sS'alg_name'
p8
S'small-LTI'
p9
sS'archive_tree_deapth'
p10
I2
sS'logbook'
p11
ccopy_reg
_reconstructor
p12
(ctreeimprove.utilities
Logbook
p13
c__builtin__
list
p14
(lp15
(dp16
S'status'
p17
NsS'iteration'
p18
I0
sS'count_wrongs'
p19
I6
sS'picked_node'
p20
NsS'len_master_tree'
p21
I1
sS'total_wrongs'
p22
I6
sa(dp23
g17
S'worst'
p24
sg18
I1
sg19
I8
sg20
I0
sg21
I5
sg22
I34
sa(dp25
g17
S'better'
p26
sg18
I2
sg19
I8
sg20
I3
sg21
I9
sg22
I34
sa(dp27
g17
g26
sg18
I3
sg19
I8
sg20
I8
sg21
I9
sg22
I33
sa(dp28
g17
S'perfect'
p29
sg18
I4
sg19
I7
sg20
I7
sg21
I13
sg22
I18
sa(dp30
g17
g26
sg18
I5
sg19
I6
sg20
I0
sg21
I1
sg22
I6
sa(dp31
g17
g24
sg18
I6
sg19
I8
sg20
I0
sg21
I5
sg22
I34
sa(dp32
g17
g26
sg18
I7
sg19
I8
sg20
I3
sg21
I9
sg22
I33
sa(dp33
g17
g29
sg18
I8
sg19
I7
sg20
I7
sg21
I13
sg22
I18
sa(dp34
g17
g24
sg18
I9
sg19
I8
sg20
I2
sg21
I7
sg22
I32
sa(dp35
g17
g26
sg18
I10
sg19
I8
sg20
I6
sg21
I9
sg22
I31
sa(dp36
g17
g29
sg18
I11
sg19
I8
sg20
I8
sg21
I13
sg22
I27
sa(dp37
g17
g26
sg18
I12
sg19
I6
sg20
I2
sg21
I9
sg22
I32
sa(dp38
g17
g29
sg18
I13
sg19
I5
sg20
I5
sg21
I13
sg22
I15
sa(dp39
g17
g26
sg18
I14
sg19
I4
sg20
I1
sg21
I19
sg22
I35
sa(dp40
g17
g26
sg18
I15
sg19
I3
sg20
I13
sg21
I21
sg22
I23
sa(dp41
g17
g29
sg18
I16
sg19
I3
sg20
I5
sg21
I25
sg22
I22
sa(dp42
g17
g26
sg18
I17
sg19
I2
sg20
I13
sg21
I29
sg22
I22
sa(dp43
g17
g29
sg18
I18
sg19
I2
sg20
I26
sg21
I31
sg22
I19
sa(dp44
g17
g29
sg18
I19
sg19
I1
sg20
I25
sg21
I33
sg22
I9
sa(dp45
g17
g24
sg18
I20
sg19
I2
sg20
I1
sg21
I25
sg22
I19
sa(dp46
g17
g29
sg18
I21
sg19
I1
sg20
I21
sg21
I29
sg22
I10
sa(dp47
g17
g29
sg18
I22
sg19
I1
sg20
I22
sg21
I33
sg22
I9
sa(dp48
g17
g24
sg18
I23
sg19
I2
sg20
I18
sg21
I25
sg22
I19
sa(dp49
g17
g29
sg18
I24
sg19
I2
sg20
I23
sg21
I31
sg22
I15
sa(dp50
g17
g29
sg18
I25
sg19
I1
sg20
I21
sg21
I35
sg22
I9
sa(dp51
g17
g24
sg18
I26
sg19
I2
sg20
I18
sg21
I25
sg22
I26
sa(dp52
g17
g29
sg18
I27
sg19
I2
sg20
I13
sg21
I25
sg22
I24
sa(dp53
g17
g29
sg18
I28
sg19
I2
sg20
I21
sg21
I27
sg22
I19
sa(dp54
g17
g29
sg18
I29
sg19
I1
sg20
I20
sg21
I31
sg22
I13
sa(dp55
g17
g29
sg18
I30
sg19
I0
sg20
I15
sg21
I37
sg22
I0
satRp56
(dp57
S'log_header'
p58
I01
sS'header'
p59
(lp60
g18
ag21
ag19
ag22
ag20
ag17
asS'columns_len'
p61
NsS'buffindex'
p62
I0
sS'chapters'
p63
ccollections
defaultdict
p64
(g13
tRp65
sbsS'max_archive_size'
p66
NsS'solution_found_flag'
p67
I01
sS'time_taken'
p68
F0.7837519645690918
sS'benchmark_name'
p69
S'M_A3'
p70
sa(dp71
S'tree_str'
p72
S'a3(a3(a3(ARG0,a3(ARG1,ARG1)),a3(ARG2,a3(ARG1,a3(ARG0,ARG1)))),a3(a3(a3(a3(a3(ARG0,ARG2),a3(ARG0,ARG1)),a3(ARG1,a3(ARG1,ARG0))),ARG2),a3(ARG0,a3(ARG1,ARG0))))'
p73
sS'tree_len'
p74
I35
sS'archive_size'
p75
I145
sS'number_of_operators'
p76
I17
sS'alg_name'
p77
S'small-LTI'
p78
sS'archive_tree_deapth'
p79
I2
sS'logbook'
p80
g12
(g13
g14
(lp81
(dp82
S'status'
p83
NsS'iteration'
p84
I0
sS'count_wrongs'
p85
I6
sS'picked_node'
p86
NsS'len_master_tree'
p87
I1
sS'total_wrongs'
p88
I6
sa(dp89
g83
S'worst'
p90
sg84
I1
sg85
I8
sg86
I0
sg87
I5
sg88
I34
sa(dp91
g83
S'better'
p92
sg84
I2
sg85
I8
sg86
I3
sg87
I9
sg88
I28
sa(dp93
g83
g92
sg84
I3
sg85
I7
sg86
I3
sg87
I9
sg88
I27
sa(dp94
g83
g92
sg84
I4
sg85
I7
sg86
I7
sg87
I13
sg88
I26
sa(dp95
g83
S'perfect'
p96
sg84
I5
sg85
I6
sg86
I10
sg87
I15
sg88
I15
sa(dp97
g83
g90
sg84
I6
sg85
I6
sg86
I2
sg87
I9
sg88
I32
sa(dp98
g83
g96
sg84
I7
sg85
I5
sg86
I5
sg87
I13
sg88
I15
sa(dp99
g83
g92
sg84
I8
sg85
I4
sg86
I1
sg87
I19
sg88
I35
sa(dp100
g83
g92
sg84
I9
sg85
I3
sg86
I13
sg87
I21
sg88
I23
sa(dp101
g83
g96
sg84
I10
sg85
I3
sg86
I5
sg87
I25
sg88
I22
sa(dp102
g83
g92
sg84
I11
sg85
I2
sg86
I13
sg87
I29
sg88
I22
sa(dp103
g83
g96
sg84
I12
sg85
I2
sg86
I26
sg87
I31
sg88
I19
sa(dp104
g83
g96
sg84
I13
sg85
I1
sg86
I25
sg87
I33
sg88
I9
sa(dp105
g83
g90
sg84
I14
sg85
I2
sg86
I1
sg87
I25
sg88
I24
sa(dp106
g83
g96
sg84
I15
sg85
I2
sg86
I22
sg87
I27
sg88
I19
sa(dp107
g83
g96
sg84
I16
sg85
I2
sg86
I17
sg87
I29
sg88
I18
sa(dp108
g83
g96
sg84
I17
sg85
I1
sg86
I10
sg87
I31
sg88
I5
sa(dp109
g83
g96
sg84
I18
sg85
I0
sg86
I15
sg87
I35
sg88
I0
satRp110
(dp111
g58
I01
sg59
(lp112
g84
ag87
ag85
ag88
ag86
ag83
asg61
Nsg62
I0
sg63
g64
(g13
tRp113
sbsS'max_archive_size'
p114
NsS'solution_found_flag'
p115
I01
sS'time_taken'
p116
F0.73507094383239746
sS'benchmark_name'
p117
S'M_A3'
p118
sa(dp119
S'tree_str'
p120
S'a3(a3(a3(ARG2,ARG0),a3(ARG2,a3(ARG1,a3(ARG0,ARG2)))),a3(a3(a3(a3(a3(ARG0,ARG2),a3(ARG0,ARG1)),a3(ARG1,a3(ARG0,ARG0))),ARG2),a3(ARG0,a3(ARG1,ARG0))))'
p121
sS'tree_len'
p122
I33
sS'archive_size'
p123
I145
sS'number_of_operators'
p124
I16
sS'alg_name'
p125
S'small-LTI'
p126
sS'archive_tree_deapth'
p127
I2
sS'logbook'
p128
g12
(g13
g14
(lp129
(dp130
S'status'
p131
NsS'iteration'
p132
I0
sS'count_wrongs'
p133
I6
sS'picked_node'
p134
NsS'len_master_tree'
p135
I1
sS'total_wrongs'
p136
I6
sa(dp137
g131
S'worst'
p138
sg132
I1
sg133
I8
sg134
I0
sg135
I5
sg136
I34
sa(dp139
g131
S'better'
p140
sg132
I2
sg133
I8
sg134
I3
sg135
I9
sg136
I33
sa(dp141
g131
S'perfect'
p142
sg132
I3
sg133
I7
sg134
I7
sg135
I13
sg136
I18
sa(dp143
g131
g140
sg132
I4
sg133
I6
sg134
I0
sg135
I1
sg136
I6
sa(dp144
g131
g138
sg132
I5
sg133
I8
sg134
I0
sg135
I5
sg136
I34
sa(dp145
g131
g140
sg132
I6
sg133
I8
sg134
I3
sg135
I9
sg136
I34
sa(dp146
g131
g140
sg132
I7
sg133
I8
sg134
I8
sg135
I9
sg136
I33
sa(dp147
g131
g142
sg132
I8
sg133
I7
sg134
I7
sg135
I13
sg136
I18
sa(dp148
g131
g138
sg132
I9
sg133
I8
sg134
I2
sg135
I7
sg136
I32
sa(dp149
g131
g140
sg132
I10
sg133
I8
sg134
I6
sg135
I9
sg136
I31
sa(dp150
g131
g142
sg132
I11
sg133
I8
sg134
I8
sg135
I13
sg136
I27
sa(dp151
g131
g140
sg132
I12
sg133
I6
sg134
I2
sg135
I9
sg136
I32
sa(dp152
g131
g142
sg132
I13
sg133
I5
sg134
I5
sg135
I13
sg136
I15
sa(dp153
g131
g140
sg132
I14
sg133
I4
sg134
I1
sg135
I19
sg136
I38
sa(dp154
g131
g140
sg132
I15
sg133
I2
sg134
I15
sg135
I21
sg136
I14
sa(dp155
g131
g140
sg132
I16
sg133
I1
sg134
I16
sg135
I25
sg136
I13
sa(dp156
g131
g142
sg132
I17
sg133
I1
sg134
I22
sg135
I27
sg136
I10
sa(dp157
g131
g138
sg132
I18
sg133
I2
sg134
I20
sg135
I21
sg136
I14
sa(dp158
g131
g140
sg132
I19
sg133
I1
sg134
I20
sg135
I25
sg136
I13
sa(dp159
g131
g142
sg132
I20
sg133
I1
sg134
I23
sg135
I29
sg136
I10
sa(dp160
g131
g138
sg132
I21
sg133
I2
sg134
I15
sg135
I21
sg136
I14
sa(dp161
g131
g140
sg132
I22
sg133
I1
sg134
I19
sg135
I25
sg136
I13
sa(dp162
g131
g142
sg132
I23
sg133
I1
sg134
I23
sg135
I29
sg136
I10
sa(dp163
g131
g138
sg132
I24
sg133
I2
sg134
I18
sg135
I21
sg136
I14
sa(dp164
g131
g140
sg132
I25
sg133
I1
sg134
I19
sg135
I25
sg136
I13
sa(dp165
g131
g142
sg132
I26
sg133
I1
sg134
I23
sg135
I29
sg136
I10
sa(dp166
g131
g138
sg132
I27
sg133
I2
sg134
I20
sg135
I25
sg136
I27
sa(dp167
g131
g142
sg132
I28
sg133
I2
sg134
I24
sg135
I27
sg136
I23
sa(dp168
g131
g142
sg132
I29
sg133
I2
sg134
I4
sg135
I29
sg136
I21
sa(dp169
g131
g142
sg132
I30
sg133
I1
sg134
I19
sg135
I29
sg136
I10
sa(dp170
g131
g138
sg132
I31
sg133
I2
sg134
I17
sg135
I23
sg136
I26
sa(dp171
g131
g142
sg132
I32
sg133
I2
sg134
I17
sg135
I21
sg136
I14
sa(dp172
g131
g140
sg132
I33
sg133
I1
sg134
I17
sg135
I25
sg136
I13
sa(dp173
g131
g142
sg132
I34
sg133
I1
sg134
I23
sg135
I29
sg136
I10
sa(dp174
g131
g138
sg132
I35
sg133
I2
sg134
I20
sg135
I25
sg136
I28
sa(dp175
g131
g142
sg132
I36
sg133
I1
sg134
I24
sg135
I27
sg136
I15
sa(dp176
g131
g142
sg132
I37
sg133
I0
sg134
I21
sg135
I33
sg136
I0
satRp177
(dp178
g58
I01
sg59
(lp179
g132
ag135
ag133
ag136
ag134
ag131
asg61
Nsg62
I0
sg63
g64
(g13
tRp180
sbsS'max_archive_size'
p181
NsS'solution_found_flag'
p182
I01
sS'time_taken'
p183
F1.0084991455078125
sS'benchmark_name'
p184
S'M_A3'
p185
sa(dp186
S'tree_str'
p187
S'a3(a3(a3(ARG0,a3(ARG2,ARG1)),a3(ARG2,a3(ARG1,a3(ARG0,ARG1)))),a3(a3(a3(ARG2,a3(ARG2,ARG0)),a3(a3(ARG0,ARG1),ARG1)),a3(ARG0,a3(ARG1,a3(ARG1,a3(ARG1,ARG2))))))'
p188
sS'tree_len'
p189
I35
sS'archive_size'
p190
I145
sS'number_of_operators'
p191
I17
sS'alg_name'
p192
S'small-LTI'
p193
sS'archive_tree_deapth'
p194
I2
sS'logbook'
p195
g12
(g13
g14
(lp196
(dp197
S'status'
p198
NsS'iteration'
p199
I0
sS'count_wrongs'
p200
I6
sS'picked_node'
p201
NsS'len_master_tree'
p202
I1
sS'total_wrongs'
p203
I6
sa(dp204
g198
S'worst'
p205
sg199
I1
sg200
I8
sg201
I0
sg202
I5
sg203
I34
sa(dp206
g198
S'better'
p207
sg199
I2
sg200
I8
sg201
I3
sg202
I9
sg203
I33
sa(dp208
g198
S'perfect'
p209
sg199
I3
sg200
I7
sg201
I7
sg202
I13
sg203
I18
sa(dp210
g198
g207
sg199
I4
sg200
I6
sg201
I0
sg202
I1
sg203
I6
sa(dp211
g198
g205
sg199
I5
sg200
I8
sg201
I0
sg202
I5
sg203
I34
sa(dp212
g198
g207
sg199
I6
sg200
I8
sg201
I3
sg202
I9
sg203
I28
sa(dp213
g198
g207
sg199
I7
sg200
I7
sg201
I3
sg202
I9
sg203
I27
sa(dp214
g198
g207
sg199
I8
sg200
I7
sg201
I7
sg202
I13
sg203
I26
sa(dp215
g198
g209
sg199
I9
sg200
I6
sg201
I10
sg202
I15
sg203
I15
sa(dp216
g198
g205
sg199
I10
sg200
I6
sg201
I2
sg202
I9
sg203
I32
sa(dp217
g198
g209
sg199
I11
sg200
I5
sg201
I5
sg202
I13
sg203
I15
sa(dp218
g198
g207
sg199
I12
sg200
I4
sg201
I1
sg202
I19
sg203
I35
sa(dp219
g198
g209
sg199
I13
sg200
I3
sg201
I18
sg202
I25
sg203
I23
sa(dp220
g198
g209
sg199
I14
sg200
I3
sg201
I5
sg202
I29
sg203
I22
sa(dp221
g198
g207
sg199
I15
sg200
I2
sg201
I14
sg202
I33
sg203
I34
sa(dp222
g198
g209
sg199
I16
sg200
I2
sg201
I22
sg202
I39
sg203
I21
sa(dp223
g198
g209
sg199
I17
sg200
I1
sg201
I30
sg202
I45
sg203
I9
sa(dp224
g198
g205
sg199
I18
sg200
I2
sg201
I1
sg202
I37
sg203
I19
sa(dp225
g198
g209
sg199
I19
sg200
I1
sg201
I33
sg202
I41
sg203
I10
sa(dp226
g198
g209
sg199
I20
sg200
I1
sg201
I34
sg202
I45
sg203
I9
sa(dp227
g198
g205
sg199
I21
sg200
I2
sg201
I30
sg202
I37
sg203
I19
sa(dp228
g198
g209
sg199
I22
sg200
I2
sg201
I35
sg202
I43
sg203
I15
sa(dp229
g198
g207
sg199
I23
sg200
I2
sg201
I33
sg202
I47
sg203
I24
sa(dp230
g198
g209
sg199
I24
sg200
I1
sg201
I46
sg202
I47
sg203
I9
sa(dp231
g198
g205
sg199
I25
sg200
I2
sg201
I30
sg202
I37
sg203
I30
sa(dp232
g198
g209
sg199
I26
sg200
I2
sg201
I6
sg202
I29
sg203
I18
sa(dp233
g198
g209
sg199
I27
sg200
I2
sg201
I21
sg202
I31
sg203
I13
sa(dp234
g198
g209
sg199
I28
sg200
I1
sg201
I20
sg202
I35
sg203
I7
sa(dp235
g198
g205
sg199
I29
sg200
I2
sg201
I17
sg202
I29
sg203
I18
sa(dp236
g198
g209
sg199
I30
sg200
I2
sg201
I26
sg202
I31
sg203
I13
sa(dp237
g198
g209
sg199
I31
sg200
I1
sg201
I25
sg202
I35
sg203
I7
sa(dp238
g198
g205
sg199
I32
sg200
I2
sg201
I22
sg202
I29
sg203
I18
sa(dp239
g198
g209
sg199
I33
sg200
I2
sg201
I26
sg202
I31
sg203
I13
sa(dp240
g198
g209
sg199
I34
sg200
I1
sg201
I25
sg202
I35
sg203
I7
sa(dp241
g198
g205
sg199
I35
sg200
I2
sg201
I22
sg202
I29
sg203
I25
sa(dp242
g198
g209
sg199
I36
sg200
I2
sg201
I19
sg202
I29
sg203
I19
sa(dp243
g198
g209
sg199
I37
sg200
I1
sg201
I22
sg202
I33
sg203
I10
sa(dp244
g198
g209
sg199
I38
sg200
I1
sg201
I23
sg202
I37
sg203
I9
sa(dp245
g198
g205
sg199
I39
sg200
I2
sg201
I19
sg202
I29
sg203
I18
sa(dp246
g198
g209
sg199
I40
sg200
I2
sg201
I26
sg202
I31
sg203
I13
sa(dp247
g198
g207
sg199
I41
sg200
I2
sg201
I25
sg202
I35
sg203
I19
sa(dp248
g198
g209
sg199
I42
sg200
I1
sg201
I30
sg202
I35
sg203
I7
sa(dp249
g198
g205
sg199
I43
sg200
I2
sg201
I23
sg202
I31
sg203
I13
sa(dp250
g198
g209
sg199
I44
sg200
I1
sg201
I30
sg202
I35
sg203
I7
sa(dp251
g198
g205
sg199
I45
sg200
I2
sg201
I28
sg202
I31
sg203
I13
sa(dp252
g198
g207
sg199
I46
sg200
I2
sg201
I30
sg202
I35
sg203
I19
sa(dp253
g198
g209
sg199
I47
sg200
I1
sg201
I31
sg202
I35
sg203
I7
sa(dp254
g198
g205
sg199
I48
sg200
I2
sg201
I4
sg202
I33
sg203
I28
sa(dp255
g198
g209
sg199
I49
sg200
I2
sg201
I10
sg202
I35
sg203
I25
sa(dp256
g198
g209
sg199
I50
sg200
I1
sg201
I11
sg202
I37
sg203
I9
sa(dp257
g198
g209
sg199
I51
sg200
I1
sg201
I26
sg202
I39
sg203
I6
sa(dp258
g198
g205
sg199
I52
sg200
I2
sg201
I24
sg202
I37
sg203
I38
sa(dp259
g198
g209
sg199
I53
sg200
I2
sg201
I7
sg202
I37
sg203
I29
sa(dp260
g198
g209
sg199
I54
sg200
I2
sg201
I21
sg202
I37
sg203
I21
sa(dp261
g198
g209
sg199
I55
sg200
I1
sg201
I35
sg202
I37
sg203
I9
sa(dp262
g198
g209
sg199
I56
sg200
I1
sg201
I33
sg202
I39
sg203
I8
sa(dp263
g198
g209
sg199
I57
sg200
I1
sg201
I32
sg202
I39
sg203
I6
sa(dp264
g198
g205
sg199
I58
sg200
I2
sg201
I30
sg202
I35
sg203
I17
sa(dp265
g198
g209
sg199
I59
sg200
I2
sg201
I6
sg202
I27
sg203
I12
sa(dp266
g198
g209
sg199
I60
sg200
I1
sg201
I21
sg202
I27
sg203
I6
sa(dp267
g198
g205
sg199
I61
sg200
I2
sg201
I2
sg202
I23
sg203
I14
sa(dp268
g198
g209
sg199
I62
sg200
I1
sg201
I22
sg202
I27
sg203
I6
sa(dp269
g198
g205
sg199
I63
sg200
I2
sg201
I18
sg202
I23
sg203
I14
sa(dp270
g198
g209
sg199
I64
sg200
I1
sg201
I22
sg202
I27
sg203
I6
sa(dp271
g198
g205
sg199
I65
sg200
I2
sg201
I15
sg202
I27
sg203
I17
sa(dp272
g198
g209
sg199
I66
sg200
I2
sg201
I19
sg202
I27
sg203
I12
sa(dp273
g198
g209
sg199
I67
sg200
I1
sg201
I21
sg202
I31
sg203
I6
sa(dp274
g198
g209
sg199
I68
sg200
I0
sg201
I20
sg202
I35
sg203
I0
satRp275
(dp276
g58
I01
sg59
(lp277
g199
ag202
ag200
ag203
ag201
ag198
asg61
Nsg62
I0
sg63
g64
(g13
tRp278
sbsS'max_archive_size'
p279
NsS'solution_found_flag'
p280
I01
sS'time_taken'
p281
F1.4443879127502441
sS'benchmark_name'
p282
S'M_A3'
p283
sa(dp284
S'tree_str'
p285
S'a3(a3(a3(ARG2,a3(ARG0,ARG1)),a3(ARG0,a3(ARG1,a3(ARG2,ARG1)))),a3(a3(a3(ARG0,a3(ARG0,ARG2)),a3(a3(ARG2,ARG0),ARG1)),a3(ARG2,a3(ARG1,a3(a3(ARG0,ARG1),a3(ARG1,ARG0))))))'
p286
sS'tree_len'
p287
I37
sS'archive_size'
p288
I145
sS'number_of_operators'
p289
I18
sS'alg_name'
p290
S'small-LTI'
p291
sS'archive_tree_deapth'
p292
I2
sS'logbook'
p293
g12
(g13
g14
(lp294
(dp295
S'status'
p296
NsS'iteration'
p297
I0
sS'count_wrongs'
p298
I6
sS'picked_node'
p299
NsS'len_master_tree'
p300
I1
sS'total_wrongs'
p301
I6
sa(dp302
g296
S'worst'
p303
sg297
I1
sg298
I8
sg299
I0
sg300
I5
sg301
I34
sa(dp304
g296
S'better'
p305
sg297
I2
sg298
I8
sg299
I3
sg300
I9
sg301
I33
sa(dp306
g296
S'perfect'
p307
sg297
I3
sg298
I7
sg299
I7
sg300
I13
sg301
I18
sa(dp308
g296
g305
sg297
I4
sg298
I6
sg299
I0
sg300
I1
sg301
I6
sa(dp309
g296
g303
sg297
I5
sg298
I8
sg299
I0
sg300
I5
sg301
I34
sa(dp310
g296
g305
sg297
I6
sg298
I8
sg299
I3
sg300
I9
sg301
I33
sa(dp311
g296
g307
sg297
I7
sg298
I7
sg299
I7
sg300
I13
sg301
I18
sa(dp312
g296
g303
sg297
I8
sg298
I8
sg299
I2
sg300
I7
sg301
I32
sa(dp313
g296
g305
sg297
I9
sg298
I8
sg299
I6
sg300
I9
sg301
I31
sa(dp314
g296
g307
sg297
I10
sg298
I8
sg299
I8
sg300
I13
sg301
I27
sa(dp315
g296
g305
sg297
I11
sg298
I6
sg299
I2
sg300
I9
sg301
I32
sa(dp316
g296
g307
sg297
I12
sg298
I5
sg299
I5
sg300
I13
sg301
I15
sa(dp317
g296
g305
sg297
I13
sg298
I4
sg299
I1
sg300
I19
sg301
I35
sa(dp318
g296
g307
sg297
I14
sg298
I3
sg299
I18
sg300
I25
sg301
I23
sa(dp319
g296
g307
sg297
I15
sg298
I3
sg299
I5
sg300
I29
sg301
I22
sa(dp320
g296
g305
sg297
I16
sg298
I2
sg299
I14
sg300
I33
sg301
I37
sa(dp321
g296
g307
sg297
I17
sg298
I2
sg299
I20
sg300
I31
sg301
I34
sa(dp322
g296
g307
sg297
I18
sg298
I1
sg299
I29
sg300
I33
sg301
I9
sa(dp323
g296
g303
sg297
I19
sg298
I2
sg299
I1
sg300
I25
sg301
I18
sa(dp324
g296
g307
sg297
I20
sg298
I2
sg299
I22
sg300
I27
sg301
I13
sa(dp325
g296
g307
sg297
I21
sg298
I1
sg299
I21
sg300
I31
sg301
I7
sa(dp326
g296
g303
sg297
I22
sg298
I2
sg299
I18
sg300
I25
sg301
I19
sa(dp327
g296
g307
sg297
I23
sg298
I1
sg299
I21
sg300
I29
sg301
I10
sa(dp328
g296
g307
sg297
I24
sg298
I1
sg299
I22
sg300
I33
sg301
I9
sa(dp329
g296
g303
sg297
I25
sg298
I2
sg299
I18
sg300
I25
sg301
I18
sa(dp330
g296
g307
sg297
I26
sg298
I2
sg299
I22
sg300
I27
sg301
I13
sa(dp331
g296
g307
sg297
I27
sg298
I1
sg299
I21
sg300
I31
sg301
I7
sa(dp332
g296
g303
sg297
I28
sg298
I2
sg299
I19
sg300
I27
sg301
I13
sa(dp333
g296
g307
sg297
I29
sg298
I1
sg299
I26
sg300
I31
sg301
I7
sa(dp334
g296
g303
sg297
I30
sg298
I2
sg299
I24
sg300
I27
sg301
I13
sa(dp335
g296
g307
sg297
I31
sg298
I1
sg299
I26
sg300
I31
sg301
I7
sa(dp336
g296
g303
sg297
I32
sg298
I2
sg299
I4
sg300
I27
sg301
I17
sa(dp337
g296
g307
sg297
I33
sg298
I2
sg299
I7
sg300
I27
sg301
I12
sa(dp338
g296
g307
sg297
I34
sg298
I1
sg299
I25
sg300
I27
sg301
I6
sa(dp339
g296
g303
sg297
I35
sg298
I2
sg299
I2
sg300
I23
sg301
I14
sa(dp340
g296
g307
sg297
I36
sg298
I1
sg299
I22
sg300
I27
sg301
I6
sa(dp341
g296
g303
sg297
I37
sg298
I2
sg299
I18
sg300
I23
sg301
I14
sa(dp342
g296
g307
sg297
I38
sg298
I1
sg299
I22
sg300
I27
sg301
I6
sa(dp343
g296
g303
sg297
I39
sg298
I2
sg299
I15
sg300
I27
sg301
I12
sa(dp344
g296
g307
sg297
I40
sg298
I1
sg299
I26
sg300
I27
sg301
I6
sa(dp345
g296
g303
sg297
I41
sg298
I2
sg299
I15
sg300
I23
sg301
I14
sa(dp346
g296
g307
sg297
I42
sg298
I1
sg299
I22
sg300
I29
sg301
I6
sa(dp347
g296
g303
sg297
I43
sg298
I2
sg299
I15
sg300
I29
sg301
I12
sa(dp348
g296
g307
sg297
I44
sg298
I1
sg299
I28
sg300
I29
sg301
I6
sa(dp349
g296
g303
sg297
I45
sg298
I2
sg299
I26
sg300
I29
sg301
I12
sa(dp350
g296
g307
sg297
I46
sg298
I1
sg299
I28
sg300
I33
sg301
I6
sa(dp351
g296
g307
sg297
I47
sg298
I0
sg299
I27
sg300
I37
sg301
I0
satRp352
(dp353
g58
I01
sg59
(lp354
g297
ag300
ag298
ag301
ag299
ag296
asg61
Nsg62
I0
sg63
g64
(g13
tRp355
sbsS'max_archive_size'
p356
NsS'solution_found_flag'
p357
I01
sS'time_taken'
p358
F1.1554038524627686
sS'benchmark_name'
p359
S'M_A3'
p360
sa(dp361
S'tree_str'
p362
S'a3(a3(a3(ARG2,a3(ARG0,ARG0)),a3(ARG0,a3(ARG1,a3(ARG2,ARG0)))),a3(a3(a3(a3(ARG1,a3(ARG2,ARG1)),a3(a3(a3(ARG0,ARG2),a3(ARG2,ARG0)),ARG0)),ARG0),a3(ARG2,a3(ARG1,ARG2))))'
p363
sS'tree_len'
p364
I37
sS'archive_size'
p365
I145
sS'number_of_operators'
p366
I18
sS'alg_name'
p367
S'small-LTI'
p368
sS'archive_tree_deapth'
p369
I2
sS'logbook'
p370
g12
(g13
g14
(lp371
(dp372
S'status'
p373
NsS'iteration'
p374
I0
sS'count_wrongs'
p375
I6
sS'picked_node'
p376
NsS'len_master_tree'
p377
I1
sS'total_wrongs'
p378
I6
sa(dp379
g373
S'worst'
p380
sg374
I1
sg375
I8
sg376
I0
sg377
I5
sg378
I34
sa(dp381
g373
S'better'
p382
sg374
I2
sg375
I8
sg376
I3
sg377
I9
sg378
I28
sa(dp383
g373
g382
sg374
I3
sg375
I6
sg376
I2
sg377
I9
sg378
I32
sa(dp384
g373
S'perfect'
p385
sg374
I4
sg375
I5
sg376
I5
sg377
I13
sg378
I15
sa(dp386
g373
g382
sg374
I5
sg375
I4
sg376
I1
sg377
I19
sg378
I35
sa(dp387
g373
g382
sg374
I6
sg375
I3
sg376
I13
sg377
I21
sg378
I23
sa(dp388
g373
g385
sg374
I7
sg375
I3
sg376
I5
sg377
I25
sg378
I22
sa(dp389
g373
g382
sg374
I8
sg375
I2
sg376
I13
sg377
I29
sg378
I22
sa(dp390
g373
g385
sg374
I9
sg375
I2
sg376
I26
sg377
I31
sg378
I19
sa(dp391
g373
g385
sg374
I10
sg375
I1
sg376
I25
sg377
I33
sg378
I9
sa(dp392
g373
g380
sg374
I11
sg375
I2
sg376
I1
sg377
I25
sg378
I19
sa(dp393
g373
g385
sg374
I12
sg375
I1
sg376
I21
sg377
I29
sg378
I10
sa(dp394
g373
g385
sg374
I13
sg375
I1
sg376
I22
sg377
I33
sg378
I9
sa(dp395
g373
g380
sg374
I14
sg375
I2
sg376
I18
sg377
I25
sg378
I26
sa(dp396
g373
g385
sg374
I15
sg375
I2
sg376
I12
sg377
I25
sg378
I24
sa(dp397
g373
g385
sg374
I16
sg375
I2
sg376
I19
sg377
I27
sg378
I19
sa(dp398
g373
g385
sg374
I17
sg375
I1
sg376
I18
sg377
I31
sg378
I13
sa(dp399
g373
g385
sg374
I18
sg375
I0
sg376
I13
sg377
I37
sg378
I0
satRp400
(dp401
g58
I01
sg59
(lp402
g374
ag377
ag375
ag378
ag376
ag373
asg61
Nsg62
I0
sg63
g64
(g13
tRp403
sbsS'max_archive_size'
p404
NsS'solution_found_flag'
p405
I01
sS'time_taken'
p406
F0.64226579666137695
sS'benchmark_name'
p407
S'M_A3'
p408
sa(dp409
S'tree_str'
p410
S'a3(a3(a3(ARG2,ARG0),a3(ARG0,a3(ARG1,ARG1))),a3(a3(a3(ARG0,a3(ARG0,ARG1)),a3(a3(ARG0,ARG1),a3(ARG2,ARG1))),a3(ARG2,a3(ARG1,a3(ARG0,ARG2)))))'
p411
sS'tree_len'
p412
I31
sS'archive_size'
p413
I145
sS'number_of_operators'
p414
I15
sS'alg_name'
p415
S'small-LTI'
p416
sS'archive_tree_deapth'
p417
I2
sS'logbook'
p418
g12
(g13
g14
(lp419
(dp420
S'status'
p421
NsS'iteration'
p422
I0
sS'count_wrongs'
p423
I6
sS'picked_node'
p424
NsS'len_master_tree'
p425
I1
sS'total_wrongs'
p426
I6
sa(dp427
g421
S'worst'
p428
sg422
I1
sg423
I8
sg424
I0
sg425
I5
sg426
I34
sa(dp429
g421
S'better'
p430
sg422
I2
sg423
I8
sg424
I3
sg425
I9
sg426
I33
sa(dp431
g421
S'perfect'
p432
sg422
I3
sg423
I7
sg424
I7
sg425
I13
sg426
I18
sa(dp433
g421
g430
sg422
I4
sg423
I6
sg424
I0
sg425
I1
sg426
I6
sa(dp434
g421
g428
sg422
I5
sg423
I8
sg424
I0
sg425
I5
sg426
I34
sa(dp435
g421
g430
sg422
I6
sg423
I8
sg424
I3
sg425
I9
sg426
I34
sa(dp436
g421
g430
sg422
I7
sg423
I8
sg424
I8
sg425
I9
sg426
I33
sa(dp437
g421
g432
sg422
I8
sg423
I7
sg424
I7
sg425
I13
sg426
I18
sa(dp438
g421
g428
sg422
I9
sg423
I8
sg424
I2
sg425
I7
sg426
I32
sa(dp439
g421
g430
sg422
I10
sg423
I8
sg424
I6
sg425
I9
sg426
I31
sa(dp440
g421
g432
sg422
I11
sg423
I8
sg424
I8
sg425
I13
sg426
I27
sa(dp441
g421
g430
sg422
I12
sg423
I6
sg424
I2
sg425
I9
sg426
I32
sa(dp442
g421
g432
sg422
I13
sg423
I5
sg424
I5
sg425
I13
sg426
I15
sa(dp443
g421
g430
sg422
I14
sg423
I4
sg424
I1
sg425
I19
sg426
I33
sa(dp444
g421
g432
sg422
I15
sg423
I3
sg424
I18
sg425
I25
sg426
I26
sa(dp445
g421
g430
sg422
I16
sg423
I4
sg424
I4
sg425
I25
sg426
I24
sa(dp446
g421
g430
sg422
I17
sg423
I3
sg424
I12
sg425
I29
sg426
I40
sa(dp447
g421
g432
sg422
I18
sg423
I2
sg424
I6
sg425
I27
sg426
I12
sa(dp448
g421
g432
sg422
I19
sg423
I1
sg424
I20
sg425
I27
sg426
I7
sa(dp449
g421
g432
sg422
I20
sg423
I0
sg424
I10
sg425
I31
sg426
I0
satRp450
(dp451
g58
I01
sg59
(lp452
g422
ag425
ag423
ag426
ag424
ag421
asg61
Nsg62
I0
sg63
g64
(g13
tRp453
sbsS'max_archive_size'
p454
NsS'solution_found_flag'
p455
I01
sS'time_taken'
p456
F0.48355984687805176
sS'benchmark_name'
p457
S'M_A3'
p458
sa(dp459
S'tree_str'
p460
S'a3(a3(a3(a3(ARG2,a3(ARG1,ARG1)),a3(a3(ARG0,ARG0),ARG1)),a3(a3(a3(ARG0,ARG1),a3(ARG1,a3(ARG2,ARG1))),ARG0)),a3(a3(ARG2,a3(a3(ARG0,ARG0),ARG1)),a3(ARG0,a3(ARG1,a3(ARG0,a3(ARG0,ARG2))))))'
p461
sS'tree_len'
p462
I41
sS'archive_size'
p463
I145
sS'number_of_operators'
p464
I20
sS'alg_name'
p465
S'small-LTI'
p466
sS'archive_tree_deapth'
p467
I2
sS'logbook'
p468
g12
(g13
g14
(lp469
(dp470
S'status'
p471
NsS'iteration'
p472
I0
sS'count_wrongs'
p473
I6
sS'picked_node'
p474
NsS'len_master_tree'
p475
I1
sS'total_wrongs'
p476
I6
sa(dp477
g471
S'worst'
p478
sg472
I1
sg473
I8
sg474
I0
sg475
I5
sg476
I34
sa(dp479
g471
S'better'
p480
sg472
I2
sg473
I8
sg474
I3
sg475
I9
sg476
I28
sa(dp481
g471
g480
sg472
I3
sg473
I6
sg474
I2
sg475
I9
sg476
I32
sa(dp482
g471
S'perfect'
p483
sg472
I4
sg473
I5
sg474
I5
sg475
I13
sg476
I15
sa(dp484
g471
g480
sg472
I5
sg473
I4
sg474
I1
sg475
I19
sg476
I33
sa(dp485
g471
g483
sg472
I6
sg473
I3
sg474
I18
sg475
I25
sg476
I26
sa(dp486
g471
g480
sg472
I7
sg473
I4
sg474
I5
sg475
I25
sg476
I24
sa(dp487
g471
g480
sg472
I8
sg473
I3
sg474
I14
sg475
I29
sg476
I38
sa(dp488
g471
g483
sg472
I9
sg473
I2
sg474
I6
sg475
I27
sg476
I12
sa(dp489
g471
g478
sg472
I10
sg473
I3
sg474
I9
sg475
I21
sg476
I18
sa(dp490
g471
g483
sg472
I11
sg473
I2
sg474
I5
sg475
I23
sg476
I13
sa(dp491
g471
g483
sg472
I12
sg473
I1
sg474
I18
sg475
I27
sg476
I6
sa(dp492
g471
g478
sg472
I13
sg473
I2
sg474
I17
sg475
I23
sg476
I13
sa(dp493
g471
g483
sg472
I14
sg473
I1
sg474
I21
sg475
I27
sg476
I6
sa(dp494
g471
g478
sg472
I15
sg473
I2
sg474
I20
sg475
I23
sg476
I13
sa(dp495
g471
g483
sg472
I16
sg473
I1
sg474
I21
sg475
I27
sg476
I6
sa(dp496
g471
g478
sg472
I17
sg473
I2
sg474
I20
sg475
I25
sg476
I27
sa(dp497
g471
g483
sg472
I18
sg473
I1
sg474
I4
sg475
I25
sg476
I9
sa(dp498
g471
g483
sg472
I19
sg473
I1
sg474
I18
sg475
I27
sg476
I8
sa(dp499
g471
g483
sg472
I20
sg473
I1
sg474
I17
sg475
I27
sg476
I6
sa(dp500
g471
g478
sg472
I21
sg473
I2
sg474
I15
sg475
I23
sg476
I13
sa(dp501
g471
g483
sg472
I22
sg473
I1
sg474
I21
sg475
I27
sg476
I6
sa(dp502
g471
g478
sg472
I23
sg473
I2
sg474
I20
sg475
I23
sg476
I18
sa(dp503
g471
g483
sg472
I24
sg473
I2
sg474
I11
sg475
I27
sg476
I17
sa(dp504
g471
g480
sg472
I25
sg473
I2
sg474
I20
sg475
I27
sg476
I13
sa(dp505
g471
g478
sg472
I26
sg473
I3
sg474
I2
sg475
I27
sg476
I29
sa(dp506
g471
g483
sg472
I27
sg473
I3
sg474
I11
sg475
I29
sg476
I20
sa(dp507
g471
g480
sg472
I28
sg473
I2
sg474
I19
sg475
I29
sg476
I13
sa(dp508
g471
g478
sg472
I29
sg473
I3
sg474
I24
sg475
I29
sg476
I25
sa(dp509
g471
g483
sg472
I30
sg473
I2
sg474
I26
sg475
I29
sg476
I13
sa(dp510
g471
g478
sg472
I31
sg473
I3
sg474
I24
sg475
I29
sg476
I41
sa(dp511
g471
g483
sg472
I32
sg473
I3
sg474
I13
sg475
I25
sg476
I36
sa(dp512
g471
g483
sg472
I33
sg473
I3
sg474
I14
sg475
I21
sg476
I31
sa(dp513
g471
g483
sg472
I34
sg473
I2
sg474
I9
sg475
I23
sg476
I13
sa(dp514
g471
g483
sg472
I35
sg473
I1
sg474
I11
sg475
I27
sg476
I6
sa(dp515
g471
g478
sg472
I36
sg473
I2
sg474
I9
sg475
I25
sg476
I25
sa(dp516
g471
g483
sg472
I37
sg473
I2
sg474
I19
sg475
I27
sg476
I21
sa(dp517
g471
g483
sg472
I38
sg473
I1
sg474
I21
sg475
I29
sg476
I6
sa(dp518
g471
g478
sg472
I39
sg473
I2
sg474
I19
sg475
I25
sg476
I13
sa(dp519
g471
g483
sg472
I40
sg473
I1
sg474
I23
sg475
I29
sg476
I6
sa(dp520
g471
g478
sg472
I41
sg473
I2
sg474
I22
sg475
I25
sg476
I13
sa(dp521
g471
g483
sg472
I42
sg473
I1
sg474
I23
sg475
I29
sg476
I6
sa(dp522
g471
g478
sg472
I43
sg473
I2
sg474
I22
sg475
I27
sg476
I33
sa(dp523
g471
g483
sg472
I44
sg473
I2
sg474
I15
sg475
I23
sg476
I27
sa(dp524
g471
g483
sg472
I45
sg473
I2
sg474
I17
sg475
I25
sg476
I24
sa(dp525
g471
g483
sg472
I46
sg473
I1
sg474
I17
sg475
I27
sg476
I6
sa(dp526
g471
g478
sg472
I47
sg473
I2
sg474
I15
sg475
I25
sg476
I25
sa(dp527
g471
g483
sg472
I48
sg473
I1
sg474
I24
sg475
I27
sg476
I6
sa(dp528
g471
g478
sg472
I49
sg473
I2
sg474
I20
sg475
I25
sg476
I25
sa(dp529
g471
g483
sg472
I50
sg473
I1
sg474
I24
sg475
I27
sg476
I6
sa(dp530
g471
g478
sg472
I51
sg473
I2
sg474
I20
sg475
I25
sg476
I25
sa(dp531
g471
g483
sg472
I52
sg473
I2
sg474
I19
sg475
I27
sg476
I21
sa(dp532
g471
g483
sg472
I53
sg473
I1
sg474
I21
sg475
I29
sg476
I6
sa(dp533
g471
g478
sg472
I54
sg473
I2
sg474
I19
sg475
I27
sg476
I33
sa(dp534
g471
g483
sg472
I55
sg473
I2
sg474
I15
sg475
I25
sg476
I27
sa(dp535
g471
g483
sg472
I56
sg473
I1
sg474
I11
sg475
I27
sg476
I9
sa(dp536
g471
g483
sg472
I57
sg473
I1
sg474
I16
sg475
I29
sg476
I8
sa(dp537
g471
g483
sg472
I58
sg473
I1
sg474
I14
sg475
I29
sg476
I6
sa(dp538
g471
g478
sg472
I59
sg473
I2
sg474
I12
sg475
I25
sg476
I18
sa(dp539
g471
g483
sg472
I60
sg473
I2
sg474
I12
sg475
I23
sg476
I13
sa(dp540
g471
g483
sg472
I61
sg473
I1
sg474
I18
sg475
I27
sg476
I6
sa(dp541
g471
g478
sg472
I62
sg473
I2
sg474
I17
sg475
I23
sg476
I18
sa(dp542
g471
g483
sg472
I63
sg473
I2
sg474
I7
sg475
I25
sg476
I12
sa(dp543
g471
g483
sg472
I64
sg473
I1
sg474
I19
sg475
I29
sg476
I6
sa(dp544
g471
g478
sg472
I65
sg473
I2
sg474
I17
sg475
I25
sg476
I20
sa(dp545
g471
g483
sg472
I66
sg473
I2
sg474
I12
sg475
I27
sg476
I19
sa(dp546
g471
g483
sg472
I67
sg473
I2
sg474
I15
sg475
I29
sg476
I17
sa(dp547
g471
g483
sg472
I68
sg473
I1
sg474
I10
sg475
I33
sg476
I6
sa(dp548
g471
g478
sg472
I69
sg473
I2
sg474
I19
sg475
I33
sg476
I17
sa(dp549
g471
g483
sg472
I70
sg473
I2
sg474
I12
sg475
I33
sg476
I13
sa(dp550
g471
g483
sg472
I71
sg473
I1
sg474
I27
sg475
I37
sg476
I7
sa(dp551
g471
g478
sg472
I72
sg473
I2
sg474
I7
sg475
I27
sg476
I12
sa(dp552
g471
g478
sg472
I73
sg473
I3
sg474
I12
sg475
I23
sg476
I18
sa(dp553
g471
g483
sg472
I74
sg473
I2
sg474
I22
sg475
I27
sg476
I12
sa(dp554
g471
g478
sg472
I75
sg473
I3
sg474
I20
sg475
I23
sg476
I18
sa(dp555
g471
g483
sg472
I76
sg473
I2
sg474
I22
sg475
I27
sg476
I12
sa(dp556
g471
g478
sg472
I77
sg473
I3
sg474
I21
sg475
I27
sg476
I27
sa(dp557
g471
g483
sg472
I78
sg473
I3
sg474
I14
sg475
I29
sg476
I24
sa(dp558
g471
g483
sg472
I79
sg473
I3
sg474
I13
sg475
I33
sg476
I18
sa(dp559
g471
g480
sg472
I80
sg473
I2
sg474
I16
sg475
I29
sg476
I11
sa(dp560
g471
g478
sg472
I81
sg473
I3
sg474
I26
sg475
I29
sg476
I18
sa(dp561
g471
g483
sg472
I82
sg473
I2
sg474
I28
sg475
I33
sg476
I12
sa(dp562
g471
g480
sg472
I83
sg473
I1
sg474
I14
sg475
I37
sg476
I6
sa(dp563
g471
g483
sg472
I84
sg473
I0
sg474
I33
sg475
I41
sg476
I0
satRp564
(dp565
g58
I01
sg59
(lp566
g472
ag475
ag473
ag476
ag474
ag471
asg61
Nsg62
I0
sg63
g64
(g13
tRp567
sbsS'max_archive_size'
p568
NsS'solution_found_flag'
p569
I01
sS'time_taken'
p570
F1.679426908493042
sS'benchmark_name'
p571
S'M_A3'
p572
sa(dp573
S'tree_str'
p574
S'a3(a3(a3(ARG2,ARG0),a3(ARG0,a3(ARG1,ARG1))),a3(a3(a3(ARG0,a3(ARG0,ARG1)),a3(a3(ARG0,ARG1),a3(ARG2,ARG1))),a3(ARG2,a3(ARG1,a3(ARG0,ARG2)))))'
p575
sS'tree_len'
p576
I31
sS'archive_size'
p577
I145
sS'number_of_operators'
p578
I15
sS'alg_name'
p579
S'small-LTI'
p580
sS'archive_tree_deapth'
p581
I2
sS'logbook'
p582
g12
(g13
g14
(lp583
(dp584
S'status'
p585
NsS'iteration'
p586
I0
sS'count_wrongs'
p587
I6
sS'picked_node'
p588
NsS'len_master_tree'
p589
I1
sS'total_wrongs'
p590
I6
sa(dp591
g585
S'worst'
p592
sg586
I1
sg587
I8
sg588
I0
sg589
I5
sg590
I34
sa(dp593
g585
S'better'
p594
sg586
I2
sg587
I8
sg588
I3
sg589
I9
sg590
I33
sa(dp595
g585
S'perfect'
p596
sg586
I3
sg587
I7
sg588
I7
sg589
I13
sg590
I18
sa(dp597
g585
g594
sg586
I4
sg587
I6
sg588
I0
sg589
I1
sg590
I6
sa(dp598
g585
g592
sg586
I5
sg587
I8
sg588
I0
sg589
I5
sg590
I34
sa(dp599
g585
g594
sg586
I6
sg587
I8
sg588
I3
sg589
I9
sg590
I28
sa(dp600
g585
g594
sg586
I7
sg587
I6
sg588
I2
sg589
I9
sg590
I32
sa(dp601
g585
g596
sg586
I8
sg587
I5
sg588
I5
sg589
I13
sg590
I15
sa(dp602
g585
g594
sg586
I9
sg587
I4
sg588
I1
sg589
I19
sg590
I33
sa(dp603
g585
g596
sg586
I10
sg587
I3
sg588
I18
sg589
I25
sg590
I26
sa(dp604
g585
g594
sg586
I11
sg587
I4
sg588
I5
sg589
I25
sg590
I24
sa(dp605
g585
g594
sg586
I12
sg587
I3
sg588
I14
sg589
I29
sg590
I40
sa(dp606
g585
g596
sg586
I13
sg587
I2
sg588
I8
sg589
I27
sg590
I12
sa(dp607
g585
g596
sg586
I14
sg587
I1
sg588
I5
sg589
I27
sg590
I7
sa(dp608
g585
g596
sg586
I15
sg587
I0
sg588
I11
sg589
I31
sg590
I0
satRp609
(dp610
g58
I01
sg59
(lp611
g586
ag589
ag587
ag590
ag588
ag585
asg61
Nsg62
I0
sg63
g64
(g13
tRp612
sbsS'max_archive_size'
p613
NsS'solution_found_flag'
p614
I01
sS'time_taken'
p615
F0.43820810317993164
sS'benchmark_name'
p616
S'M_A3'
p617
sa(dp618
S'tree_str'
p619
S'a3(a3(a3(ARG0,ARG2),a3(ARG2,a3(ARG1,ARG1))),a3(a3(a3(ARG2,a3(ARG2,ARG1)),a3(a3(ARG2,ARG1),a3(ARG0,ARG0))),a3(ARG0,a3(ARG1,a3(ARG2,ARG0)))))'
p620
sS'tree_len'
p621
I31
sS'archive_size'
p622
I145
sS'number_of_operators'
p623
I15
sS'alg_name'
p624
S'small-LTI'
p625
sS'archive_tree_deapth'
p626
I2
sS'logbook'
p627
g12
(g13
g14
(lp628
(dp629
S'status'
p630
NsS'iteration'
p631
I0
sS'count_wrongs'
p632
I6
sS'picked_node'
p633
NsS'len_master_tree'
p634
I1
sS'total_wrongs'
p635
I6
sa(dp636
g630
S'worst'
p637
sg631
I1
sg632
I8
sg633
I0
sg634
I5
sg635
I34
sa(dp638
g630
S'better'
p639
sg631
I2
sg632
I8
sg633
I3
sg634
I9
sg635
I33
sa(dp640
g630
S'perfect'
p641
sg631
I3
sg632
I7
sg633
I7
sg634
I13
sg635
I18
sa(dp642
g630
g639
sg631
I4
sg632
I6
sg633
I0
sg634
I1
sg635
I6
sa(dp643
g630
g637
sg631
I5
sg632
I8
sg633
I0
sg634
I5
sg635
I34
sa(dp644
g630
g639
sg631
I6
sg632
I8
sg633
I3
sg634
I9
sg635
I33
sa(dp645
g630
g641
sg631
I7
sg632
I7
sg633
I7
sg634
I13
sg635
I18
sa(dp646
g630
g637
sg631
I8
sg632
I8
sg633
I2
sg634
I7
sg635
I32
sa(dp647
g630
g639
sg631
I9
sg632
I8
sg633
I6
sg634
I9
sg635
I31
sa(dp648
g630
g641
sg631
I10
sg632
I8
sg633
I8
sg634
I13
sg635
I27
sa(dp649
g630
g639
sg631
I11
sg632
I6
sg633
I2
sg634
I9
sg635
I32
sa(dp650
g630
g641
sg631
I12
sg632
I5
sg633
I5
sg634
I13
sg635
I15
sa(dp651
g630
g639
sg631
I13
sg632
I4
sg633
I1
sg634
I19
sg635
I33
sa(dp652
g630
g641
sg631
I14
sg632
I3
sg633
I18
sg634
I25
sg635
I26
sa(dp653
g630
g639
sg631
I15
sg632
I4
sg633
I5
sg634
I25
sg635
I24
sa(dp654
g630
g639
sg631
I16
sg632
I3
sg633
I14
sg634
I29
sg635
I38
sa(dp655
g630
g641
sg631
I17
sg632
I2
sg633
I6
sg634
I27
sg635
I12
sa(dp656
g630
g641
sg631
I18
sg632
I1
sg633
I4
sg634
I27
sg635
I7
sa(dp657
g630
g641
sg631
I19
sg632
I0
sg633
I8
sg634
I31
sg635
I0
satRp658
(dp659
g58
I01
sg59
(lp660
g631
ag634
ag632
ag635
ag633
ag630
asg61
Nsg62
I0
sg63
g64
(g13
tRp661
sbsS'max_archive_size'
p662
NsS'solution_found_flag'
p663
I01
sS'time_taken'
p664
F0.47121906280517578
sS'benchmark_name'
p665
S'M_A3'
p666
sa(dp667
S'tree_str'
p668
S'a3(a3(a3(a3(a3(ARG2,ARG1),ARG2),ARG2),a3(ARG0,a3(ARG1,a3(ARG2,ARG0)))),a3(a3(a3(a3(a3(ARG1,ARG0),ARG0),a3(a3(ARG2,ARG0),ARG0)),a3(ARG0,a3(ARG1,a3(ARG0,ARG2)))),a3(ARG2,a3(ARG1,ARG2))))'
p669
sS'tree_len'
p670
I41
sS'archive_size'
p671
I145
sS'number_of_operators'
p672
I20
sS'alg_name'
p673
S'small-LTI'
p674
sS'archive_tree_deapth'
p675
I2
sS'logbook'
p676
g12
(g13
g14
(lp677
(dp678
S'status'
p679
NsS'iteration'
p680
I0
sS'count_wrongs'
p681
I6
sS'picked_node'
p682
NsS'len_master_tree'
p683
I1
sS'total_wrongs'
p684
I6
sa(dp685
g679
S'worst'
p686
sg680
I1
sg681
I8
sg682
I0
sg683
I5
sg684
I34
sa(dp687
g679
S'better'
p688
sg680
I2
sg681
I8
sg682
I3
sg683
I9
sg684
I34
sa(dp689
g679
g688
sg680
I3
sg681
I8
sg682
I8
sg683
I9
sg684
I33
sa(dp690
g679
S'perfect'
p691
sg680
I4
sg681
I7
sg682
I7
sg683
I13
sg684
I18
sa(dp692
g679
g688
sg680
I5
sg681
I6
sg682
I0
sg683
I1
sg684
I6
sa(dp693
g679
g686
sg680
I6
sg681
I8
sg682
I0
sg683
I5
sg684
I34
sa(dp694
g679
g688
sg680
I7
sg681
I8
sg682
I3
sg683
I9
sg684
I33
sa(dp695
g679
g688
sg680
I8
sg681
I8
sg682
I7
sg683
I11
sg684
I29
sa(dp696
g679
g691
sg680
I9
sg681
I8
sg682
I10
sg683
I13
sg684
I28
sa(dp697
g679
g691
sg680
I10
sg681
I7
sg682
I8
sg683
I13
sg684
I18
sa(dp698
g679
g686
sg680
I11
sg681
I8
sg682
I2
sg683
I7
sg684
I32
sa(dp699
g679
g688
sg680
I12
sg681
I8
sg682
I6
sg683
I9
sg684
I31
sa(dp700
g679
g691
sg680
I13
sg681
I8
sg682
I8
sg683
I13
sg684
I27
sa(dp701
g679
g688
sg680
I14
sg681
I6
sg682
I2
sg683
I9
sg684
I32
sa(dp702
g679
g691
sg680
I15
sg681
I5
sg682
I5
sg683
I13
sg684
I15
sa(dp703
g679
g688
sg680
I16
sg681
I4
sg682
I1
sg683
I19
sg684
I35
sa(dp704
g679
g688
sg680
I17
sg681
I3
sg682
I13
sg683
I21
sg684
I23
sa(dp705
g679
g691
sg680
I18
sg681
I3
sg682
I5
sg683
I25
sg684
I22
sa(dp706
g679
g688
sg680
I19
sg681
I2
sg682
I14
sg683
I29
sg684
I22
sa(dp707
g679
g691
sg680
I20
sg681
I2
sg682
I26
sg683
I31
sg684
I19
sa(dp708
g679
g691
sg680
I21
sg681
I1
sg682
I18
sg683
I35
sg684
I9
sa(dp709
g679
g686
sg680
I22
sg681
I2
sg682
I1
sg683
I27
sg684
I18
sa(dp710
g679
g691
sg680
I23
sg681
I2
sg682
I25
sg683
I31
sg684
I13
sa(dp711
g679
g691
sg680
I24
sg681
I1
sg682
I23
sg683
I35
sg684
I7
sa(dp712
g679
g686
sg680
I25
sg681
I2
sg682
I20
sg683
I27
sg684
I19
sa(dp713
g679
g691
sg680
I26
sg681
I1
sg682
I23
sg683
I31
sg684
I10
sa(dp714
g679
g691
sg680
I27
sg681
I1
sg682
I24
sg683
I35
sg684
I9
sa(dp715
g679
g686
sg680
I28
sg681
I2
sg682
I20
sg683
I27
sg684
I18
sa(dp716
g679
g691
sg680
I29
sg681
I2
sg682
I25
sg683
I31
sg684
I13
sa(dp717
g679
g688
sg680
I30
sg681
I2
sg682
I23
sg683
I35
sg684
I19
sa(dp718
g679
g691
sg680
I31
sg681
I1
sg682
I31
sg683
I35
sg684
I7
sa(dp719
g679
g686
sg680
I32
sg681
I2
sg682
I2
sg683
I29
sg684
I15
sa(dp720
g679
g691
sg680
I33
sg681
I1
sg682
I7
sg683
I35
sg684
I6
sa(dp721
g679
g686
sg680
I34
sg681
I2
sg682
I2
sg683
I25
sg684
I14
sa(dp722
g679
g688
sg680
I35
sg681
I1
sg682
I18
sg683
I29
sg684
I13
sa(dp723
g679
g691
sg680
I36
sg681
I1
sg682
I26
sg683
I31
sg684
I10
sa(dp724
g679
g686
sg680
I37
sg681
I2
sg682
I24
sg683
I25
sg684
I14
sa(dp725
g679
g688
sg680
I38
sg681
I1
sg682
I24
sg683
I29
sg684
I13
sa(dp726
g679
g691
sg680
I39
sg681
I1
sg682
I27
sg683
I33
sg684
I10
sa(dp727
g679
g686
sg680
I40
sg681
I2
sg682
I17
sg683
I25
sg684
I14
sa(dp728
g679
g688
sg680
I41
sg681
I1
sg682
I23
sg683
I29
sg684
I13
sa(dp729
g679
g691
sg680
I42
sg681
I1
sg682
I27
sg683
I33
sg684
I10
sa(dp730
g679
g686
sg680
I43
sg681
I2
sg682
I22
sg683
I25
sg684
I14
sa(dp731
g679
g688
sg680
I44
sg681
I1
sg682
I23
sg683
I29
sg684
I13
sa(dp732
g679
g691
sg680
I45
sg681
I1
sg682
I27
sg683
I33
sg684
I10
sa(dp733
g679
g686
sg680
I46
sg681
I2
sg682
I24
sg683
I29
sg684
I25
sa(dp734
g679
g691
sg680
I47
sg681
I2
sg682
I28
sg683
I31
sg684
I21
sa(dp735
g679
g688
sg680
I48
sg681
I1
sg682
I24
sg683
I29
sg684
I13
sa(dp736
g679
g691
sg680
I49
sg681
I1
sg682
I27
sg683
I33
sg684
I10
sa(dp737
g679
g686
sg680
I50
sg681
I2
sg682
I22
sg683
I29
sg684
I25
sa(dp738
g679
g691
sg680
I51
sg681
I2
sg682
I25
sg683
I33
sg684
I19
sa(dp739
g679
g691
sg680
I52
sg681
I1
sg682
I26
sg683
I37
sg684
I10
sa(dp740
g679
g691
sg680
I53
sg681
I0
sg682
I26
sg683
I41
sg684
I0
satRp741
(dp742
g58
I01
sg59
(lp743
g680
ag683
ag681
ag684
ag682
ag679
asg61
Nsg62
I0
sg63
g64
(g13
tRp744
sbsS'max_archive_size'
p745
NsS'solution_found_flag'
p746
I01
sS'time_taken'
p747
F1.0190949440002441
sS'benchmark_name'
p748
S'M_A3'
p749
sa(dp750
S'tree_str'
p751
S'a3(a3(a3(ARG0,ARG2),a3(ARG0,a3(ARG1,a3(ARG2,ARG0)))),a3(a3(a3(a3(a3(ARG2,ARG0),ARG1),a3(a3(ARG0,ARG0),ARG0)),a3(ARG0,a3(ARG1,a3(ARG1,ARG2)))),a3(ARG2,a3(ARG1,ARG2))))'
p752
sS'tree_len'
p753
I37
sS'archive_size'
p754
I145
sS'number_of_operators'
p755
I18
sS'alg_name'
p756
S'small-LTI'
p757
sS'archive_tree_deapth'
p758
I2
sS'logbook'
p759
g12
(g13
g14
(lp760
(dp761
S'status'
p762
NsS'iteration'
p763
I0
sS'count_wrongs'
p764
I6
sS'picked_node'
p765
NsS'len_master_tree'
p766
I1
sS'total_wrongs'
p767
I6
sa(dp768
g762
S'worst'
p769
sg763
I1
sg764
I8
sg765
I0
sg766
I5
sg767
I34
sa(dp770
g762
S'better'
p771
sg763
I2
sg764
I8
sg765
I3
sg766
I9
sg767
I34
sa(dp772
g762
g771
sg763
I3
sg764
I8
sg765
I8
sg766
I9
sg767
I33
sa(dp773
g762
S'perfect'
p774
sg763
I4
sg764
I7
sg765
I7
sg766
I13
sg767
I18
sa(dp775
g762
g771
sg763
I5
sg764
I6
sg765
I0
sg766
I1
sg767
I6
sa(dp776
g762
g769
sg763
I6
sg764
I8
sg765
I0
sg766
I5
sg767
I34
sa(dp777
g762
g771
sg763
I7
sg764
I8
sg765
I3
sg766
I9
sg767
I28
sa(dp778
g762
g771
sg763
I8
sg764
I6
sg765
I2
sg766
I9
sg767
I32
sa(dp779
g762
g774
sg763
I9
sg764
I5
sg765
I5
sg766
I13
sg767
I15
sa(dp780
g762
g771
sg763
I10
sg764
I4
sg765
I1
sg766
I19
sg767
I35
sa(dp781
g762
g774
sg763
I11
sg764
I3
sg765
I18
sg766
I25
sg767
I23
sa(dp782
g762
g774
sg763
I12
sg764
I3
sg765
I5
sg766
I29
sg767
I22
sa(dp783
g762
g771
sg763
I13
sg764
I2
sg765
I14
sg766
I33
sg767
I37
sa(dp784
g762
g774
sg763
I14
sg764
I2
sg765
I20
sg766
I31
sg767
I34
sa(dp785
g762
g774
sg763
I15
sg764
I1
sg765
I29
sg766
I33
sg767
I9
sa(dp786
g762
g769
sg763
I16
sg764
I2
sg765
I1
sg766
I25
sg767
I18
sa(dp787
g762
g774
sg763
I17
sg764
I2
sg765
I22
sg766
I27
sg767
I13
sa(dp788
g762
g774
sg763
I18
sg764
I1
sg765
I21
sg766
I31
sg767
I7
sa(dp789
g762
g769
sg763
I19
sg764
I2
sg765
I18
sg766
I25
sg767
I18
sa(dp790
g762
g774
sg763
I20
sg764
I2
sg765
I22
sg766
I27
sg767
I13
sa(dp791
g762
g774
sg763
I21
sg764
I1
sg765
I21
sg766
I31
sg767
I7
sa(dp792
g762
g769
sg763
I22
sg764
I2
sg765
I18
sg766
I25
sg767
I19
sa(dp793
g762
g774
sg763
I23
sg764
I1
sg765
I21
sg766
I29
sg767
I10
sa(dp794
g762
g774
sg763
I24
sg764
I1
sg765
I22
sg766
I33
sg767
I9
sa(dp795
g762
g769
sg763
I25
sg764
I2
sg765
I19
sg766
I29
sg767
I22
sa(dp796
g762
g774
sg763
I26
sg764
I2
sg765
I21
sg766
I31
sg767
I15
sa(dp797
g762
g774
sg763
I27
sg764
I1
sg765
I23
sg766
I35
sg767
I9
sa(dp798
g762
g769
sg763
I28
sg764
I2
sg765
I19
sg766
I29
sg767
I22
sa(dp799
g762
g774
sg763
I29
sg764
I1
sg765
I23
sg766
I29
sg767
I10
sa(dp800
g762
g774
sg763
I30
sg764
I1
sg765
I24
sg766
I33
sg767
I9
sa(dp801
g762
g769
sg763
I31
sg764
I2
sg765
I23
sg766
I31
sg767
I24
sa(dp802
g762
g774
sg763
I32
sg764
I2
sg765
I29
sg766
I31
sg767
I18
sa(dp803
g762
g771
sg763
I33
sg764
I1
sg765
I26
sg766
I29
sg767
I10
sa(dp804
g762
g774
sg763
I34
sg764
I1
sg765
I27
sg766
I33
sg767
I9
sa(dp805
g762
g769
sg763
I35
sg764
I2
sg765
I26
sg766
I31
sg767
I23
sa(dp806
g762
g774
sg763
I36
sg764
I1
sg765
I28
sg766
I31
sg767
I9
sa(dp807
g762
g769
sg763
I37
sg764
I2
sg765
I19
sg766
I27
sg767
I12
sa(dp808
g762
g769
sg763
I38
sg764
I3
sg765
I4
sg766
I23
sg767
I40
sa(dp809
g762
g774
sg763
I39
sg764
I2
sg765
I10
sg766
I25
sg767
I20
sa(dp810
g762
g774
sg763
I40
sg764
I2
sg765
I13
sg766
I27
sg767
I17
sa(dp811
g762
g774
sg763
I41
sg764
I1
sg765
I15
sg766
I31
sg767
I6
sa(dp812
g762
g769
sg763
I42
sg764
I2
sg765
I2
sg766
I25
sg767
I27
sa(dp813
g762
g774
sg763
I43
sg764
I2
sg765
I3
sg766
I21
sg767
I14
sa(dp814
g762
g771
sg763
I44
sg764
I1
sg765
I6
sg766
I25
sg767
I13
sa(dp815
g762
g774
sg763
I45
sg764
I1
sg765
I22
sg766
I27
sg767
I10
sa(dp816
g762
g769
sg763
I46
sg764
I2
sg765
I5
sg766
I21
sg767
I14
sa(dp817
g762
g771
sg763
I47
sg764
I1
sg765
I19
sg766
I25
sg767
I13
sa(dp818
g762
g774
sg763
I48
sg764
I1
sg765
I23
sg766
I29
sg767
I10
sa(dp819
g762
g769
sg763
I49
sg764
I2
sg765
I18
sg766
I21
sg767
I14
sa(dp820
g762
g771
sg763
I50
sg764
I1
sg765
I19
sg766
I25
sg767
I13
sa(dp821
g762
g774
sg763
I51
sg764
I1
sg765
I23
sg766
I29
sg767
I10
sa(dp822
g762
g769
sg763
I52
sg764
I2
sg765
I20
sg766
I21
sg767
I14
sa(dp823
g762
g771
sg763
I53
sg764
I1
sg765
I20
sg766
I25
sg767
I13
sa(dp824
g762
g774
sg763
I54
sg764
I1
sg765
I23
sg766
I29
sg767
I10
sa(dp825
g762
g769
sg763
I55
sg764
I2
sg765
I18
sg766
I25
sg767
I25
sa(dp826
g762
g774
sg763
I56
sg764
I2
sg765
I21
sg766
I29
sg767
I19
sa(dp827
g762
g774
sg763
I57
sg764
I1
sg765
I23
sg766
I33
sg767
I7
sa(dp828
g762
g774
sg763
I58
sg764
I0
sg765
I22
sg766
I37
sg767
I0
satRp829
(dp830
g58
I01
sg59
(lp831
g763
ag766
ag764
ag767
ag765
ag762
asg61
Nsg62
I0
sg63
g64
(g13
tRp832
sbsS'max_archive_size'
p833
NsS'solution_found_flag'
p834
I01
sS'time_taken'
p835
F1.0962159633636475
sS'benchmark_name'
p836
S'M_A3'
p837
sa(dp838
S'tree_str'
p839
S'a3(a3(a3(ARG2,ARG0),a3(ARG0,a3(ARG1,ARG1))),a3(a3(a3(ARG0,a3(ARG0,ARG1)),a3(a3(ARG0,ARG2),a3(ARG2,ARG2))),a3(ARG2,a3(ARG1,a3(ARG0,ARG1)))))'
p840
sS'tree_len'
p841
I31
sS'archive_size'
p842
I145
sS'number_of_operators'
p843
I15
sS'alg_name'
p844
S'small-LTI'
p845
sS'archive_tree_deapth'
p846
I2
sS'logbook'
p847
g12
(g13
g14
(lp848
(dp849
S'status'
p850
NsS'iteration'
p851
I0
sS'count_wrongs'
p852
I6
sS'picked_node'
p853
NsS'len_master_tree'
p854
I1
sS'total_wrongs'
p855
I6
sa(dp856
g850
S'worst'
p857
sg851
I1
sg852
I8
sg853
I0
sg854
I5
sg855
I34
sa(dp858
g850
S'better'
p859
sg851
I2
sg852
I8
sg853
I3
sg854
I9
sg855
I33
sa(dp860
g850
S'perfect'
p861
sg851
I3
sg852
I7
sg853
I7
sg854
I13
sg855
I18
sa(dp862
g850
g859
sg851
I4
sg852
I6
sg853
I0
sg854
I1
sg855
I6
sa(dp863
g850
g857
sg851
I5
sg852
I8
sg853
I0
sg854
I5
sg855
I34
sa(dp864
g850
g859
sg851
I6
sg852
I8
sg853
I3
sg854
I9
sg855
I28
sa(dp865
g850
g859
sg851
I7
sg852
I6
sg853
I2
sg854
I9
sg855
I32
sa(dp866
g850
g861
sg851
I8
sg852
I5
sg853
I5
sg854
I13
sg855
I15
sa(dp867
g850
g859
sg851
I9
sg852
I4
sg853
I1
sg854
I19
sg855
I33
sa(dp868
g850
g861
sg851
I10
sg852
I3
sg853
I18
sg854
I25
sg855
I26
sa(dp869
g850
g859
sg851
I11
sg852
I4
sg853
I5
sg854
I25
sg855
I24
sa(dp870
g850
g859
sg851
I12
sg852
I3
sg853
I14
sg854
I29
sg855
I40
sa(dp871
g850
g861
sg851
I13
sg852
I2
sg853
I8
sg854
I27
sg855
I12
sa(dp872
g850
g857
sg851
I14
sg852
I3
sg853
I11
sg854
I21
sg855
I18
sa(dp873
g850
g861
sg851
I15
sg852
I2
sg853
I5
sg854
I23
sg855
I13
sa(dp874
g850
g861
sg851
I16
sg852
I1
sg853
I18
sg854
I27
sg855
I6
sa(dp875
g850
g857
sg851
I17
sg852
I2
sg853
I17
sg854
I23
sg855
I13
sa(dp876
g850
g861
sg851
I18
sg852
I1
sg853
I21
sg854
I27
sg855
I6
sa(dp877
g850
g857
sg851
I19
sg852
I2
sg853
I20
sg854
I23
sg855
I13
sa(dp878
g850
g861
sg851
I20
sg852
I1
sg853
I21
sg854
I27
sg855
I6
sa(dp879
g850
g857
sg851
I21
sg852
I2
sg853
I20
sg854
I25
sg855
I21
sa(dp880
g850
g861
sg851
I22
sg852
I1
sg853
I24
sg854
I27
sg855
I6
sa(dp881
g850
g857
sg851
I23
sg852
I2
sg853
I20
sg854
I25
sg855
I27
sa(dp882
g850
g861
sg851
I24
sg852
I1
sg853
I4
sg854
I25
sg855
I9
sa(dp883
g850
g861
sg851
I25
sg852
I1
sg853
I17
sg854
I27
sg855
I6
sa(dp884
g850
g857
sg851
I26
sg852
I2
sg853
I15
sg854
I23
sg855
I13
sa(dp885
g850
g861
sg851
I27
sg852
I1
sg853
I21
sg854
I27
sg855
I6
sa(dp886
g850
g857
sg851
I28
sg852
I2
sg853
I20
sg854
I23
sg855
I18
sa(dp887
g850
g861
sg851
I29
sg852
I2
sg853
I13
sg854
I27
sg855
I17
sa(dp888
g850
g859
sg851
I30
sg852
I2
sg853
I20
sg854
I27
sg855
I13
sa(dp889
g850
g857
sg851
I31
sg852
I3
sg853
I2
sg854
I27
sg855
I29
sa(dp890
g850
g861
sg851
I32
sg852
I3
sg853
I11
sg854
I29
sg855
I20
sa(dp891
g850
g859
sg851
I33
sg852
I2
sg853
I19
sg854
I29
sg855
I13
sa(dp892
g850
g857
sg851
I34
sg852
I2
sg853
I18
sg854
I29
sg855
I17
sa(dp893
g850
g859
sg851
I35
sg852
I2
sg853
I28
sg854
I29
sg855
I13
sa(dp894
g850
g857
sg851
I36
sg852
I3
sg853
I23
sg854
I29
sg855
I25
sa(dp895
g850
g861
sg851
I37
sg852
I2
sg853
I26
sg854
I29
sg855
I13
sa(dp896
g850
g857
sg851
I38
sg852
I3
sg853
I24
sg854
I29
sg855
I25
sa(dp897
g850
g861
sg851
I39
sg852
I2
sg853
I27
sg854
I29
sg855
I13
sa(dp898
g850
g857
sg851
I40
sg852
I2
sg853
I23
sg854
I29
sg855
I17
sa(dp899
g850
g859
sg851
I41
sg852
I2
sg853
I28
sg854
I33
sg855
I36
sa(dp900
g850
g861
sg851
I42
sg852
I1
sg853
I7
sg854
I29
sg855
I6
sa(dp901
g850
g857
sg851
I43
sg852
I2
sg853
I9
sg854
I25
sg855
I18
sa(dp902
g850
g861
sg851
I44
sg852
I2
sg853
I21
sg854
I29
sg855
I17
sa(dp903
g850
g859
sg851
I45
sg852
I2
sg853
I22
sg854
I29
sg855
I13
sa(dp904
g850
g857
sg851
I46
sg852
I2
sg853
I28
sg854
I29
sg855
I17
sa(dp905
g850
g859
sg851
I47
sg852
I2
sg853
I28
sg854
I33
sg855
I36
sa(dp906
g850
g861
sg851
I48
sg852
I1
sg853
I23
sg854
I29
sg855
I6
sa(dp907
g850
g857
sg851
I49
sg852
I2
sg853
I21
sg854
I25
sg855
I13
sa(dp908
g850
g861
sg851
I50
sg852
I1
sg853
I23
sg854
I29
sg855
I6
sa(dp909
g850
g857
sg851
I51
sg852
I2
sg853
I22
sg854
I25
sg855
I18
sa(dp910
g850
g861
sg851
I52
sg852
I1
sg853
I23
sg854
I29
sg855
I6
sa(dp911
g850
g857
sg851
I53
sg852
I2
sg853
I22
sg854
I25
sg855
I13
sa(dp912
g850
g861
sg851
I54
sg852
I1
sg853
I23
sg854
I29
sg855
I6
sa(dp913
g850
g857
sg851
I55
sg852
I2
sg853
I22
sg854
I27
sg855
I23
sa(dp914
g850
g861
sg851
I56
sg852
I2
sg853
I7
sg854
I23
sg855
I21
sa(dp915
g850
g861
sg851
I57
sg852
I1
sg853
I17
sg854
I25
sg855
I6
sa(dp916
g850
g857
sg851
I58
sg852
I2
sg853
I15
sg854
I23
sg855
I21
sa(dp917
g850
g861
sg851
I59
sg852
I1
sg853
I22
sg854
I25
sg855
I8
sa(dp918
g850
g861
sg851
I60
sg852
I1
sg853
I20
sg854
I25
sg855
I6
sa(dp919
g850
g857
sg851
I61
sg852
I2
sg853
I18
sg854
I21
sg855
I15
sa(dp920
g850
g861
sg851
I62
sg852
I2
sg853
I15
sg854
I23
sg855
I13
sa(dp921
g850
g861
sg851
I63
sg852
I1
sg853
I16
sg854
I27
sg855
I6
sa(dp922
g850
g857
sg851
I64
sg852
I2
sg853
I15
sg854
I23
sg855
I18
sa(dp923
g850
g861
sg851
I65
sg852
I1
sg853
I21
sg854
I27
sg855
I6
sa(dp924
g850
g857
sg851
I66
sg852
I2
sg853
I20
sg854
I25
sg855
I26
sa(dp925
g850
g861
sg851
I67
sg852
I2
sg853
I17
sg854
I23
sg855
I23
sa(dp926
g850
g861
sg851
I68
sg852
I1
sg853
I19
sg854
I25
sg855
I6
sa(dp927
g850
g861
sg851
I69
sg852
I0
sg853
I18
sg854
I31
sg855
I0
satRp928
(dp929
g58
I01
sg59
(lp930
g851
ag854
ag852
ag855
ag853
ag850
asg61
Nsg62
I0
sg63
g64
(g13
tRp931
sbsS'max_archive_size'
p932
NsS'solution_found_flag'
p933
I01
sS'time_taken'
p934
F0.92985320091247559
sS'benchmark_name'
p935
S'M_A3'
p936
sa(dp937
S'tree_str'
p938
S'a3(a3(a3(ARG2,ARG0),a3(ARG2,a3(ARG1,a3(ARG0,ARG2)))),a3(a3(a3(a3(a3(ARG2,ARG2),ARG1),ARG0),a3(ARG2,a3(ARG1,ARG2))),a3(ARG0,a3(ARG1,a3(a3(ARG0,ARG2),ARG2)))))'
p939
sS'tree_len'
p940
I35
sS'archive_size'
p941
I145
sS'number_of_operators'
p942
I17
sS'alg_name'
p943
S'small-LTI'
p944
sS'archive_tree_deapth'
p945
I2
sS'logbook'
p946
g12
(g13
g14
(lp947
(dp948
S'status'
p949
NsS'iteration'
p950
I0
sS'count_wrongs'
p951
I6
sS'picked_node'
p952
NsS'len_master_tree'
p953
I1
sS'total_wrongs'
p954
I6
sa(dp955
g949
S'worst'
p956
sg950
I1
sg951
I8
sg952
I0
sg953
I5
sg954
I34
sa(dp957
g949
S'better'
p958
sg950
I2
sg951
I8
sg952
I3
sg953
I9
sg954
I34
sa(dp959
g949
g958
sg950
I3
sg951
I8
sg952
I8
sg953
I9
sg954
I33
sa(dp960
g949
S'perfect'
p961
sg950
I4
sg951
I7
sg952
I7
sg953
I13
sg954
I18
sa(dp962
g949
g958
sg950
I5
sg951
I6
sg952
I0
sg953
I1
sg954
I6
sa(dp963
g949
g956
sg950
I6
sg951
I8
sg952
I0
sg953
I5
sg954
I34
sa(dp964
g949
g958
sg950
I7
sg951
I8
sg952
I3
sg953
I9
sg954
I28
sa(dp965
g949
g958
sg950
I8
sg951
I6
sg952
I2
sg953
I9
sg954
I32
sa(dp966
g949
g961
sg950
I9
sg951
I5
sg952
I5
sg953
I13
sg954
I15
sa(dp967
g949
g958
sg950
I10
sg951
I4
sg952
I1
sg953
I19
sg954
I38
sa(dp968
g949
g958
sg950
I11
sg951
I2
sg952
I15
sg953
I21
sg954
I14
sa(dp969
g949
g958
sg950
I12
sg951
I1
sg952
I16
sg953
I25
sg954
I13
sa(dp970
g949
g961
sg950
I13
sg951
I1
sg952
I22
sg953
I27
sg954
I10
sa(dp971
g949
g956
sg950
I14
sg951
I2
sg952
I15
sg953
I21
sg954
I14
sa(dp972
g949
g958
sg950
I15
sg951
I1
sg952
I19
sg953
I25
sg954
I13
sa(dp973
g949
g961
sg950
I16
sg951
I1
sg952
I23
sg953
I29
sg954
I10
sa(dp974
g949
g956
sg950
I17
sg951
I2
sg952
I18
sg953
I21
sg954
I14
sa(dp975
g949
g958
sg950
I18
sg951
I1
sg952
I19
sg953
I25
sg954
I13
sa(dp976
g949
g961
sg950
I19
sg951
I1
sg952
I23
sg953
I29
sg954
I10
sa(dp977
g949
g956
sg950
I20
sg951
I2
sg952
I20
sg953
I21
sg954
I14
sa(dp978
g949
g958
sg950
I21
sg951
I1
sg952
I20
sg953
I25
sg954
I13
sa(dp979
g949
g961
sg950
I22
sg951
I1
sg952
I23
sg953
I29
sg954
I10
sa(dp980
g949
g956
sg950
I23
sg951
I2
sg952
I18
sg953
I25
sg954
I25
sa(dp981
g949
g961
sg950
I24
sg951
I2
sg952
I23
sg953
I29
sg954
I21
sa(dp982
g949
g961
sg950
I25
sg951
I1
sg952
I17
sg953
I33
sg954
I8
sa(dp983
g949
g961
sg950
I26
sg951
I0
sg952
I18
sg953
I35
sg954
I0
satRp984
(dp985
g58
I01
sg59
(lp986
g950
ag953
ag951
ag954
ag952
ag949
asg61
Nsg62
I0
sg63
g64
(g13
tRp987
sbsS'max_archive_size'
p988
NsS'solution_found_flag'
p989
I01
sS'time_taken'
p990
F0.66380810737609863
sS'benchmark_name'
p991
S'M_A3'
p992
sa(dp993
S'tree_str'
p994
S'a3(a3(a3(a3(ARG2,a3(ARG1,a3(ARG0,ARG0))),a3(a3(ARG0,ARG1),ARG1)),a3(ARG0,a3(ARG1,ARG0))),a3(a3(ARG2,a3(ARG2,a3(ARG1,ARG2))),a3(ARG0,a3(ARG1,a3(ARG0,a3(ARG0,ARG2))))))'
p995
sS'tree_len'
p996
I37
sS'archive_size'
p997
I145
sS'number_of_operators'
p998
I18
sS'alg_name'
p999
S'small-LTI'
p1000
sS'archive_tree_deapth'
p1001
I2
sS'logbook'
p1002
g12
(g13
g14
(lp1003
(dp1004
S'status'
p1005
NsS'iteration'
p1006
I0
sS'count_wrongs'
p1007
I6
sS'picked_node'
p1008
NsS'len_master_tree'
p1009
I1
sS'total_wrongs'
p1010
I6
sa(dp1011
g1005
S'worst'
p1012
sg1006
I1
sg1007
I8
sg1008
I0
sg1009
I5
sg1010
I34
sa(dp1013
g1005
S'better'
p1014
sg1006
I2
sg1007
I8
sg1008
I3
sg1009
I9
sg1010
I28
sa(dp1015
g1005
g1014
sg1006
I3
sg1007
I6
sg1008
I2
sg1009
I9
sg1010
I32
sa(dp1016
g1005
S'perfect'
p1017
sg1006
I4
sg1007
I5
sg1008
I5
sg1009
I13
sg1010
I15
sa(dp1018
g1005
g1014
sg1006
I5
sg1007
I4
sg1008
I1
sg1009
I19
sg1010
I35
sa(dp1019
g1005
g1017
sg1006
I6
sg1007
I3
sg1008
I18
sg1009
I25
sg1010
I23
sa(dp1020
g1005
g1017
sg1006
I7
sg1007
I3
sg1008
I5
sg1009
I29
sg1010
I22
sa(dp1021
g1005
g1014
sg1006
I8
sg1007
I2
sg1008
I14
sg1009
I33
sg1010
I34
sa(dp1022
g1005
g1017
sg1006
I9
sg1007
I2
sg1008
I22
sg1009
I39
sg1010
I21
sa(dp1023
g1005
g1017
sg1006
I10
sg1007
I1
sg1008
I30
sg1009
I45
sg1010
I9
sa(dp1024
g1005
g1012
sg1006
I11
sg1007
I2
sg1008
I1
sg1009
I37
sg1010
I30
sa(dp1025
g1005
g1017
sg1006
I12
sg1007
I2
sg1008
I6
sg1009
I29
sg1010
I18
sa(dp1026
g1005
g1017
sg1006
I13
sg1007
I2
sg1008
I21
sg1009
I31
sg1010
I13
sa(dp1027
g1005
g1017
sg1006
I14
sg1007
I1
sg1008
I20
sg1009
I35
sg1010
I7
sa(dp1028
g1005
g1012
sg1006
I15
sg1007
I2
sg1008
I17
sg1009
I29
sg1010
I18
sa(dp1029
g1005
g1017
sg1006
I16
sg1007
I2
sg1008
I26
sg1009
I31
sg1010
I13
sa(dp1030
g1005
g1017
sg1006
I17
sg1007
I1
sg1008
I25
sg1009
I35
sg1010
I7
sa(dp1031
g1005
g1012
sg1006
I18
sg1007
I2
sg1008
I22
sg1009
I29
sg1010
I18
sa(dp1032
g1005
g1017
sg1006
I19
sg1007
I2
sg1008
I26
sg1009
I31
sg1010
I13
sa(dp1033
g1005
g1017
sg1006
I20
sg1007
I1
sg1008
I25
sg1009
I35
sg1010
I7
sa(dp1034
g1005
g1012
sg1006
I21
sg1007
I2
sg1008
I22
sg1009
I29
sg1010
I25
sa(dp1035
g1005
g1017
sg1006
I22
sg1007
I2
sg1008
I19
sg1009
I29
sg1010
I19
sa(dp1036
g1005
g1017
sg1006
I23
sg1007
I1
sg1008
I22
sg1009
I33
sg1010
I10
sa(dp1037
g1005
g1017
sg1006
I24
sg1007
I1
sg1008
I23
sg1009
I37
sg1010
I9
sa(dp1038
g1005
g1012
sg1006
I25
sg1007
I2
sg1008
I19
sg1009
I29
sg1010
I18
sa(dp1039
g1005
g1017
sg1006
I26
sg1007
I2
sg1008
I26
sg1009
I31
sg1010
I13
sa(dp1040
g1005
g1014
sg1006
I27
sg1007
I2
sg1008
I25
sg1009
I35
sg1010
I34
sa(dp1041
g1005
g1017
sg1006
I28
sg1007
I1
sg1008
I8
sg1009
I31
sg1010
I7
sa(dp1042
g1005
g1012
sg1006
I29
sg1007
I2
sg1008
I14
sg1009
I27
sg1010
I18
sa(dp1043
g1005
g1017
sg1006
I30
sg1007
I2
sg1008
I16
sg1009
I29
sg1010
I14
sa(dp1044
g1005
g1017
sg1006
I31
sg1007
I1
sg1008
I15
sg1009
I33
sg1010
I5
sa(dp1045
g1005
g1012
sg1006
I32
sg1007
I2
sg1008
I22
sg1009
I35
sg1010
I32
sa(dp1046
g1005
g1017
sg1006
I33
sg1007
I1
sg1008
I8
sg1009
I35
sg1010
I19
sa(dp1047
g1005
g1017
sg1006
I34
sg1007
I0
sg1008
I26
sg1009
I37
sg1010
I0
satRp1048
(dp1049
g58
I01
sg59
(lp1050
g1006
ag1009
ag1007
ag1010
ag1008
ag1005
asg61
Nsg62
I0
sg63
g64
(g13
tRp1051
sbsS'max_archive_size'
p1052
NsS'solution_found_flag'
p1053
I01
sS'time_taken'
p1054
F0.74817395210266113
sS'benchmark_name'
p1055
S'M_A3'
p1056
sa(dp1057
S'tree_str'
p1058
S'a3(a3(a3(ARG0,ARG2),a3(ARG0,a3(ARG1,a3(ARG2,ARG0)))),a3(a3(a3(a3(ARG0,a3(ARG1,a3(ARG2,ARG1))),a3(a3(ARG0,ARG0),ARG2)),ARG0),a3(ARG2,a3(ARG1,ARG2))))'
p1059
sS'tree_len'
p1060
I33
sS'archive_size'
p1061
I145
sS'number_of_operators'
p1062
I16
sS'alg_name'
p1063
S'small-LTI'
p1064
sS'archive_tree_deapth'
p1065
I2
sS'logbook'
p1066
g12
(g13
g14
(lp1067
(dp1068
S'status'
p1069
NsS'iteration'
p1070
I0
sS'count_wrongs'
p1071
I6
sS'picked_node'
p1072
NsS'len_master_tree'
p1073
I1
sS'total_wrongs'
p1074
I6
sa(dp1075
g1069
S'worst'
p1076
sg1070
I1
sg1071
I8
sg1072
I0
sg1073
I5
sg1074
I34
sa(dp1077
g1069
S'better'
p1078
sg1070
I2
sg1071
I8
sg1072
I3
sg1073
I9
sg1074
I34
sa(dp1079
g1069
g1078
sg1070
I3
sg1071
I8
sg1072
I8
sg1073
I9
sg1074
I33
sa(dp1080
g1069
S'perfect'
p1081
sg1070
I4
sg1071
I7
sg1072
I7
sg1073
I13
sg1074
I18
sa(dp1082
g1069
g1078
sg1070
I5
sg1071
I6
sg1072
I0
sg1073
I1
sg1074
I6
sa(dp1083
g1069
g1076
sg1070
I6
sg1071
I8
sg1072
I0
sg1073
I5
sg1074
I34
sa(dp1084
g1069
g1078
sg1070
I7
sg1071
I8
sg1072
I3
sg1073
I9
sg1074
I28
sa(dp1085
g1069
g1078
sg1070
I8
sg1071
I6
sg1072
I2
sg1073
I9
sg1074
I32
sa(dp1086
g1069
g1081
sg1070
I9
sg1071
I5
sg1072
I5
sg1073
I13
sg1074
I15
sa(dp1087
g1069
g1078
sg1070
I10
sg1071
I4
sg1072
I1
sg1073
I19
sg1074
I33
sa(dp1088
g1069
g1081
sg1070
I11
sg1071
I3
sg1072
I18
sg1073
I25
sg1074
I26
sa(dp1089
g1069
g1078
sg1070
I12
sg1071
I4
sg1072
I5
sg1073
I25
sg1074
I24
sa(dp1090
g1069
g1078
sg1070
I13
sg1071
I3
sg1072
I14
sg1073
I29
sg1074
I40
sa(dp1091
g1069
g1081
sg1070
I14
sg1071
I2
sg1072
I6
sg1073
I27
sg1074
I12
sa(dp1092
g1069
g1076
sg1070
I15
sg1071
I3
sg1072
I9
sg1073
I21
sg1074
I18
sa(dp1093
g1069
g1081
sg1070
I16
sg1071
I2
sg1072
I4
sg1073
I23
sg1074
I13
sa(dp1094
g1069
g1081
sg1070
I17
sg1071
I1
sg1072
I16
sg1073
I27
sg1074
I6
sa(dp1095
g1069
g1076
sg1070
I18
sg1071
I2
sg1072
I15
sg1073
I23
sg1074
I13
sa(dp1096
g1069
g1081
sg1070
I19
sg1071
I1
sg1072
I21
sg1073
I27
sg1074
I6
sa(dp1097
g1069
g1076
sg1070
I20
sg1071
I2
sg1072
I20
sg1073
I23
sg1074
I13
sa(dp1098
g1069
g1081
sg1070
I21
sg1071
I1
sg1072
I21
sg1073
I27
sg1074
I6
sa(dp1099
g1069
g1076
sg1070
I22
sg1071
I2
sg1072
I20
sg1073
I23
sg1074
I18
sa(dp1100
g1069
g1081
sg1070
I23
sg1071
I1
sg1072
I21
sg1073
I27
sg1074
I6
sa(dp1101
g1069
g1076
sg1070
I24
sg1071
I2
sg1072
I20
sg1073
I25
sg1074
I26
sa(dp1102
g1069
g1081
sg1070
I25
sg1071
I2
sg1072
I18
sg1073
I25
sg1074
I23
sa(dp1103
g1069
g1081
sg1070
I26
sg1071
I2
sg1072
I15
sg1073
I25
sg1074
I21
sa(dp1104
g1069
g1081
sg1070
I27
sg1071
I1
sg1072
I19
sg1073
I27
sg1074
I8
sa(dp1105
g1069
g1081
sg1070
I28
sg1071
I1
sg1072
I17
sg1073
I27
sg1074
I6
sa(dp1106
g1069
g1076
sg1070
I29
sg1071
I2
sg1072
I15
sg1073
I25
sg1074
I21
sa(dp1107
g1069
g1081
sg1070
I30
sg1071
I1
sg1072
I22
sg1073
I27
sg1074
I6
sa(dp1108
g1069
g1076
sg1070
I31
sg1071
I2
sg1072
I20
sg1073
I25
sg1074
I27
sa(dp1109
g1069
g1081
sg1070
I32
sg1071
I1
sg1072
I15
sg1073
I25
sg1074
I9
sa(dp1110
g1069
g1081
sg1070
I33
sg1071
I1
sg1072
I18
sg1073
I27
sg1074
I8
sa(dp1111
g1069
g1081
sg1070
I34
sg1071
I1
sg1072
I18
sg1073
I27
sg1074
I6
sa(dp1112
g1069
g1076
sg1070
I35
sg1071
I2
sg1072
I15
sg1073
I23
sg1074
I18
sa(dp1113
g1069
g1081
sg1070
I36
sg1071
I2
sg1072
I11
sg1073
I27
sg1074
I17
sa(dp1114
g1069
g1078
sg1070
I37
sg1071
I2
sg1072
I20
sg1073
I27
sg1074
I13
sa(dp1115
g1069
g1076
sg1070
I38
sg1071
I3
sg1072
I2
sg1073
I27
sg1074
I37
sa(dp1116
g1069
g1081
sg1070
I39
sg1071
I3
sg1072
I16
sg1073
I23
sg1074
I33
sa(dp1117
g1069
g1081
sg1070
I40
sg1071
I3
sg1072
I11
sg1073
I21
sg1074
I31
sa(dp1118
g1069
g1081
sg1070
I41
sg1071
I2
sg1072
I18
sg1073
I23
sg1074
I13
sa(dp1119
g1069
g1081
sg1070
I42
sg1071
I1
sg1072
I12
sg1073
I27
sg1074
I7
sa(dp1120
g1069
g1076
sg1070
I43
sg1071
I2
sg1072
I11
sg1073
I23
sg1074
I18
sa(dp1121
g1069
g1081
sg1070
I44
sg1071
I2
sg1072
I15
sg1073
I25
sg1074
I17
sa(dp1122
g1069
g1081
sg1070
I45
sg1071
I2
sg1072
I7
sg1073
I25
sg1074
I12
sa(dp1123
g1069
g1081
sg1070
I46
sg1071
I1
sg1072
I19
sg1073
I29
sg1074
I6
sa(dp1124
g1069
g1076
sg1070
I47
sg1071
I2
sg1072
I17
sg1073
I25
sg1074
I20
sa(dp1125
g1069
g1081
sg1070
I48
sg1071
I2
sg1072
I8
sg1073
I27
sg1074
I18
sa(dp1126
g1069
g1081
sg1070
I49
sg1071
I2
sg1072
I15
sg1073
I27
sg1074
I23
sa(dp1127
g1069
g1081
sg1070
I50
sg1071
I1
sg1072
I15
sg1073
I27
sg1074
I6
sa(dp1128
g1069
g1076
sg1070
I51
sg1071
I2
sg1072
I3
sg1073
I23
sg1074
I26
sa(dp1129
g1069
g1081
sg1070
I52
sg1071
I2
sg1072
I3
sg1073
I21
sg1074
I14
sa(dp1130
g1069
g1078
sg1070
I53
sg1071
I1
sg1072
I10
sg1073
I25
sg1074
I13
sa(dp1131
g1069
g1081
sg1070
I54
sg1071
I1
sg1072
I22
sg1073
I27
sg1074
I10
sa(dp1132
g1069
g1076
sg1070
I55
sg1071
I2
sg1072
I20
sg1073
I21
sg1074
I14
sa(dp1133
g1069
g1078
sg1070
I56
sg1071
I1
sg1072
I20
sg1073
I25
sg1074
I13
sa(dp1134
g1069
g1081
sg1070
I57
sg1071
I1
sg1072
I23
sg1073
I29
sg1074
I10
sa(dp1135
g1069
g1076
sg1070
I58
sg1071
I2
sg1072
I9
sg1073
I21
sg1074
I14
sa(dp1136
g1069
g1078
sg1070
I59
sg1071
I1
sg1072
I19
sg1073
I25
sg1074
I13
sa(dp1137
g1069
g1081
sg1070
I60
sg1071
I1
sg1072
I23
sg1073
I29
sg1074
I10
sa(dp1138
g1069
g1076
sg1070
I61
sg1071
I2
sg1072
I18
sg1073
I21
sg1074
I14
sa(dp1139
g1069
g1078
sg1070
I62
sg1071
I1
sg1072
I19
sg1073
I27
sg1074
I15
sa(dp1140
g1069
g1081
sg1070
I63
sg1071
I1
sg1072
I21
sg1073
I29
sg1074
I12
sa(dp1141
g1069
g1081
sg1070
I64
sg1071
I0
sg1072
I23
sg1073
I33
sg1074
I0
satRp1142
(dp1143
g58
I01
sg59
(lp1144
g1070
ag1073
ag1071
ag1074
ag1072
ag1069
asg61
Nsg62
I0
sg63
g64
(g13
tRp1145
sbsS'max_archive_size'
p1146
NsS'solution_found_flag'
p1147
I01
sS'time_taken'
p1148
F1.2861309051513672
sS'benchmark_name'
p1149
S'M_A3'
p1150
sa(dp1151
S'tree_str'
p1152
S'a3(a3(a3(ARG0,ARG2),a3(ARG2,a3(ARG1,ARG1))),a3(a3(a3(ARG2,a3(ARG2,ARG1)),a3(a3(ARG2,ARG1),a3(ARG0,ARG0))),a3(ARG0,a3(ARG1,a3(ARG2,ARG0)))))'
p1153
sS'tree_len'
p1154
I31
sS'archive_size'
p1155
I145
sS'number_of_operators'
p1156
I15
sS'alg_name'
p1157
S'small-LTI'
p1158
sS'archive_tree_deapth'
p1159
I2
sS'logbook'
p1160
g12
(g13
g14
(lp1161
(dp1162
S'status'
p1163
NsS'iteration'
p1164
I0
sS'count_wrongs'
p1165
I6
sS'picked_node'
p1166
NsS'len_master_tree'
p1167
I1
sS'total_wrongs'
p1168
I6
sa(dp1169
g1163
S'worst'
p1170
sg1164
I1
sg1165
I8
sg1166
I0
sg1167
I5
sg1168
I34
sa(dp1171
g1163
S'better'
p1172
sg1164
I2
sg1165
I8
sg1166
I3
sg1167
I9
sg1168
I28
sa(dp1173
g1163
g1172
sg1164
I3
sg1165
I6
sg1166
I2
sg1167
I9
sg1168
I32
sa(dp1174
g1163
S'perfect'
p1175
sg1164
I4
sg1165
I5
sg1166
I5
sg1167
I13
sg1168
I15
sa(dp1176
g1163
g1172
sg1164
I5
sg1165
I4
sg1166
I1
sg1167
I19
sg1168
I33
sa(dp1177
g1163
g1175
sg1164
I6
sg1165
I3
sg1166
I18
sg1167
I25
sg1168
I26
sa(dp1178
g1163
g1172
sg1164
I7
sg1165
I4
sg1166
I4
sg1167
I25
sg1168
I24
sa(dp1179
g1163
g1172
sg1164
I8
sg1165
I3
sg1166
I12
sg1167
I29
sg1168
I38
sa(dp1180
g1163
g1175
sg1164
I9
sg1165
I2
sg1166
I4
sg1167
I27
sg1168
I12
sa(dp1181
g1163
g1175
sg1164
I10
sg1165
I1
sg1166
I16
sg1167
I27
sg1168
I7
sa(dp1182
g1163
g1175
sg1164
I11
sg1165
I0
sg1166
I8
sg1167
I31
sg1168
I0
satRp1183
(dp1184
g58
I01
sg59
(lp1185
g1164
ag1167
ag1165
ag1168
ag1166
ag1163
asg61
Nsg62
I0
sg63
g64
(g13
tRp1186
sbsS'max_archive_size'
p1187
NsS'solution_found_flag'
p1188
I01
sS'time_taken'
p1189
F0.5210719108581543
sS'benchmark_name'
p1190
S'M_A3'
p1191
sa(dp1192
S'tree_str'
p1193
S'a3(a3(a3(ARG0,a3(ARG0,ARG1)),a3(ARG2,a3(ARG1,a3(ARG0,ARG1)))),a3(a3(a3(a3(a3(ARG0,ARG2),a3(ARG0,ARG0)),a3(ARG1,a3(ARG0,ARG1))),ARG2),a3(ARG0,a3(ARG1,ARG0))))'
p1194
sS'tree_len'
p1195
I35
sS'archive_size'
p1196
I145
sS'number_of_operators'
p1197
I17
sS'alg_name'
p1198
S'small-LTI'
p1199
sS'archive_tree_deapth'
p1200
I2
sS'logbook'
p1201
g12
(g13
g14
(lp1202
(dp1203
S'status'
p1204
NsS'iteration'
p1205
I0
sS'count_wrongs'
p1206
I6
sS'picked_node'
p1207
NsS'len_master_tree'
p1208
I1
sS'total_wrongs'
p1209
I6
sa(dp1210
g1204
S'worst'
p1211
sg1205
I1
sg1206
I8
sg1207
I0
sg1208
I5
sg1209
I34
sa(dp1212
g1204
S'better'
p1213
sg1205
I2
sg1206
I8
sg1207
I3
sg1208
I9
sg1209
I34
sa(dp1214
g1204
g1213
sg1205
I3
sg1206
I8
sg1207
I8
sg1208
I9
sg1209
I33
sa(dp1215
g1204
S'perfect'
p1216
sg1205
I4
sg1206
I7
sg1207
I7
sg1208
I13
sg1209
I18
sa(dp1217
g1204
g1213
sg1205
I5
sg1206
I6
sg1207
I0
sg1208
I1
sg1209
I6
sa(dp1218
g1204
g1211
sg1205
I6
sg1206
I8
sg1207
I0
sg1208
I5
sg1209
I34
sa(dp1219
g1204
g1213
sg1205
I7
sg1206
I8
sg1207
I3
sg1208
I9
sg1209
I28
sa(dp1220
g1204
g1213
sg1205
I8
sg1206
I6
sg1207
I2
sg1208
I9
sg1209
I32
sa(dp1221
g1204
g1216
sg1205
I9
sg1206
I5
sg1207
I5
sg1208
I13
sg1209
I15
sa(dp1222
g1204
g1213
sg1205
I10
sg1206
I4
sg1207
I1
sg1208
I19
sg1209
I35
sa(dp1223
g1204
g1213
sg1205
I11
sg1206
I3
sg1207
I13
sg1208
I21
sg1209
I23
sa(dp1224
g1204
g1216
sg1205
I12
sg1206
I3
sg1207
I5
sg1208
I25
sg1209
I22
sa(dp1225
g1204
g1213
sg1205
I13
sg1206
I2
sg1207
I13
sg1208
I29
sg1209
I22
sa(dp1226
g1204
g1216
sg1205
I14
sg1206
I2
sg1207
I27
sg1208
I31
sg1209
I19
sa(dp1227
g1204
g1216
sg1205
I15
sg1206
I1
sg1207
I25
sg1208
I35
sg1209
I9
sa(dp1228
g1204
g1211
sg1205
I16
sg1206
I2
sg1207
I1
sg1208
I27
sg1209
I19
sa(dp1229
g1204
g1216
sg1205
I17
sg1206
I1
sg1207
I23
sg1208
I31
sg1209
I10
sa(dp1230
g1204
g1216
sg1205
I18
sg1206
I1
sg1207
I24
sg1208
I35
sg1209
I9
sa(dp1231
g1204
g1211
sg1205
I19
sg1206
I2
sg1207
I20
sg1208
I27
sg1209
I26
sa(dp1232
g1204
g1216
sg1205
I20
sg1206
I2
sg1207
I13
sg1208
I27
sg1209
I26
sa(dp1233
g1204
g1216
sg1205
I21
sg1206
I1
sg1207
I11
sg1208
I29
sg1209
I8
sa(dp1234
g1204
g1216
sg1205
I22
sg1206
I1
sg1207
I22
sg1208
I31
sg1209
I5
sa(dp1235
g1204
g1216
sg1205
I23
sg1206
I0
sg1207
I21
sg1208
I35
sg1209
I0
satRp1236
(dp1237
g58
I01
sg59
(lp1238
g1205
ag1208
ag1206
ag1209
ag1207
ag1204
asg61
Nsg62
I0
sg63
g64
(g13
tRp1239
sbsS'max_archive_size'
p1240
NsS'solution_found_flag'
p1241
I01
sS'time_taken'
p1242
F0.35297513008117676
sS'benchmark_name'
p1243
S'M_A3'
p1244
sa(dp1245
S'tree_str'
p1246
S'a3(a3(a3(ARG2,ARG0),a3(ARG0,a3(ARG1,ARG1))),a3(a3(a3(ARG0,a3(ARG0,ARG1)),a3(a3(ARG0,ARG1),a3(ARG2,ARG1))),a3(ARG2,a3(ARG1,a3(ARG0,ARG2)))))'
p1247
sS'tree_len'
p1248
I31
sS'archive_size'
p1249
I145
sS'number_of_operators'
p1250
I15
sS'alg_name'
p1251
S'small-LTI'
p1252
sS'archive_tree_deapth'
p1253
I2
sS'logbook'
p1254
g12
(g13
g14
(lp1255
(dp1256
S'status'
p1257
NsS'iteration'
p1258
I0
sS'count_wrongs'
p1259
I6
sS'picked_node'
p1260
NsS'len_master_tree'
p1261
I1
sS'total_wrongs'
p1262
I6
sa(dp1263
g1257
S'worst'
p1264
sg1258
I1
sg1259
I8
sg1260
I0
sg1261
I5
sg1262
I34
sa(dp1265
g1257
S'better'
p1266
sg1258
I2
sg1259
I8
sg1260
I3
sg1261
I9
sg1262
I28
sa(dp1267
g1257
g1266
sg1258
I3
sg1259
I6
sg1260
I2
sg1261
I9
sg1262
I32
sa(dp1268
g1257
S'perfect'
p1269
sg1258
I4
sg1259
I5
sg1260
I5
sg1261
I13
sg1262
I15
sa(dp1270
g1257
g1266
sg1258
I5
sg1259
I4
sg1260
I1
sg1261
I19
sg1262
I33
sa(dp1271
g1257
g1269
sg1258
I6
sg1259
I3
sg1260
I18
sg1261
I25
sg1262
I26
sa(dp1272
g1257
g1266
sg1258
I7
sg1259
I4
sg1260
I4
sg1261
I25
sg1262
I24
sa(dp1273
g1257
g1266
sg1258
I8
sg1259
I3
sg1260
I12
sg1261
I29
sg1262
I40
sa(dp1274
g1257
g1269
sg1258
I9
sg1259
I2
sg1260
I6
sg1261
I27
sg1262
I12
sa(dp1275
g1257
g1269
sg1258
I10
sg1259
I1
sg1260
I18
sg1261
I27
sg1262
I7
sa(dp1276
g1257
g1269
sg1258
I11
sg1259
I0
sg1260
I10
sg1261
I31
sg1262
I0
satRp1277
(dp1278
g58
I01
sg59
(lp1279
g1258
ag1261
ag1259
ag1262
ag1260
ag1257
asg61
Nsg62
I0
sg63
g64
(g13
tRp1280
sbsS'max_archive_size'
p1281
NsS'solution_found_flag'
p1282
I01
sS'time_taken'
p1283
F0.65445613861083984
sS'benchmark_name'
p1284
S'M_A3'
p1285
sa(dp1286
S'tree_str'
p1287
S'a3(a3(a3(ARG2,a3(ARG0,ARG1)),a3(ARG0,a3(ARG1,a3(ARG2,ARG1)))),a3(a3(a3(ARG0,a3(ARG0,ARG2)),a3(a3(ARG2,ARG0),ARG1)),a3(ARG2,a3(ARG1,a3(a3(ARG0,ARG1),a3(ARG1,ARG0))))))'
p1288
sS'tree_len'
p1289
I37
sS'archive_size'
p1290
I145
sS'number_of_operators'
p1291
I18
sS'alg_name'
p1292
S'small-LTI'
p1293
sS'archive_tree_deapth'
p1294
I2
sS'logbook'
p1295
g12
(g13
g14
(lp1296
(dp1297
S'status'
p1298
NsS'iteration'
p1299
I0
sS'count_wrongs'
p1300
I6
sS'picked_node'
p1301
NsS'len_master_tree'
p1302
I1
sS'total_wrongs'
p1303
I6
sa(dp1304
g1298
S'worst'
p1305
sg1299
I1
sg1300
I8
sg1301
I0
sg1302
I5
sg1303
I34
sa(dp1306
g1298
S'better'
p1307
sg1299
I2
sg1300
I8
sg1301
I3
sg1302
I9
sg1303
I28
sa(dp1308
g1298
g1307
sg1299
I3
sg1300
I6
sg1301
I2
sg1302
I9
sg1303
I32
sa(dp1309
g1298
S'perfect'
p1310
sg1299
I4
sg1300
I5
sg1301
I5
sg1302
I13
sg1303
I15
sa(dp1311
g1298
g1307
sg1299
I5
sg1300
I4
sg1301
I1
sg1302
I19
sg1303
I35
sa(dp1312
g1298
g1310
sg1299
I6
sg1300
I3
sg1301
I18
sg1302
I25
sg1303
I23
sa(dp1313
g1298
g1310
sg1299
I7
sg1300
I3
sg1301
I5
sg1302
I29
sg1303
I22
sa(dp1314
g1298
g1307
sg1299
I8
sg1300
I2
sg1301
I14
sg1302
I33
sg1303
I37
sa(dp1315
g1298
g1310
sg1299
I9
sg1300
I2
sg1301
I20
sg1302
I31
sg1303
I34
sa(dp1316
g1298
g1310
sg1299
I10
sg1300
I1
sg1301
I27
sg1302
I33
sg1303
I9
sa(dp1317
g1298
g1305
sg1299
I11
sg1300
I2
sg1301
I1
sg1302
I25
sg1303
I18
sa(dp1318
g1298
g1310
sg1299
I12
sg1300
I2
sg1301
I22
sg1302
I27
sg1303
I13
sa(dp1319
g1298
g1310
sg1299
I13
sg1300
I1
sg1301
I21
sg1302
I31
sg1303
I7
sa(dp1320
g1298
g1305
sg1299
I14
sg1300
I2
sg1301
I18
sg1302
I25
sg1303
I19
sa(dp1321
g1298
g1310
sg1299
I15
sg1300
I1
sg1301
I21
sg1302
I29
sg1303
I10
sa(dp1322
g1298
g1310
sg1299
I16
sg1300
I1
sg1301
I22
sg1302
I33
sg1303
I9
sa(dp1323
g1298
g1305
sg1299
I17
sg1300
I2
sg1301
I18
sg1302
I25
sg1303
I18
sa(dp1324
g1298
g1310
sg1299
I18
sg1300
I2
sg1301
I22
sg1302
I27
sg1303
I13
sa(dp1325
g1298
g1310
sg1299
I19
sg1300
I1
sg1301
I21
sg1302
I31
sg1303
I7
sa(dp1326
g1298
g1305
sg1299
I20
sg1300
I2
sg1301
I4
sg1302
I27
sg1303
I17
sa(dp1327
g1298
g1310
sg1299
I21
sg1300
I2
sg1301
I7
sg1302
I27
sg1303
I12
sa(dp1328
g1298
g1310
sg1299
I22
sg1300
I1
sg1301
I25
sg1302
I27
sg1303
I6
sa(dp1329
g1298
g1305
sg1299
I23
sg1300
I2
sg1301
I2
sg1302
I23
sg1303
I14
sa(dp1330
g1298
g1310
sg1299
I24
sg1300
I1
sg1301
I22
sg1302
I27
sg1303
I6
sa(dp1331
g1298
g1305
sg1299
I25
sg1300
I2
sg1301
I18
sg1302
I23
sg1303
I14
sa(dp1332
g1298
g1310
sg1299
I26
sg1300
I1
sg1301
I22
sg1302
I27
sg1303
I6
sa(dp1333
g1298
g1305
sg1299
I27
sg1300
I2
sg1301
I15
sg1302
I27
sg1303
I12
sa(dp1334
g1298
g1310
sg1299
I28
sg1300
I1
sg1301
I26
sg1302
I27
sg1303
I6
sa(dp1335
g1298
g1305
sg1299
I29
sg1300
I2
sg1301
I15
sg1302
I23
sg1303
I14
sa(dp1336
g1298
g1310
sg1299
I30
sg1300
I1
sg1301
I22
sg1302
I29
sg1303
I6
sa(dp1337
g1298
g1305
sg1299
I31
sg1300
I2
sg1301
I15
sg1302
I29
sg1303
I12
sa(dp1338
g1298
g1310
sg1299
I32
sg1300
I1
sg1301
I28
sg1302
I29
sg1303
I6
sa(dp1339
g1298
g1305
sg1299
I33
sg1300
I2
sg1301
I26
sg1302
I29
sg1303
I12
sa(dp1340
g1298
g1310
sg1299
I34
sg1300
I1
sg1301
I28
sg1302
I33
sg1303
I6
sa(dp1341
g1298
g1310
sg1299
I35
sg1300
I0
sg1301
I27
sg1302
I37
sg1303
I0
satRp1342
(dp1343
g58
I01
sg59
(lp1344
g1299
ag1302
ag1300
ag1303
ag1301
ag1298
asg61
Nsg62
I0
sg63
g64
(g13
tRp1345
sbsS'max_archive_size'
p1346
NsS'solution_found_flag'
p1347
I01
sS'time_taken'
p1348
F0.69497084617614746
sS'benchmark_name'
p1349
S'M_A3'
p1350
sa.