(lp1
(dp2
S'tree_str'
p3
S'a4(a4(a4(a4(a4(a4(ARG1,ARG1),ARG1),ARG0),a4(a4(ARG2,ARG1),ARG2)),a4(a4(ARG2,a4(a4(ARG1,ARG2),a4(ARG1,a4(ARG1,ARG2)))),a4(a4(ARG0,ARG0),a4(a4(ARG0,ARG2),ARG0)))),a4(a4(ARG2,a4(ARG0,a4(ARG1,ARG2))),a4(a4(ARG1,a4(a4(ARG1,ARG0),ARG0)),a4(a4(ARG0,ARG2),ARG0))))'
p4
sS'tree_len'
p5
I57
sS'archive_size'
p6
I130
sS'number_of_operators'
p7
I28
sS'alg_name'
p8
S'small-LTI'
p9
sS'archive_tree_deapth'
p10
I2
sS'logbook'
p11
ccopy_reg
_reconstructor
p12
(ctreeimprove.utilities
Logbook
p13
c__builtin__
list
p14
(lp15
(dp16
S'status'
p17
NsS'iteration'
p18
I0
sS'count_wrongs'
p19
I6
sS'picked_node'
p20
NsS'len_master_tree'
p21
I1
sS'total_wrongs'
p22
I6
sa(dp23
g17
S'worst'
p24
sg18
I1
sg19
I7
sg20
I0
sg21
I5
sg22
I30
sa(dp25
g17
S'better'
p26
sg18
I2
sg19
I5
sg20
I4
sg21
I9
sg22
I16
sa(dp27
g17
g24
sg18
I3
sg19
I6
sg20
I8
sg21
I13
sg22
I28
sa(dp28
g17
S'perfect'
p29
sg18
I4
sg19
I5
sg20
I5
sg21
I17
sg22
I20
sa(dp30
g17
g24
sg18
I5
sg19
I6
sg20
I7
sg21
I13
sg22
I25
sa(dp31
g17
g29
sg18
I6
sg19
I5
sg20
I7
sg21
I9
sg22
I16
sa(dp32
g17
g24
sg18
I7
sg19
I6
sg20
I7
sg21
I13
sg22
I28
sa(dp33
g17
g29
sg18
I8
sg19
I5
sg20
I7
sg21
I17
sg22
I20
sa(dp34
g17
g24
sg18
I9
sg19
I6
sg20
I5
sg21
I13
sg22
I25
sa(dp35
g17
g29
sg18
I10
sg19
I5
sg20
I5
sg21
I9
sg22
I16
sa(dp36
g17
g24
sg18
I11
sg19
I6
sg20
I7
sg21
I13
sg22
I26
sa(dp37
g17
g26
sg18
I12
sg19
I5
sg20
I8
sg21
I9
sg22
I16
sa(dp38
g17
g24
sg18
I13
sg19
I5
sg20
I6
sg21
I13
sg22
I32
sa(dp39
g17
g26
sg18
I14
sg19
I5
sg20
I8
sg21
I9
sg22
I16
sa(dp40
g17
g24
sg18
I15
sg19
I5
sg20
I8
sg21
I13
sg22
I32
sa(dp41
g17
g26
sg18
I16
sg19
I5
sg20
I10
sg21
I13
sg22
I20
sa(dp42
g17
g24
sg18
I17
sg19
I5
sg20
I8
sg21
I13
sg22
I32
sa(dp43
g17
g26
sg18
I18
sg19
I5
sg20
I8
sg21
I13
sg22
I21
sa(dp44
g17
g24
sg18
I19
sg19
I5
sg20
I10
sg21
I13
sg22
I32
sa(dp45
g17
g26
sg18
I20
sg19
I5
sg20
I8
sg21
I13
sg22
I20
sa(dp46
g17
g24
sg18
I21
sg19
I5
sg20
I10
sg21
I13
sg22
I32
sa(dp47
g17
g26
sg18
I22
sg19
I5
sg20
I8
sg21
I13
sg22
I21
sa(dp48
g17
g24
sg18
I23
sg19
I5
sg20
I11
sg21
I13
sg22
I32
sa(dp49
g17
g26
sg18
I24
sg19
I5
sg20
I10
sg21
I13
sg22
I21
sa(dp50
g17
g24
sg18
I25
sg19
I5
sg20
I11
sg21
I17
sg22
I40
sa(dp51
g17
g26
sg18
I26
sg19
I5
sg20
I12
sg21
I13
sg22
I21
sa(dp52
g17
g24
sg18
I27
sg19
I5
sg20
I12
sg21
I13
sg22
I32
sa(dp53
g17
g26
sg18
I28
sg19
I5
sg20
I8
sg21
I13
sg22
I22
sa(dp54
g17
g24
sg18
I29
sg19
I6
sg20
I6
sg21
I17
sg22
I36
sa(dp55
g17
g26
sg18
I30
sg19
I5
sg20
I6
sg21
I21
sg22
I27
sa(dp56
g17
g24
sg18
I31
sg19
I6
sg20
I16
sg21
I17
sg22
I36
sa(dp57
g17
g26
sg18
I32
sg19
I5
sg20
I11
sg21
I13
sg22
I22
sa(dp58
g17
g24
sg18
I33
sg19
I5
sg20
I6
sg21
I13
sg22
I32
sa(dp59
g17
g26
sg18
I34
sg19
I5
sg20
I8
sg21
I13
sg22
I20
sa(dp60
g17
g24
sg18
I35
sg19
I6
sg20
I9
sg21
I17
sg22
I36
sa(dp61
g17
g26
sg18
I36
sg19
I5
sg20
I12
sg21
I13
sg22
I20
sa(dp62
g17
g24
sg18
I37
sg19
I6
sg20
I12
sg21
I17
sg22
I36
sa(dp63
g17
g26
sg18
I38
sg19
I5
sg20
I11
sg21
I21
sg22
I28
sa(dp64
g17
g24
sg18
I39
sg19
I6
sg20
I11
sg21
I17
sg22
I35
sa(dp65
g17
g26
sg18
I40
sg19
I5
sg20
I9
sg21
I13
sg22
I20
sa(dp66
g17
g24
sg18
I41
sg19
I5
sg20
I11
sg21
I17
sg22
I40
sa(dp67
g17
g26
sg18
I42
sg19
I5
sg20
I10
sg21
I13
sg22
I20
sa(dp68
g17
g24
sg18
I43
sg19
I6
sg20
I6
sg21
I17
sg22
I30
sa(dp69
g17
g29
sg18
I44
sg19
I5
sg20
I6
sg21
I21
sg22
I22
sa(dp70
g17
g24
sg18
I45
sg19
I5
sg20
I6
sg21
I17
sg22
I36
sa(dp71
g17
g29
sg18
I46
sg19
I4
sg20
I9
sg21
I17
sg22
I9
sa(dp72
g17
g24
sg18
I47
sg19
I4
sg20
I3
sg21
I21
sg22
I51
sa(dp73
g17
g26
sg18
I48
sg19
I4
sg20
I16
sg21
I17
sg22
I9
sa(dp74
g17
g24
sg18
I49
sg19
I4
sg20
I16
sg21
I21
sg22
I51
sa(dp75
g17
g26
sg18
I50
sg19
I4
sg20
I4
sg21
I21
sg22
I41
sa(dp76
g17
g26
sg18
I51
sg19
I5
sg20
I10
sg21
I25
sg22
I56
sa(dp77
g17
g29
sg18
I52
sg19
I4
sg20
I5
sg21
I29
sg22
I35
sa(dp78
g17
g26
sg18
I53
sg19
I3
sg20
I1
sg21
I33
sg22
I34
sa(dp79
g17
g24
sg18
I54
sg19
I4
sg20
I9
sg21
I37
sg22
I61
sa(dp80
g17
g29
sg18
I55
sg19
I4
sg20
I3
sg21
I35
sg22
I53
sa(dp81
g17
g26
sg18
I56
sg19
I4
sg20
I4
sg21
I31
sg22
I49
sa(dp82
g17
g26
sg18
I57
sg19
I3
sg20
I29
sg21
I35
sg22
I38
sa(dp83
g17
g24
sg18
I58
sg19
I4
sg20
I28
sg21
I31
sg22
I49
sa(dp84
g17
g26
sg18
I59
sg19
I3
sg20
I29
sg21
I35
sg22
I38
sa(dp85
g17
g24
sg18
I60
sg19
I4
sg20
I30
sg21
I31
sg22
I49
sa(dp86
g17
g26
sg18
I61
sg19
I3
sg20
I30
sg21
I35
sg22
I38
sa(dp87
g17
g24
sg18
I62
sg19
I3
sg20
I4
sg21
I33
sg22
I60
sa(dp88
g17
g26
sg18
I63
sg19
I3
sg20
I30
sg21
I35
sg22
I36
sa(dp89
g17
g26
sg18
I64
sg19
I2
sg20
I11
sg21
I35
sg22
I10
sa(dp90
g17
g24
sg18
I65
sg19
I3
sg20
I9
sg21
I35
sg22
I36
sa(dp91
g17
g26
sg18
I66
sg19
I2
sg20
I32
sg21
I35
sg22
I10
sa(dp92
g17
g24
sg18
I67
sg19
I3
sg20
I30
sg21
I35
sg22
I36
sa(dp93
g17
g26
sg18
I68
sg19
I2
sg20
I30
sg21
I35
sg22
I10
sa(dp94
g17
g24
sg18
I69
sg19
I3
sg20
I32
sg21
I35
sg22
I36
sa(dp95
g17
g26
sg18
I70
sg19
I2
sg20
I33
sg21
I39
sg22
I18
sa(dp96
g17
g24
sg18
I71
sg19
I3
sg20
I34
sg21
I35
sg22
I36
sa(dp97
g17
g26
sg18
I72
sg19
I2
sg20
I34
sg21
I39
sg22
I18
sa(dp98
g17
g24
sg18
I73
sg19
I3
sg20
I37
sg21
I39
sg22
I67
sa(dp99
g17
g26
sg18
I74
sg19
I2
sg20
I25
sg21
I39
sg22
I32
sa(dp100
g17
g29
sg18
I75
sg19
I1
sg20
I35
sg21
I43
sg22
I9
sa(dp101
g17
g24
sg18
I76
sg19
I2
sg20
I25
sg21
I39
sg22
I11
sa(dp102
g17
g26
sg18
I77
sg19
I2
sg20
I37
sg21
I43
sg22
I14
sa(dp103
g17
g24
sg18
I78
sg19
I2
sg20
I38
sg21
I39
sg22
I11
sa(dp104
g17
g26
sg18
I79
sg19
I2
sg20
I38
sg21
I43
sg22
I14
sa(dp105
g17
g24
sg18
I80
sg19
I2
sg20
I38
sg21
I43
sg22
I18
sa(dp106
g17
g26
sg18
I81
sg19
I2
sg20
I41
sg21
I47
sg22
I18
sa(dp107
g17
g24
sg18
I82
sg19
I2
sg20
I40
sg21
I43
sg22
I18
sa(dp108
g17
g24
sg18
I83
sg19
I3
sg20
I35
sg21
I43
sg22
I53
sa(dp109
g17
g26
sg18
I84
sg19
I2
sg20
I42
sg21
I43
sg22
I18
sa(dp110
g17
g26
sg18
I85
sg19
I2
sg20
I40
sg21
I47
sg22
I18
sa(dp111
g17
g24
sg18
I86
sg19
I2
sg20
I42
sg21
I43
sg22
I18
sa(dp112
g17
g26
sg18
I87
sg19
I2
sg20
I42
sg21
I47
sg22
I18
sa(dp113
g17
g24
sg18
I88
sg19
I2
sg20
I37
sg21
I43
sg22
I18
sa(dp114
g17
g24
sg18
I89
sg19
I3
sg20
I34
sg21
I39
sg22
I41
sa(dp115
g17
g26
sg18
I90
sg19
I2
sg20
I35
sg21
I39
sg22
I11
sa(dp116
g17
g26
sg18
I91
sg19
I2
sg20
I36
sg21
I43
sg22
I14
sa(dp117
g17
g24
sg18
I92
sg19
I2
sg20
I38
sg21
I43
sg22
I18
sa(dp118
g17
g24
sg18
I93
sg19
I3
sg20
I34
sg21
I39
sg22
I49
sa(dp119
g17
g29
sg18
I94
sg19
I2
sg20
I4
sg21
I39
sg22
I10
sa(dp120
g17
g24
sg18
I95
sg19
I3
sg20
I29
sg21
I39
sg22
I50
sa(dp121
g17
g29
sg18
I96
sg19
I2
sg20
I29
sg21
I39
sg22
I11
sa(dp122
g17
g26
sg18
I97
sg19
I2
sg20
I32
sg21
I43
sg22
I14
sa(dp123
g17
g24
sg18
I98
sg19
I3
sg20
I30
sg21
I43
sg22
I53
sa(dp124
g17
g26
sg18
I99
sg19
I2
sg20
I42
sg21
I47
sg22
I50
sa(dp125
g17
g29
sg18
I100
sg19
I1
sg20
I26
sg21
I49
sg22
I9
sa(dp126
g17
g24
sg18
I101
sg19
I2
sg20
I38
sg21
I53
sg22
I47
sa(dp127
g17
g29
sg18
I102
sg19
I1
sg20
I43
sg21
I51
sg22
I13
sa(dp128
g17
g24
sg18
I103
sg19
I2
sg20
I26
sg21
I39
sg22
I11
sa(dp129
g17
g24
sg18
I104
sg19
I4
sg20
I38
sg21
I39
sg22
I46
sa(dp130
g17
g26
sg18
I105
sg19
I2
sg20
I34
sg21
I39
sg22
I11
sa(dp131
g17
g24
sg18
I106
sg19
I4
sg20
I35
sg21
I43
sg22
I95
sa(dp132
g17
g29
sg18
I107
sg19
I2
sg20
I20
sg21
I41
sg22
I15
sa(dp133
g17
g26
sg18
I108
sg19
I2
sg20
I27
sg21
I45
sg22
I18
sa(dp134
g17
g24
sg18
I109
sg19
I2
sg20
I40
sg21
I41
sg22
I15
sa(dp135
g17
g26
sg18
I110
sg19
I2
sg20
I40
sg21
I45
sg22
I18
sa(dp136
g17
g24
sg18
I111
sg19
I3
sg20
I31
sg21
I45
sg22
I27
sa(dp137
g17
g26
sg18
I112
sg19
I2
sg20
I30
sg21
I45
sg22
I18
sa(dp138
g17
g24
sg18
I113
sg19
I3
sg20
I42
sg21
I45
sg22
I31
sa(dp139
g17
g26
sg18
I114
sg19
I2
sg20
I28
sg21
I45
sg22
I18
sa(dp140
g17
g24
sg18
I115
sg19
I3
sg20
I43
sg21
I45
sg22
I27
sa(dp141
g17
g26
sg18
I116
sg19
I2
sg20
I40
sg21
I45
sg22
I18
sa(dp142
g17
g24
sg18
I117
sg19
I3
sg20
I44
sg21
I45
sg22
I31
sa(dp143
g17
g26
sg18
I118
sg19
I3
sg20
I35
sg21
I45
sg22
I27
sa(dp144
g17
g26
sg18
I119
sg19
I2
sg20
I39
sg21
I45
sg22
I18
sa(dp145
g17
g24
sg18
I120
sg19
I2
sg20
I39
sg21
I41
sg22
I15
sa(dp146
g17
g26
sg18
I121
sg19
I2
sg20
I40
sg21
I45
sg22
I18
sa(dp147
g17
g24
sg18
I122
sg19
I3
sg20
I37
sg21
I45
sg22
I31
sa(dp148
g17
g26
sg18
I123
sg19
I2
sg20
I44
sg21
I45
sg22
I18
sa(dp149
g17
g24
sg18
I124
sg19
I3
sg20
I35
sg21
I45
sg22
I27
sa(dp150
g17
g26
sg18
I125
sg19
I2
sg20
I42
sg21
I45
sg22
I18
sa(dp151
g17
g24
sg18
I126
sg19
I3
sg20
I40
sg21
I45
sg22
I31
sa(dp152
g17
g26
sg18
I127
sg19
I2
sg20
I44
sg21
I49
sg22
I50
sa(dp153
g17
g29
sg18
I128
sg19
I1
sg20
I31
sg21
I51
sg22
I9
sa(dp154
g17
g24
sg18
I129
sg19
I2
sg20
I27
sg21
I55
sg22
I57
sa(dp155
g17
g29
sg18
I130
sg19
I1
sg20
I28
sg21
I55
sg22
I13
sa(dp156
g17
g24
sg18
I131
sg19
I2
sg20
I26
sg21
I47
sg22
I39
sa(dp157
g17
g29
sg18
I132
sg19
I1
sg20
I39
sg21
I47
sg22
I5
sa(dp158
g17
g24
sg18
I133
sg19
I2
sg20
I41
sg21
I51
sg22
I53
sa(dp159
g17
g29
sg18
I134
sg19
I1
sg20
I41
sg21
I51
sg22
I9
sa(dp160
g17
g24
sg18
I135
sg19
I2
sg20
I41
sg21
I47
sg22
I39
sa(dp161
g17
g29
sg18
I136
sg19
I1
sg20
I41
sg21
I47
sg22
I5
sa(dp162
g17
g24
sg18
I137
sg19
I3
sg20
I41
sg21
I51
sg22
I100
sa(dp163
g17
g29
sg18
I138
sg19
I2
sg20
I43
sg21
I51
sg22
I61
sa(dp164
g17
g29
sg18
I139
sg19
I1
sg20
I5
sg21
I53
sg22
I17
sa(dp165
g17
g29
sg18
I140
sg19
I0
sg20
I28
sg21
I57
sg22
I0
satRp166
(dp167
S'log_header'
p168
I01
sS'header'
p169
(lp170
g18
ag21
ag19
ag22
ag20
ag17
asS'columns_len'
p171
NsS'buffindex'
p172
I0
sS'chapters'
p173
ccollections
defaultdict
p174
(g13
tRp175
sbsS'max_archive_size'
p176
NsS'solution_found_flag'
p177
I01
sS'time_taken'
p178
F4.0707578659057617
sS'benchmark_name'
p179
S'M_A4'
p180
sa(dp181
S'tree_str'
p182
S'a4(a4(a4(ARG1,a4(a4(a4(ARG1,ARG2),ARG1),a4(ARG0,a4(ARG0,ARG0)))),ARG0),a4(a4(ARG2,a4(ARG0,a4(ARG1,ARG2))),a4(a4(ARG0,a4(a4(ARG0,ARG1),ARG0)),ARG2)))'
p183
sS'tree_len'
p184
I33
sS'archive_size'
p185
I130
sS'number_of_operators'
p186
I16
sS'alg_name'
p187
S'small-LTI'
p188
sS'archive_tree_deapth'
p189
I2
sS'logbook'
p190
g12
(g13
g14
(lp191
(dp192
S'status'
p193
NsS'iteration'
p194
I0
sS'count_wrongs'
p195
I6
sS'picked_node'
p196
NsS'len_master_tree'
p197
I1
sS'total_wrongs'
p198
I6
sa(dp199
g193
S'worst'
p200
sg194
I1
sg195
I7
sg196
I0
sg197
I5
sg198
I30
sa(dp201
g193
S'better'
p202
sg194
I2
sg195
I5
sg196
I4
sg197
I9
sg198
I16
sa(dp203
g193
g200
sg194
I3
sg195
I5
sg196
I7
sg197
I13
sg198
I32
sa(dp204
g193
g202
sg194
I4
sg195
I5
sg196
I8
sg197
I9
sg198
I16
sa(dp205
g193
g200
sg194
I5
sg195
I5
sg196
I8
sg197
I13
sg198
I32
sa(dp206
g193
g202
sg194
I6
sg195
I5
sg196
I6
sg197
I9
sg198
I16
sa(dp207
g193
g200
sg194
I7
sg195
I6
sg196
I8
sg197
I13
sg198
I28
sa(dp208
g193
S'perfect'
p209
sg194
I8
sg195
I5
sg196
I5
sg197
I17
sg198
I20
sa(dp210
g193
g200
sg194
I9
sg195
I6
sg196
I7
sg197
I13
sg198
I25
sa(dp211
g193
g209
sg194
I10
sg195
I5
sg196
I7
sg197
I9
sg198
I16
sa(dp212
g193
g200
sg194
I11
sg195
I6
sg196
I7
sg197
I13
sg198
I28
sa(dp213
g193
g209
sg194
I12
sg195
I5
sg196
I7
sg197
I17
sg198
I20
sa(dp214
g193
g200
sg194
I13
sg195
I6
sg196
I5
sg197
I13
sg198
I25
sa(dp215
g193
g209
sg194
I14
sg195
I5
sg196
I5
sg197
I9
sg198
I16
sa(dp216
g193
g200
sg194
I15
sg195
I5
sg196
I6
sg197
I13
sg198
I32
sa(dp217
g193
g202
sg194
I16
sg195
I5
sg196
I8
sg197
I13
sg198
I21
sa(dp218
g193
g200
sg194
I17
sg195
I5
sg196
I10
sg197
I13
sg198
I32
sa(dp219
g193
g202
sg194
I18
sg195
I5
sg196
I11
sg197
I13
sg198
I22
sa(dp220
g193
g200
sg194
I19
sg195
I5
sg196
I12
sg197
I13
sg198
I32
sa(dp221
g193
g202
sg194
I20
sg195
I5
sg196
I8
sg197
I13
sg198
I21
sa(dp222
g193
g200
sg194
I21
sg195
I5
sg196
I10
sg197
I13
sg198
I32
sa(dp223
g193
g202
sg194
I22
sg195
I5
sg196
I8
sg197
I13
sg198
I22
sa(dp224
g193
g200
sg194
I23
sg195
I5
sg196
I11
sg197
I13
sg198
I32
sa(dp225
g193
g202
sg194
I24
sg195
I5
sg196
I8
sg197
I13
sg198
I20
sa(dp226
g193
g200
sg194
I25
sg195
I5
sg196
I8
sg197
I13
sg198
I32
sa(dp227
g193
g202
sg194
I26
sg195
I5
sg196
I8
sg197
I13
sg198
I20
sa(dp228
g193
g200
sg194
I27
sg195
I6
sg196
I9
sg197
I17
sg198
I36
sa(dp229
g193
g202
sg194
I28
sg195
I5
sg196
I12
sg197
I13
sg198
I20
sa(dp230
g193
g200
sg194
I29
sg195
I6
sg196
I12
sg197
I17
sg198
I36
sa(dp231
g193
g202
sg194
I30
sg195
I5
sg196
I11
sg197
I21
sg198
I28
sa(dp232
g193
g200
sg194
I31
sg195
I6
sg196
I16
sg197
I17
sg198
I36
sa(dp233
g193
g202
sg194
I32
sg195
I5
sg196
I11
sg197
I13
sg198
I20
sa(dp234
g193
g200
sg194
I33
sg195
I6
sg196
I12
sg197
I17
sg198
I35
sa(dp235
g193
g202
sg194
I34
sg195
I4
sg196
I13
sg197
I21
sg198
I27
sa(dp236
g193
g209
sg194
I35
sg195
I4
sg196
I15
sg197
I25
sg198
I9
sa(dp237
g193
g200
sg194
I36
sg195
I4
sg196
I3
sg197
I29
sg198
I66
sa(dp238
g193
g209
sg194
I37
sg195
I4
sg196
I19
sg197
I29
sg198
I39
sa(dp239
g193
g202
sg194
I38
sg195
I4
sg196
I19
sg197
I25
sg198
I31
sa(dp240
g193
g209
sg194
I39
sg195
I4
sg196
I19
sg197
I25
sg198
I9
sa(dp241
g193
g200
sg194
I40
sg195
I4
sg196
I19
sg197
I29
sg198
I66
sa(dp242
g193
g209
sg194
I41
sg195
I4
sg196
I19
sg197
I29
sg198
I39
sa(dp243
g193
g200
sg194
I42
sg195
I6
sg196
I3
sg197
I9
sg198
I42
sa(dp244
g193
g202
sg194
I43
sg195
I5
sg196
I7
sg197
I13
sg198
I26
sa(dp245
g193
g200
sg194
I44
sg195
I5
sg196
I11
sg197
I17
sg198
I46
sa(dp246
g193
g202
sg194
I45
sg195
I5
sg196
I12
sg197
I13
sg198
I26
sa(dp247
g193
g200
sg194
I46
sg195
I5
sg196
I12
sg197
I17
sg198
I46
sa(dp248
g193
g202
sg194
I47
sg195
I5
sg196
I14
sg197
I17
sg198
I31
sa(dp249
g193
g200
sg194
I48
sg195
I5
sg196
I12
sg197
I17
sg198
I46
sa(dp250
g193
g202
sg194
I49
sg195
I5
sg196
I12
sg197
I17
sg198
I30
sa(dp251
g193
g200
sg194
I50
sg195
I5
sg196
I14
sg197
I17
sg198
I46
sa(dp252
g193
g202
sg194
I51
sg195
I5
sg196
I12
sg197
I17
sg198
I30
sa(dp253
g193
g200
sg194
I52
sg195
I6
sg196
I13
sg197
I21
sg198
I49
sa(dp254
g193
g202
sg194
I53
sg195
I5
sg196
I12
sg197
I17
sg198
I33
sa(dp255
g193
g200
sg194
I54
sg195
I5
sg196
I15
sg197
I17
sg198
I46
sa(dp256
g193
g202
sg194
I55
sg195
I5
sg196
I14
sg197
I17
sg198
I33
sa(dp257
g193
g200
sg194
I56
sg195
I5
sg196
I14
sg197
I17
sg198
I46
sa(dp258
g193
g202
sg194
I57
sg195
I5
sg196
I15
sg197
I17
sg198
I33
sa(dp259
g193
g200
sg194
I58
sg195
I5
sg196
I16
sg197
I17
sg198
I46
sa(dp260
g193
g202
sg194
I59
sg195
I5
sg196
I16
sg197
I17
sg198
I33
sa(dp261
g193
g200
sg194
I60
sg195
I5
sg196
I16
sg197
I21
sg198
I54
sa(dp262
g193
g202
sg194
I61
sg195
I5
sg196
I12
sg197
I17
sg198
I31
sa(dp263
g193
g200
sg194
I62
sg195
I5
sg196
I15
sg197
I21
sg198
I54
sa(dp264
g193
g202
sg194
I63
sg195
I5
sg196
I12
sg197
I17
sg198
I32
sa(dp265
g193
g200
sg194
I64
sg195
I6
sg196
I13
sg197
I21
sg198
I47
sa(dp266
g193
g202
sg194
I65
sg195
I5
sg196
I4
sg197
I25
sg198
I33
sa(dp267
g193
g200
sg194
I66
sg195
I6
sg196
I20
sg197
I21
sg198
I47
sa(dp268
g193
g202
sg194
I67
sg195
I5
sg196
I11
sg197
I17
sg198
I33
sa(dp269
g193
g200
sg194
I68
sg195
I6
sg196
I6
sg197
I21
sg198
I38
sa(dp270
g193
g200
sg194
I69
sg195
I6
sg196
I11
sg197
I21
sg198
I55
sa(dp271
g193
g202
sg194
I70
sg195
I6
sg196
I16
sg197
I21
sg198
I38
sa(dp272
g193
g202
sg194
I71
sg195
I5
sg196
I7
sg197
I21
sg198
I21
sa(dp273
g193
g200
sg194
I72
sg195
I6
sg196
I10
sg197
I17
sg198
I46
sa(dp274
g193
g202
sg194
I73
sg195
I5
sg196
I10
sg197
I17
sg198
I29
sa(dp275
g193
g200
sg194
I74
sg195
I6
sg196
I11
sg197
I21
sg198
I39
sa(dp276
g193
g209
sg194
I75
sg195
I5
sg196
I11
sg197
I21
sg198
I21
sa(dp277
g193
g200
sg194
I76
sg195
I6
sg196
I6
sg197
I17
sg198
I38
sa(dp278
g193
g202
sg194
I77
sg195
I6
sg196
I15
sg197
I21
sg198
I44
sa(dp279
g193
g202
sg194
I78
sg195
I5
sg196
I13
sg197
I21
sg198
I24
sa(dp280
g193
g200
sg194
I79
sg195
I6
sg196
I12
sg197
I17
sg198
I35
sa(dp281
g193
g202
sg194
I80
sg195
I5
sg196
I1
sg197
I21
sg198
I31
sa(dp282
g193
g202
sg194
I81
sg195
I2
sg196
I19
sg197
I25
sg198
I21
sa(dp283
g193
g209
sg194
I82
sg195
I2
sg196
I24
sg197
I29
sg198
I20
sa(dp284
g193
g200
sg194
I83
sg195
I4
sg196
I2
sg197
I25
sg198
I36
sa(dp285
g193
g209
sg194
I84
sg195
I2
sg196
I10
sg197
I29
sg198
I12
sa(dp286
g193
g209
sg194
I85
sg195
I2
sg196
I23
sg197
I33
sg198
I11
sa(dp287
g193
g200
sg194
I86
sg195
I2
sg196
I2
sg197
I29
sg198
I17
sa(dp288
g193
g202
sg194
I87
sg195
I2
sg196
I17
sg197
I33
sg198
I16
sa(dp289
g193
g209
sg194
I88
sg195
I1
sg196
I24
sg197
I33
sg198
I3
sa(dp290
g193
g200
sg194
I89
sg195
I3
sg196
I3
sg197
I37
sg198
I51
sa(dp291
g193
g209
sg194
I90
sg195
I3
sg196
I16
sg197
I37
sg198
I21
sa(dp292
g193
g200
sg194
I91
sg195
I4
sg196
I2
sg197
I23
sg198
I41
sa(dp293
g193
g202
sg194
I92
sg195
I3
sg196
I19
sg197
I27
sg198
I32
sa(dp294
g193
g209
sg194
I93
sg195
I2
sg196
I25
sg197
I31
sg198
I12
sa(dp295
g193
g202
sg194
I94
sg195
I1
sg196
I21
sg197
I35
sg198
I11
sa(dp296
g193
g200
sg194
I95
sg195
I2
sg196
I17
sg197
I29
sg198
I23
sa(dp297
g193
g209
sg194
I96
sg195
I0
sg196
I28
sg197
I33
sg198
I0
satRp298
(dp299
g168
I01
sg169
(lp300
g194
ag197
ag195
ag198
ag196
ag193
asg171
Nsg172
I0
sg173
g174
(g13
tRp301
sbsS'max_archive_size'
p302
NsS'solution_found_flag'
p303
I01
sS'time_taken'
p304
F2.5650649070739746
sS'benchmark_name'
p305
S'M_A4'
p306
sa(dp307
S'tree_str'
p308
S'a4(a4(a4(a4(ARG1,ARG2),a4(a4(ARG0,ARG0),ARG1)),a4(ARG1,a4(ARG0,ARG1))),a4(a4(a4(a4(ARG0,ARG0),a4(ARG2,a4(ARG2,ARG0))),a4(ARG2,a4(ARG1,ARG0))),a4(ARG0,a4(ARG0,a4(ARG1,a4(ARG1,ARG2))))))'
p309
sS'tree_len'
p310
I41
sS'archive_size'
p311
I130
sS'number_of_operators'
p312
I20
sS'alg_name'
p313
S'small-LTI'
p314
sS'archive_tree_deapth'
p315
I2
sS'logbook'
p316
g12
(g13
g14
(lp317
(dp318
S'status'
p319
NsS'iteration'
p320
I0
sS'count_wrongs'
p321
I6
sS'picked_node'
p322
NsS'len_master_tree'
p323
I1
sS'total_wrongs'
p324
I6
sa(dp325
g319
S'worst'
p326
sg320
I1
sg321
I7
sg322
I0
sg323
I5
sg324
I32
sa(dp327
g319
S'better'
p328
sg320
I2
sg321
I7
sg322
I4
sg323
I9
sg324
I34
sa(dp329
g319
g328
sg320
I3
sg321
I8
sg322
I1
sg323
I9
sg324
I45
sa(dp330
g319
g328
sg320
I4
sg321
I5
sg322
I7
sg323
I9
sg324
I16
sa(dp331
g319
g326
sg320
I5
sg321
I5
sg322
I6
sg323
I13
sg324
I32
sa(dp332
g319
g328
sg320
I6
sg321
I5
sg322
I3
sg323
I9
sg324
I16
sa(dp333
g319
g326
sg320
I7
sg321
I6
sg322
I8
sg323
I13
sg324
I26
sa(dp334
g319
S'perfect'
p335
sg320
I8
sg321
I5
sg322
I5
sg323
I17
sg324
I18
sa(dp336
g319
g326
sg320
I9
sg321
I6
sg322
I5
sg323
I13
sg324
I25
sa(dp337
g319
g335
sg320
I10
sg321
I5
sg322
I5
sg323
I9
sg324
I16
sa(dp338
g319
g326
sg320
I11
sg321
I6
sg322
I7
sg323
I13
sg324
I26
sa(dp339
g319
g335
sg320
I12
sg321
I5
sg322
I7
sg323
I17
sg324
I18
sa(dp340
g319
g326
sg320
I13
sg321
I5
sg322
I7
sg323
I17
sg324
I36
sa(dp341
g319
g335
sg320
I14
sg321
I4
sg322
I16
sg323
I21
sg324
I9
sa(dp342
g319
g326
sg320
I15
sg321
I4
sg322
I2
sg323
I25
sg324
I59
sa(dp343
g319
g328
sg320
I16
sg321
I4
sg322
I4
sg323
I21
sg324
I41
sa(dp344
g319
g328
sg320
I17
sg321
I5
sg322
I10
sg323
I25
sg324
I56
sa(dp345
g319
g335
sg320
I18
sg321
I4
sg322
I7
sg323
I29
sg324
I35
sa(dp346
g319
g328
sg320
I19
sg321
I3
sg322
I2
sg323
I33
sg324
I34
sa(dp347
g319
g326
sg320
I20
sg321
I4
sg322
I19
sg323
I37
sg324
I52
sa(dp348
g319
g328
sg320
I21
sg321
I3
sg322
I32
sg323
I33
sg324
I34
sa(dp349
g319
g326
sg320
I22
sg321
I4
sg322
I32
sg323
I37
sg324
I52
sa(dp350
g319
g328
sg320
I23
sg321
I3
sg322
I33
sg323
I41
sg324
I38
sa(dp351
g319
g335
sg320
I24
sg321
I2
sg322
I38
sg323
I45
sg324
I19
sa(dp352
g319
g326
sg320
I25
sg321
I3
sg322
I18
sg323
I33
sg324
I34
sa(dp353
g319
g326
sg320
I26
sg321
I4
sg322
I9
sg323
I37
sg324
I57
sa(dp354
g319
g335
sg320
I27
sg321
I4
sg322
I3
sg323
I35
sg324
I53
sa(dp355
g319
g328
sg320
I28
sg321
I4
sg322
I4
sg323
I31
sg324
I49
sa(dp356
g319
g328
sg320
I29
sg321
I3
sg322
I29
sg323
I35
sg324
I38
sa(dp357
g319
g326
sg320
I30
sg321
I4
sg322
I30
sg323
I31
sg324
I49
sa(dp358
g319
g328
sg320
I31
sg321
I3
sg322
I30
sg323
I35
sg324
I38
sa(dp359
g319
g326
sg320
I32
sg321
I4
sg322
I28
sg323
I31
sg324
I49
sa(dp360
g319
g328
sg320
I33
sg321
I3
sg322
I29
sg323
I35
sg324
I38
sa(dp361
g319
g326
sg320
I34
sg321
I3
sg322
I4
sg323
I33
sg324
I60
sa(dp362
g319
g328
sg320
I35
sg321
I4
sg322
I15
sg323
I35
sg324
I60
sa(dp363
g319
g335
sg320
I36
sg321
I3
sg322
I33
sg323
I39
sg324
I38
sa(dp364
g319
g326
sg320
I37
sg321
I3
sg322
I14
sg323
I33
sg324
I60
sa(dp365
g319
g328
sg320
I38
sg321
I4
sg322
I27
sg323
I35
sg324
I71
sa(dp366
g319
g328
sg320
I39
sg321
I3
sg322
I22
sg323
I37
sg324
I47
sa(dp367
g319
g335
sg320
I40
sg321
I3
sg322
I31
sg323
I37
sg324
I44
sa(dp368
g319
g335
sg320
I41
sg321
I2
sg322
I9
sg323
I37
sg324
I10
sa(dp369
g319
g326
sg320
I42
sg321
I3
sg322
I4
sg323
I37
sg324
I45
sa(dp370
g319
g335
sg320
I43
sg321
I2
sg322
I19
sg323
I37
sg324
I11
sa(dp371
g319
g328
sg320
I44
sg321
I2
sg322
I30
sg323
I41
sg324
I14
sa(dp372
g319
g326
sg320
I45
sg321
I2
sg322
I36
sg323
I37
sg324
I11
sa(dp373
g319
g328
sg320
I46
sg321
I2
sg322
I36
sg323
I41
sg324
I14
sa(dp374
g319
g326
sg320
I47
sg321
I3
sg322
I28
sg323
I41
sg324
I55
sa(dp375
g319
g335
sg320
I48
sg321
I3
sg322
I32
sg323
I41
sg324
I52
sa(dp376
g319
g328
sg320
I49
sg321
I2
sg322
I37
sg323
I41
sg324
I14
sa(dp377
g319
g326
sg320
I50
sg321
I3
sg322
I40
sg323
I41
sg324
I52
sa(dp378
g319
g328
sg320
I51
sg321
I2
sg322
I40
sg323
I41
sg324
I14
sa(dp379
g319
g326
sg320
I52
sg321
I2
sg322
I32
sg323
I41
sg324
I18
sa(dp380
g319
g328
sg320
I53
sg321
I2
sg322
I39
sg323
I45
sg324
I18
sa(dp381
g319
g326
sg320
I54
sg321
I2
sg322
I36
sg323
I41
sg324
I18
sa(dp382
g319
g326
sg320
I55
sg321
I3
sg322
I35
sg323
I41
sg324
I52
sa(dp383
g319
g328
sg320
I56
sg321
I2
sg322
I40
sg323
I45
sg324
I48
sa(dp384
g319
g335
sg320
I57
sg321
I1
sg322
I30
sg323
I45
sg324
I9
sa(dp385
g319
g326
sg320
I58
sg321
I2
sg322
I29
sg323
I49
sg324
I43
sa(dp386
g319
g335
sg320
I59
sg321
I1
sg322
I39
sg323
I49
sg324
I13
sa(dp387
g319
g326
sg320
I60
sg321
I2
sg322
I27
sg323
I37
sg324
I11
sa(dp388
g319
g328
sg320
I61
sg321
I2
sg322
I35
sg323
I41
sg324
I14
sa(dp389
g319
g326
sg320
I62
sg321
I3
sg322
I33
sg323
I41
sg324
I55
sa(dp390
g319
g335
sg320
I63
sg321
I3
sg322
I29
sg323
I41
sg324
I52
sa(dp391
g319
g328
sg320
I64
sg321
I2
sg322
I37
sg323
I45
sg324
I48
sa(dp392
g319
g335
sg320
I65
sg321
I1
sg322
I27
sg323
I45
sg324
I9
sa(dp393
g319
g326
sg320
I66
sg321
I2
sg322
I34
sg323
I49
sg324
I43
sa(dp394
g319
g335
sg320
I67
sg321
I1
sg322
I39
sg323
I49
sg324
I13
sa(dp395
g319
g326
sg320
I68
sg321
I2
sg322
I30
sg323
I41
sg324
I40
sa(dp396
g319
g335
sg320
I69
sg321
I1
sg322
I35
sg323
I41
sg324
I5
sa(dp397
g319
g326
sg320
I70
sg321
I3
sg322
I27
sg323
I39
sg324
I50
sa(dp398
g319
g335
sg320
I71
sg321
I2
sg322
I11
sg323
I39
sg324
I16
sa(dp399
g319
g335
sg320
I72
sg321
I2
sg322
I28
sg323
I41
sg324
I12
sa(dp400
g319
g326
sg320
I73
sg321
I2
sg322
I26
sg323
I39
sg324
I16
sa(dp401
g319
g335
sg320
I74
sg321
I2
sg322
I38
sg323
I41
sg324
I12
sa(dp402
g319
g326
sg320
I75
sg321
I2
sg322
I36
sg323
I39
sg324
I16
sa(dp403
g319
g335
sg320
I76
sg321
I1
sg322
I37
sg323
I45
sg324
I5
sa(dp404
g319
g326
sg320
I77
sg321
I2
sg322
I25
sg323
I39
sg324
I16
sa(dp405
g319
g335
sg320
I78
sg321
I2
sg322
I35
sg323
I41
sg324
I12
sa(dp406
g319
g326
sg320
I79
sg321
I2
sg322
I33
sg323
I39
sg324
I16
sa(dp407
g319
g328
sg320
I80
sg321
I2
sg322
I36
sg323
I41
sg324
I12
sa(dp408
g319
g326
sg320
I81
sg321
I3
sg322
I36
sg323
I41
sg324
I22
sa(dp409
g319
g335
sg320
I82
sg321
I2
sg322
I40
sg323
I45
sg324
I12
sa(dp410
g319
g326
sg320
I83
sg321
I3
sg322
I36
sg323
I41
sg324
I22
sa(dp411
g319
g335
sg320
I84
sg321
I2
sg322
I39
sg323
I41
sg324
I12
sa(dp412
g319
g326
sg320
I85
sg321
I3
sg322
I36
sg323
I41
sg324
I22
sa(dp413
g319
g335
sg320
I86
sg321
I2
sg322
I40
sg323
I45
sg324
I12
sa(dp414
g319
g326
sg320
I87
sg321
I3
sg322
I36
sg323
I41
sg324
I52
sa(dp415
g319
g335
sg320
I88
sg321
I2
sg322
I38
sg323
I41
sg324
I12
sa(dp416
g319
g326
sg320
I89
sg321
I3
sg322
I37
sg323
I41
sg324
I22
sa(dp417
g319
g335
sg320
I90
sg321
I2
sg322
I37
sg323
I41
sg324
I12
sa(dp418
g319
g326
sg320
I91
sg321
I3
sg322
I36
sg323
I43
sg324
I37
sa(dp419
g319
g335
sg320
I92
sg321
I1
sg322
I42
sg323
I47
sg324
I5
sa(dp420
g319
g326
sg320
I93
sg321
I2
sg322
I32
sg323
I39
sg324
I16
sa(dp421
g319
g335
sg320
I94
sg321
I1
sg322
I34
sg323
I45
sg324
I5
sa(dp422
g319
g326
sg320
I95
sg321
I2
sg322
I37
sg323
I49
sg324
I42
sa(dp423
g319
g335
sg320
I96
sg321
I1
sg322
I20
sg323
I49
sg324
I9
sa(dp424
g319
g326
sg320
I97
sg321
I2
sg322
I30
sg323
I45
sg324
I47
sa(dp425
g319
g335
sg320
I98
sg321
I1
sg322
I37
sg323
I45
sg324
I5
sa(dp426
g319
g326
sg320
I99
sg321
I2
sg322
I39
sg323
I49
sg324
I42
sa(dp427
g319
g335
sg320
I100
sg321
I1
sg322
I39
sg323
I51
sg324
I9
sa(dp428
g319
g326
sg320
I101
sg321
I2
sg322
I42
sg323
I51
sg324
I59
sa(dp429
g319
g335
sg320
I102
sg321
I1
sg322
I28
sg323
I47
sg324
I42
sa(dp430
g319
g335
sg320
I103
sg321
I1
sg322
I34
sg323
I45
sg324
I35
sa(dp431
g319
g326
sg320
I104
sg321
I2
sg322
I2
sg323
I33
sg324
I38
sa(dp432
g319
g335
sg320
I105
sg321
I1
sg322
I24
sg323
I39
sg324
I27
sa(dp433
g319
g326
sg320
I106
sg321
I2
sg322
I3
sg323
I35
sg324
I45
sa(dp434
g319
g328
sg320
I107
sg321
I1
sg322
I33
sg323
I39
sg324
I27
sa(dp435
g319
g326
sg320
I108
sg321
I2
sg322
I34
sg323
I35
sg324
I45
sa(dp436
g319
g328
sg320
I109
sg321
I1
sg322
I34
sg323
I39
sg324
I27
sa(dp437
g319
g326
sg320
I110
sg321
I2
sg322
I32
sg323
I35
sg324
I45
sa(dp438
g319
g328
sg320
I111
sg321
I1
sg322
I33
sg323
I39
sg324
I27
sa(dp439
g319
g326
sg320
I112
sg321
I2
sg322
I34
sg323
I39
sg324
I52
sa(dp440
g319
g328
sg320
I113
sg321
I1
sg322
I34
sg323
I39
sg324
I27
sa(dp441
g319
g326
sg320
I114
sg321
I2
sg322
I3
sg323
I39
sg324
I49
sa(dp442
g319
g328
sg320
I115
sg321
I1
sg322
I34
sg323
I39
sg324
I27
sa(dp443
g319
g326
sg320
I116
sg321
I2
sg322
I29
sg323
I35
sg324
I45
sa(dp444
g319
g326
sg320
I117
sg321
I3
sg322
I11
sg323
I25
sg324
I47
sa(dp445
g319
g335
sg320
I118
sg321
I1
sg322
I11
sg323
I25
sg324
I7
sa(dp446
g319
g335
sg320
I119
sg321
I1
sg322
I5
sg323
I29
sg324
I6
sa(dp447
g319
g326
sg320
I120
sg321
I2
sg322
I5
sg323
I29
sg324
I29
sa(dp448
g319
g328
sg320
I121
sg321
I1
sg322
I24
sg323
I29
sg324
I6
sa(dp449
g319
g326
sg320
I122
sg321
I2
sg322
I24
sg323
I29
sg324
I29
sa(dp450
g319
g326
sg320
I123
sg321
I2
sg322
I19
sg323
I25
sg324
I26
sa(dp451
g319
g328
sg320
I124
sg321
I1
sg322
I19
sg323
I25
sg324
I7
sa(dp452
g319
g335
sg320
I125
sg321
I1
sg322
I19
sg323
I29
sg324
I6
sa(dp453
g319
g326
sg320
I126
sg321
I2
sg322
I19
sg323
I29
sg324
I29
sa(dp454
g319
g326
sg320
I127
sg321
I3
sg322
I7
sg323
I29
sg324
I54
sa(dp455
g319
g335
sg320
I128
sg321
I3
sg322
I13
sg323
I29
sg324
I51
sa(dp456
g319
g328
sg320
I129
sg321
I2
sg322
I23
sg323
I29
sg324
I29
sa(dp457
g319
g328
sg320
I130
sg321
I1
sg322
I18
sg323
I29
sg324
I6
sa(dp458
g319
g326
sg320
I131
sg321
I2
sg322
I8
sg323
I33
sg324
I44
sa(dp459
g319
g335
sg320
I132
sg321
I1
sg322
I32
sg323
I37
sg324
I15
sa(dp460
g319
g335
sg320
I133
sg321
I0
sg322
I13
sg323
I41
sg324
I0
satRp461
(dp462
g168
I01
sg169
(lp463
g320
ag323
ag321
ag324
ag322
ag319
asg171
Nsg172
I0
sg173
g174
(g13
tRp464
sbsS'max_archive_size'
p465
NsS'solution_found_flag'
p466
I01
sS'time_taken'
p467
F3.7076389789581299
sS'benchmark_name'
p468
S'M_A4'
p469
sa(dp470
S'tree_str'
p471
S'a4(a4(a4(a4(a4(a4(ARG2,ARG1),ARG1),ARG0),a4(a4(a4(a4(ARG0,ARG0),ARG0),a4(a4(ARG1,a4(a4(ARG2,ARG0),ARG1)),a4(a4(ARG2,ARG2),a4(ARG1,ARG0)))),ARG2)),a4(a4(a4(ARG1,ARG0),a4(ARG1,a4(ARG0,a4(ARG0,ARG2)))),a4(ARG0,a4(ARG1,ARG0)))),a4(a4(ARG2,a4(a4(ARG0,ARG1),a4(a4(ARG2,ARG0),ARG0))),a4(a4(a4(ARG2,ARG0),ARG0),a4(ARG1,ARG1))))'
p472
sS'tree_len'
p473
I71
sS'archive_size'
p474
I130
sS'number_of_operators'
p475
I35
sS'alg_name'
p476
S'small-LTI'
p477
sS'archive_tree_deapth'
p478
I2
sS'logbook'
p479
g12
(g13
g14
(lp480
(dp481
S'status'
p482
NsS'iteration'
p483
I0
sS'count_wrongs'
p484
I6
sS'picked_node'
p485
NsS'len_master_tree'
p486
I1
sS'total_wrongs'
p487
I6
sa(dp488
g482
S'worst'
p489
sg483
I1
sg484
I7
sg485
I0
sg486
I5
sg487
I30
sa(dp490
g482
S'better'
p491
sg483
I2
sg484
I5
sg485
I4
sg486
I9
sg487
I16
sa(dp492
g482
g489
sg483
I3
sg484
I6
sg485
I8
sg486
I13
sg487
I26
sa(dp493
g482
S'perfect'
p494
sg483
I4
sg484
I5
sg485
I5
sg486
I17
sg487
I18
sa(dp495
g482
g489
sg483
I5
sg484
I6
sg485
I7
sg486
I13
sg487
I25
sa(dp496
g482
g494
sg483
I6
sg484
I5
sg485
I7
sg486
I9
sg487
I16
sa(dp497
g482
g489
sg483
I7
sg484
I6
sg485
I7
sg486
I13
sg487
I28
sa(dp498
g482
g494
sg483
I8
sg484
I5
sg485
I7
sg486
I17
sg487
I20
sa(dp499
g482
g489
sg483
I9
sg484
I6
sg485
I5
sg486
I13
sg487
I25
sa(dp500
g482
g494
sg483
I10
sg484
I5
sg485
I5
sg486
I9
sg487
I16
sa(dp501
g482
g489
sg483
I11
sg484
I6
sg485
I7
sg486
I13
sg487
I26
sa(dp502
g482
g491
sg483
I12
sg484
I5
sg485
I8
sg486
I9
sg487
I16
sa(dp503
g482
g489
sg483
I13
sg484
I5
sg485
I6
sg486
I13
sg487
I32
sa(dp504
g482
g491
sg483
I14
sg484
I5
sg485
I8
sg486
I9
sg487
I16
sa(dp505
g482
g489
sg483
I15
sg484
I5
sg485
I8
sg486
I13
sg487
I32
sa(dp506
g482
g491
sg483
I16
sg484
I5
sg485
I8
sg486
I13
sg487
I20
sa(dp507
g482
g489
sg483
I17
sg484
I5
sg485
I8
sg486
I13
sg487
I32
sa(dp508
g482
g491
sg483
I18
sg484
I5
sg485
I10
sg486
I13
sg487
I22
sa(dp509
g482
g489
sg483
I19
sg484
I5
sg485
I10
sg486
I13
sg487
I32
sa(dp510
g482
g491
sg483
I20
sg484
I5
sg485
I11
sg486
I13
sg487
I22
sa(dp511
g482
g489
sg483
I21
sg484
I5
sg485
I12
sg486
I13
sg487
I32
sa(dp512
g482
g491
sg483
I22
sg484
I5
sg485
I12
sg486
I13
sg487
I22
sa(dp513
g482
g489
sg483
I23
sg484
I6
sg485
I6
sg486
I17
sg487
I36
sa(dp514
g482
g491
sg483
I24
sg484
I5
sg485
I6
sg486
I21
sg487
I27
sa(dp515
g482
g489
sg483
I25
sg484
I6
sg485
I11
sg486
I17
sg487
I27
sa(dp516
g482
g494
sg483
I26
sg484
I5
sg485
I11
sg486
I13
sg487
I19
sa(dp517
g482
g489
sg483
I27
sg484
I6
sg485
I6
sg486
I13
sg487
I32
sa(dp518
g482
g494
sg483
I28
sg484
I5
sg485
I6
sg486
I13
sg487
I21
sa(dp519
g482
g489
sg483
I29
sg484
I5
sg485
I9
sg486
I13
sg487
I32
sa(dp520
g482
g491
sg483
I30
sg484
I5
sg485
I7
sg486
I13
sg487
I20
sa(dp521
g482
g489
sg483
I31
sg484
I5
sg485
I10
sg486
I13
sg487
I32
sa(dp522
g482
g491
sg483
I32
sg484
I5
sg485
I8
sg486
I13
sg487
I20
sa(dp523
g482
g489
sg483
I33
sg484
I5
sg485
I11
sg486
I17
sg487
I40
sa(dp524
g482
g491
sg483
I34
sg484
I5
sg485
I10
sg486
I13
sg487
I20
sa(dp525
g482
g489
sg483
I35
sg484
I6
sg485
I12
sg486
I17
sg487
I33
sa(dp526
g482
g491
sg483
I36
sg484
I5
sg485
I8
sg486
I13
sg487
I21
sa(dp527
g482
g489
sg483
I37
sg484
I5
sg485
I11
sg486
I17
sg487
I40
sa(dp528
g482
g491
sg483
I38
sg484
I5
sg485
I8
sg486
I13
sg487
I21
sa(dp529
g482
g489
sg483
I39
sg484
I6
sg485
I6
sg486
I17
sg487
I30
sa(dp530
g482
g494
sg483
I40
sg484
I5
sg485
I6
sg486
I21
sg487
I22
sa(dp531
g482
g489
sg483
I41
sg484
I5
sg485
I6
sg486
I17
sg487
I36
sa(dp532
g482
g494
sg483
I42
sg484
I4
sg485
I8
sg486
I17
sg487
I9
sa(dp533
g482
g489
sg483
I43
sg484
I4
sg485
I3
sg486
I21
sg487
I51
sa(dp534
g482
g491
sg483
I44
sg484
I4
sg485
I16
sg486
I17
sg487
I9
sa(dp535
g482
g489
sg483
I45
sg484
I4
sg485
I16
sg486
I21
sg487
I51
sa(dp536
g482
g491
sg483
I46
sg484
I4
sg485
I4
sg486
I21
sg487
I41
sa(dp537
g482
g491
sg483
I47
sg484
I5
sg485
I10
sg486
I25
sg487
I45
sa(dp538
g482
g491
sg483
I48
sg484
I3
sg485
I1
sg486
I29
sg487
I45
sa(dp539
g482
g494
sg483
I49
sg484
I2
sg485
I6
sg486
I33
sg487
I28
sa(dp540
g482
g489
sg483
I50
sg484
I3
sg485
I19
sg486
I35
sg487
I49
sa(dp541
g482
g494
sg483
I51
sg484
I2
sg485
I23
sg486
I39
sg487
I31
sa(dp542
g482
g491
sg483
I52
sg484
I3
sg485
I21
sg486
I43
sg487
I35
sa(dp543
g482
g494
sg483
I53
sg484
I2
sg485
I39
sg486
I47
sg487
I21
sa(dp544
g482
g489
sg483
I54
sg484
I2
sg485
I19
sg486
I39
sg487
I31
sa(dp545
g482
g491
sg483
I55
sg484
I3
sg485
I38
sg486
I43
sg487
I35
sa(dp546
g482
g489
sg483
I56
sg484
I2
sg485
I38
sg486
I39
sg487
I31
sa(dp547
g482
g489
sg483
I57
sg484
I3
sg485
I28
sg486
I37
sg487
I55
sa(dp548
g482
g494
sg483
I58
sg484
I2
sg485
I28
sg486
I33
sg487
I28
sa(dp549
g482
g489
sg483
I59
sg484
I3
sg485
I31
sg486
I35
sg487
I49
sa(dp550
g482
g494
sg483
I60
sg484
I2
sg485
I31
sg486
I39
sg487
I31
sa(dp551
g482
g491
sg483
I61
sg484
I3
sg485
I30
sg486
I43
sg487
I35
sa(dp552
g482
g489
sg483
I62
sg484
I4
sg485
I38
sg486
I41
sg487
I72
sa(dp553
g482
g494
sg483
I63
sg484
I3
sg485
I40
sg486
I45
sg487
I51
sa(dp554
g482
g494
sg483
I64
sg484
I2
sg485
I33
sg486
I41
sg487
I21
sa(dp555
g482
g489
sg483
I65
sg484
I2
sg485
I18
sg486
I33
sg487
I28
sa(dp556
g482
g489
sg483
I66
sg484
I3
sg485
I29
sg486
I35
sg487
I49
sa(dp557
g482
g494
sg483
I67
sg484
I2
sg485
I27
sg486
I39
sg487
I31
sa(dp558
g482
g489
sg483
I68
sg484
I3
sg485
I31
sg486
I37
sg487
I55
sa(dp559
g482
g494
sg483
I69
sg484
I2
sg485
I31
sg486
I33
sg487
I28
sa(dp560
g482
g489
sg483
I70
sg484
I4
sg485
I30
sg486
I37
sg487
I69
sa(dp561
g482
g494
sg483
I71
sg484
I3
sg485
I22
sg486
I37
sg487
I33
sa(dp562
g482
g494
sg483
I72
sg484
I2
sg485
I28
sg486
I41
sg487
I19
sa(dp563
g482
g494
sg483
I73
sg484
I2
sg485
I24
sg486
I45
sg487
I10
sa(dp564
g482
g489
sg483
I74
sg484
I3
sg485
I19
sg486
I45
sg487
I50
sa(dp565
g482
g494
sg483
I75
sg484
I2
sg485
I34
sg486
I45
sg487
I10
sa(dp566
g482
g489
sg483
I76
sg484
I3
sg485
I18
sg486
I45
sg487
I49
sa(dp567
g482
g494
sg483
I77
sg484
I2
sg485
I37
sg486
I45
sg487
I10
sa(dp568
g482
g489
sg483
I78
sg484
I3
sg485
I39
sg486
I45
sg487
I50
sa(dp569
g482
g494
sg483
I79
sg484
I2
sg485
I30
sg486
I45
sg487
I10
sa(dp570
g482
g489
sg483
I80
sg484
I3
sg485
I35
sg486
I45
sg487
I40
sa(dp571
g482
g494
sg483
I81
sg484
I3
sg485
I9
sg486
I49
sg487
I25
sa(dp572
g482
g494
sg483
I82
sg484
I2
sg485
I16
sg486
I53
sg487
I10
sa(dp573
g482
g489
sg483
I83
sg484
I3
sg485
I38
sg486
I53
sg487
I56
sa(dp574
g482
g494
sg483
I84
sg484
I2
sg485
I10
sg486
I49
sg487
I10
sa(dp575
g482
g489
sg483
I85
sg484
I3
sg485
I37
sg486
I49
sg487
I24
sa(dp576
g482
g491
sg483
I86
sg484
I2
sg485
I44
sg486
I49
sg487
I10
sa(dp577
g482
g489
sg483
I87
sg484
I3
sg485
I46
sg486
I49
sg487
I53
sa(dp578
g482
g494
sg483
I88
sg484
I2
sg485
I27
sg486
I49
sg487
I10
sa(dp579
g482
g489
sg483
I89
sg484
I3
sg485
I41
sg486
I49
sg487
I54
sa(dp580
g482
g494
sg483
I90
sg484
I2
sg485
I43
sg486
I49
sg487
I10
sa(dp581
g482
g489
sg483
I91
sg484
I3
sg485
I39
sg486
I49
sg487
I53
sa(dp582
g482
g494
sg483
I92
sg484
I2
sg485
I17
sg486
I49
sg487
I10
sa(dp583
g482
g489
sg483
I93
sg484
I3
sg485
I39
sg486
I49
sg487
I58
sa(dp584
g482
g494
sg483
I94
sg484
I2
sg485
I34
sg486
I49
sg487
I10
sa(dp585
g482
g489
sg483
I95
sg484
I3
sg485
I39
sg486
I49
sg487
I24
sa(dp586
g482
g489
sg483
I96
sg484
I3
sg485
I27
sg486
I49
sg487
I91
sa(dp587
g482
g494
sg483
I97
sg484
I2
sg485
I32
sg486
I49
sg487
I47
sa(dp588
g482
g494
sg483
I98
sg484
I2
sg485
I29
sg486
I49
sg487
I10
sa(dp589
g482
g489
sg483
I99
sg484
I3
sg485
I29
sg486
I49
sg487
I46
sa(dp590
g482
g494
sg483
I100
sg484
I2
sg485
I16
sg486
I53
sg487
I10
sa(dp591
g482
g489
sg483
I101
sg484
I3
sg485
I43
sg486
I53
sg487
I55
sa(dp592
g482
g494
sg483
I102
sg484
I3
sg485
I35
sg486
I53
sg487
I55
sa(dp593
g482
g494
sg483
I103
sg484
I2
sg485
I41
sg486
I53
sg487
I10
sa(dp594
g482
g489
sg483
I104
sg484
I3
sg485
I44
sg486
I53
sg487
I60
sa(dp595
g482
g494
sg483
I105
sg484
I3
sg485
I26
sg486
I53
sg487
I52
sa(dp596
g482
g494
sg483
I106
sg484
I2
sg485
I44
sg486
I53
sg487
I10
sa(dp597
g482
g489
sg483
I107
sg484
I3
sg485
I37
sg486
I53
sg487
I47
sa(dp598
g482
g494
sg483
I108
sg484
I2
sg485
I47
sg486
I53
sg487
I10
sa(dp599
g482
g489
sg483
I109
sg484
I3
sg485
I49
sg486
I53
sg487
I52
sa(dp600
g482
g494
sg483
I110
sg484
I2
sg485
I49
sg486
I53
sg487
I10
sa(dp601
g482
g489
sg483
I111
sg484
I3
sg485
I47
sg486
I53
sg487
I45
sa(dp602
g482
g494
sg483
I112
sg484
I2
sg485
I38
sg486
I53
sg487
I10
sa(dp603
g482
g489
sg483
I113
sg484
I3
sg485
I47
sg486
I53
sg487
I55
sa(dp604
g482
g494
sg483
I114
sg484
I2
sg485
I41
sg486
I49
sg487
I10
sa(dp605
g482
g489
sg483
I115
sg484
I3
sg485
I45
sg486
I49
sg487
I48
sa(dp606
g482
g491
sg483
I116
sg484
I2
sg485
I43
sg486
I49
sg487
I10
sa(dp607
g482
g489
sg483
I117
sg484
I3
sg485
I46
sg486
I49
sg487
I48
sa(dp608
g482
g491
sg483
I118
sg484
I2
sg485
I44
sg486
I49
sg487
I10
sa(dp609
g482
g489
sg483
I119
sg484
I3
sg485
I44
sg486
I49
sg487
I27
sa(dp610
g482
g494
sg483
I120
sg484
I2
sg485
I43
sg486
I53
sg487
I10
sa(dp611
g482
g489
sg483
I121
sg484
I4
sg485
I43
sg486
I53
sg487
I104
sa(dp612
g482
g494
sg483
I122
sg484
I3
sg485
I5
sg486
I49
sg487
I86
sa(dp613
g482
g491
sg483
I123
sg484
I3
sg485
I35
sg486
I51
sg487
I76
sa(dp614
g482
g494
sg483
I124
sg484
I1
sg485
I12
sg486
I51
sg487
I5
sa(dp615
g482
g489
sg483
I125
sg484
I2
sg485
I29
sg486
I51
sg487
I10
sa(dp616
g482
g491
sg483
I126
sg484
I1
sg485
I46
sg486
I51
sg487
I5
sa(dp617
g482
g489
sg483
I127
sg484
I2
sg485
I46
sg486
I51
sg487
I10
sa(dp618
g482
g491
sg483
I128
sg484
I1
sg485
I49
sg486
I55
sg487
I9
sa(dp619
g482
g489
sg483
I129
sg484
I2
sg485
I48
sg486
I51
sg487
I10
sa(dp620
g482
g489
sg483
I130
sg484
I4
sg485
I47
sg486
I55
sg487
I107
sa(dp621
g482
g494
sg483
I131
sg484
I3
sg485
I35
sg486
I57
sg487
I58
sa(dp622
g482
g494
sg483
I132
sg484
I2
sg485
I33
sg486
I57
sg487
I10
sa(dp623
g482
g489
sg483
I133
sg484
I3
sg485
I43
sg486
I55
sg487
I58
sa(dp624
g482
g494
sg483
I134
sg484
I3
sg485
I31
sg486
I55
sg487
I55
sa(dp625
g482
g491
sg483
I135
sg484
I3
sg485
I48
sg486
I57
sg487
I54
sa(dp626
g482
g494
sg483
I136
sg484
I3
sg485
I53
sg486
I61
sg487
I50
sa(dp627
g482
g489
sg483
I137
sg484
I4
sg485
I11
sg486
I49
sg487
I62
sa(dp628
g482
g491
sg483
I138
sg484
I3
sg485
I45
sg486
I53
sg487
I49
sa(dp629
g482
g494
sg483
I139
sg484
I3
sg485
I47
sg486
I57
sg487
I46
sa(dp630
g482
g494
sg483
I140
sg484
I2
sg485
I51
sg486
I61
sg487
I10
sa(dp631
g482
g489
sg483
I141
sg484
I3
sg485
I30
sg486
I55
sg487
I56
sa(dp632
g482
g494
sg483
I142
sg484
I2
sg485
I45
sg486
I55
sg487
I13
sa(dp633
g482
g491
sg483
I143
sg484
I2
sg485
I51
sg486
I59
sg487
I16
sa(dp634
g482
g494
sg483
I144
sg484
I1
sg485
I55
sg486
I63
sg487
I7
sa(dp635
g482
g489
sg483
I145
sg484
I2
sg485
I45
sg486
I55
sg487
I13
sa(dp636
g482
g491
sg483
I146
sg484
I2
sg485
I54
sg486
I59
sg487
I16
sa(dp637
g482
g489
sg483
I147
sg484
I2
sg485
I54
sg486
I55
sg487
I13
sa(dp638
g482
g489
sg483
I148
sg484
I3
sg485
I49
sg486
I53
sg487
I38
sa(dp639
g482
g494
sg483
I149
sg484
I2
sg485
I34
sg486
I49
sg487
I10
sa(dp640
g482
g489
sg483
I150
sg484
I3
sg485
I43
sg486
I51
sg487
I61
sa(dp641
g482
g494
sg483
I151
sg484
I2
sg485
I3
sg486
I51
sg487
I13
sa(dp642
g482
g491
sg483
I152
sg484
I2
sg485
I37
sg486
I55
sg487
I16
sa(dp643
g482
g494
sg483
I153
sg484
I1
sg485
I51
sg486
I59
sg487
I7
sa(dp644
g482
g489
sg483
I154
sg484
I2
sg485
I35
sg486
I51
sg487
I13
sa(dp645
g482
g491
sg483
I155
sg484
I2
sg485
I50
sg486
I55
sg487
I16
sa(dp646
g482
g489
sg483
I156
sg484
I2
sg485
I50
sg486
I51
sg487
I13
sa(dp647
g482
g489
sg483
I157
sg484
I3
sg485
I40
sg486
I49
sg487
I30
sa(dp648
g482
g494
sg483
I158
sg484
I2
sg485
I40
sg486
I49
sg487
I10
sa(dp649
g482
g489
sg483
I159
sg484
I3
sg485
I42
sg486
I53
sg487
I60
sa(dp650
g482
g494
sg483
I160
sg484
I2
sg485
I43
sg486
I53
sg487
I14
sa(dp651
g482
g491
sg483
I161
sg484
I1
sg485
I41
sg486
I57
sg487
I13
sa(dp652
g482
g489
sg483
I162
sg484
I2
sg485
I34
sg486
I51
sg487
I13
sa(dp653
g482
g489
sg483
I163
sg484
I3
sg485
I45
sg486
I49
sg487
I30
sa(dp654
g482
g494
sg483
I164
sg484
I2
sg485
I39
sg486
I49
sg487
I10
sa(dp655
g482
g489
sg483
I165
sg484
I4
sg485
I43
sg486
I53
sg487
I102
sa(dp656
g482
g494
sg483
I166
sg484
I4
sg485
I38
sg486
I57
sg487
I101
sa(dp657
g482
g494
sg483
I167
sg484
I4
sg485
I22
sg486
I61
sg487
I100
sa(dp658
g482
g491
sg483
I168
sg484
I2
sg485
I46
sg486
I57
sg487
I10
sa(dp659
g482
g489
sg483
I169
sg484
I3
sg485
I56
sg486
I59
sg487
I59
sa(dp660
g482
g494
sg483
I170
sg484
I2
sg485
I35
sg486
I57
sg487
I13
sa(dp661
g482
g491
sg483
I171
sg484
I2
sg485
I38
sg486
I61
sg487
I16
sa(dp662
g482
g494
sg483
I172
sg484
I1
sg485
I57
sg486
I65
sg487
I7
sa(dp663
g482
g489
sg483
I173
sg484
I2
sg485
I36
sg486
I57
sg487
I13
sa(dp664
g482
g491
sg483
I174
sg484
I2
sg485
I56
sg486
I61
sg487
I16
sa(dp665
g482
g489
sg483
I175
sg484
I2
sg485
I56
sg486
I57
sg487
I13
sa(dp666
g482
g489
sg483
I176
sg484
I4
sg485
I48
sg486
I59
sg487
I59
sa(dp667
g482
g494
sg483
I177
sg484
I4
sg485
I26
sg486
I59
sg487
I53
sa(dp668
g482
g494
sg483
I178
sg484
I3
sg485
I41
sg486
I59
sg487
I20
sa(dp669
g482
g494
sg483
I179
sg484
I2
sg485
I40
sg486
I63
sg487
I10
sa(dp670
g482
g491
sg483
I180
sg484
I1
sg485
I42
sg486
I67
sg487
I9
sa(dp671
g482
g494
sg483
I181
sg484
I0
sg485
I63
sg486
I71
sg487
I0
satRp672
(dp673
g168
I01
sg169
(lp674
g483
ag486
ag484
ag487
ag485
ag482
asg171
Nsg172
I0
sg173
g174
(g13
tRp675
sbsS'max_archive_size'
p676
NsS'solution_found_flag'
p677
I01
sS'time_taken'
p678
F4.9307448863983154
sS'benchmark_name'
p679
S'M_A4'
p680
sa(dp681
S'tree_str'
p682
S'a4(a4(a4(a4(a4(ARG0,a4(ARG0,a4(ARG0,ARG2))),ARG1),a4(ARG2,a4(a4(a4(ARG1,a4(a4(ARG1,ARG2),ARG0)),ARG0),a4(a4(ARG2,ARG1),a4(ARG1,ARG0))))),a4(ARG1,a4(ARG1,ARG2))),a4(a4(a4(a4(ARG2,ARG2),a4(ARG0,a4(ARG0,ARG2))),a4(ARG1,a4(ARG0,a4(ARG0,ARG1)))),a4(ARG2,a4(ARG1,ARG0))))'
p683
sS'tree_len'
p684
I59
sS'archive_size'
p685
I130
sS'number_of_operators'
p686
I29
sS'alg_name'
p687
S'small-LTI'
p688
sS'archive_tree_deapth'
p689
I2
sS'logbook'
p690
g12
(g13
g14
(lp691
(dp692
S'status'
p693
NsS'iteration'
p694
I0
sS'count_wrongs'
p695
I6
sS'picked_node'
p696
NsS'len_master_tree'
p697
I1
sS'total_wrongs'
p698
I6
sa(dp699
g693
S'worst'
p700
sg694
I1
sg695
I7
sg696
I0
sg697
I5
sg698
I32
sa(dp701
g693
S'better'
p702
sg694
I2
sg695
I8
sg696
I4
sg697
I9
sg698
I37
sa(dp703
g693
g702
sg694
I3
sg695
I5
sg696
I1
sg697
I9
sg698
I16
sa(dp704
g693
g700
sg694
I4
sg695
I6
sg696
I7
sg697
I13
sg698
I26
sa(dp705
g693
S'perfect'
p706
sg694
I5
sg695
I5
sg696
I4
sg697
I17
sg698
I18
sa(dp707
g693
g700
sg694
I6
sg695
I6
sg696
I4
sg697
I13
sg698
I25
sa(dp708
g693
g706
sg694
I7
sg695
I5
sg696
I5
sg697
I9
sg698
I16
sa(dp709
g693
g700
sg694
I8
sg695
I5
sg696
I6
sg697
I13
sg698
I32
sa(dp710
g693
g702
sg694
I9
sg695
I5
sg696
I8
sg697
I9
sg698
I16
sa(dp711
g693
g700
sg694
I10
sg695
I5
sg696
I8
sg697
I13
sg698
I32
sa(dp712
g693
g702
sg694
I11
sg695
I5
sg696
I3
sg697
I9
sg698
I16
sa(dp713
g693
g700
sg694
I12
sg695
I6
sg696
I8
sg697
I13
sg698
I28
sa(dp714
g693
g706
sg694
I13
sg695
I5
sg696
I5
sg697
I17
sg698
I20
sa(dp715
g693
g700
sg694
I14
sg695
I6
sg696
I5
sg697
I13
sg698
I25
sa(dp716
g693
g702
sg694
I15
sg695
I5
sg696
I12
sg697
I17
sg698
I18
sa(dp717
g693
g700
sg694
I16
sg695
I6
sg696
I12
sg697
I13
sg698
I25
sa(dp718
g693
g702
sg694
I17
sg695
I5
sg696
I12
sg697
I17
sg698
I20
sa(dp719
g693
g700
sg694
I18
sg695
I6
sg696
I10
sg697
I13
sg698
I25
sa(dp720
g693
g700
sg694
I19
sg695
I5
sg696
I6
sg697
I17
sg698
I37
sa(dp721
g693
g706
sg694
I20
sg695
I5
sg696
I6
sg697
I21
sg698
I16
sa(dp722
g693
g700
sg694
I21
sg695
I5
sg696
I6
sg697
I23
sg698
I38
sa(dp723
g693
g706
sg694
I22
sg695
I5
sg696
I11
sg697
I21
sg698
I26
sa(dp724
g693
g702
sg694
I23
sg695
I4
sg696
I15
sg697
I25
sg698
I21
sa(dp725
g693
g706
sg694
I24
sg695
I4
sg696
I23
sg697
I27
sg698
I9
sa(dp726
g693
g700
sg694
I25
sg695
I4
sg696
I2
sg697
I31
sg698
I66
sa(dp727
g693
g706
sg694
I26
sg695
I4
sg696
I14
sg697
I27
sg698
I43
sa(dp728
g693
g706
sg694
I27
sg695
I4
sg696
I5
sg697
I27
sg698
I25
sa(dp729
g693
g700
sg694
I28
sg695
I6
sg696
I1
sg697
I9
sg698
I37
sa(dp730
g693
g702
sg694
I29
sg695
I6
sg696
I8
sg697
I13
sg698
I42
sa(dp731
g693
g702
sg694
I30
sg695
I6
sg696
I5
sg697
I17
sg698
I37
sa(dp732
g693
g706
sg694
I31
sg695
I6
sg696
I16
sg697
I17
sg698
I36
sa(dp733
g693
g702
sg694
I32
sg695
I6
sg696
I1
sg697
I21
sg698
I41
sa(dp734
g693
g702
sg694
I33
sg695
I4
sg696
I19
sg697
I25
sg698
I32
sa(dp735
g693
g706
sg694
I34
sg695
I4
sg696
I24
sg697
I29
sg698
I31
sa(dp736
g693
g700
sg694
I35
sg695
I5
sg696
I22
sg697
I25
sg698
I56
sa(dp737
g693
g702
sg694
I36
sg695
I3
sg696
I11
sg697
I25
sg698
I30
sa(dp738
g693
g700
sg694
I37
sg695
I5
sg696
I20
sg697
I25
sg698
I57
sa(dp739
g693
g702
sg694
I38
sg695
I3
sg696
I20
sg697
I25
sg698
I30
sa(dp740
g693
g700
sg694
I39
sg695
I5
sg696
I18
sg697
I25
sg698
I56
sa(dp741
g693
g702
sg694
I40
sg695
I3
sg696
I24
sg697
I25
sg698
I30
sa(dp742
g693
g700
sg694
I41
sg695
I4
sg696
I13
sg697
I25
sg698
I53
sa(dp743
g693
g702
sg694
I42
sg695
I4
sg696
I16
sg697
I31
sg698
I46
sa(dp744
g693
g706
sg694
I43
sg695
I3
sg696
I16
sg697
I35
sg698
I18
sa(dp745
g693
g700
sg694
I44
sg695
I4
sg696
I16
sg697
I33
sg698
I48
sa(dp746
g693
g706
sg694
I45
sg695
I3
sg696
I23
sg697
I29
sg698
I18
sa(dp747
g693
g706
sg694
I46
sg695
I2
sg696
I26
sg697
I33
sg698
I11
sa(dp748
g693
g700
sg694
I47
sg695
I2
sg696
I2
sg697
I21
sg698
I30
sa(dp749
g693
g706
sg694
I48
sg695
I2
sg696
I16
sg697
I25
sg698
I21
sa(dp750
g693
g702
sg694
I49
sg695
I2
sg696
I3
sg697
I29
sg698
I24
sa(dp751
g693
g700
sg694
I50
sg695
I2
sg696
I24
sg697
I25
sg698
I21
sa(dp752
g693
g702
sg694
I51
sg695
I2
sg696
I24
sg697
I29
sg698
I24
sa(dp753
g693
g700
sg694
I52
sg695
I4
sg696
I5
sg697
I29
sg698
I49
sa(dp754
g693
g706
sg694
I53
sg695
I2
sg696
I27
sg697
I33
sg698
I21
sa(dp755
g693
g700
sg694
I54
sg695
I2
sg696
I21
sg697
I29
sg698
I18
sa(dp756
g693
g702
sg694
I55
sg695
I2
sg696
I28
sg697
I33
sg698
I21
sa(dp757
g693
g700
sg694
I56
sg695
I2
sg696
I28
sg697
I29
sg698
I18
sa(dp758
g693
g700
sg694
I57
sg695
I4
sg696
I15
sg697
I33
sg698
I35
sa(dp759
g693
g702
sg694
I58
sg695
I3
sg696
I32
sg697
I39
sg698
I34
sa(dp760
g693
g706
sg694
I59
sg695
I2
sg696
I33
sg697
I41
sg698
I11
sa(dp761
g693
g700
sg694
I60
sg695
I2
sg696
I28
sg697
I29
sg698
I18
sa(dp762
g693
g702
sg694
I61
sg695
I2
sg696
I27
sg697
I33
sg698
I21
sa(dp763
g693
g700
sg694
I62
sg695
I2
sg696
I28
sg697
I33
sg698
I25
sa(dp764
g693
g702
sg694
I63
sg695
I2
sg696
I31
sg697
I37
sg698
I25
sa(dp765
g693
g700
sg694
I64
sg695
I2
sg696
I30
sg697
I33
sg698
I25
sa(dp766
g693
g700
sg694
I65
sg695
I4
sg696
I32
sg697
I33
sg698
I67
sa(dp767
g693
g706
sg694
I66
sg695
I2
sg696
I24
sg697
I33
sg698
I25
sa(dp768
g693
g700
sg694
I67
sg695
I3
sg696
I29
sg697
I37
sg698
I43
sa(dp769
g693
g702
sg694
I68
sg695
I2
sg696
I27
sg697
I33
sg698
I25
sa(dp770
g693
g700
sg694
I69
sg695
I3
sg696
I32
sg697
I37
sg698
I43
sa(dp771
g693
g702
sg694
I70
sg695
I2
sg696
I25
sg697
I33
sg698
I25
sa(dp772
g693
g700
sg694
I71
sg695
I3
sg696
I32
sg697
I37
sg698
I43
sa(dp773
g693
g706
sg694
I72
sg695
I2
sg696
I35
sg697
I41
sg698
I26
sa(dp774
g693
g702
sg694
I73
sg695
I2
sg696
I24
sg697
I45
sg698
I24
sa(dp775
g693
g706
sg694
I74
sg695
I1
sg696
I34
sg697
I51
sg698
I3
sa(dp776
g693
g700
sg694
I75
sg695
I4
sg696
I5
sg697
I43
sg698
I66
sa(dp777
g693
g702
sg694
I76
sg695
I5
sg696
I39
sg697
I45
sg698
I87
sa(dp778
g693
g706
sg694
I77
sg695
I4
sg696
I43
sg697
I49
sg698
I57
sa(dp779
g693
g702
sg694
I78
sg695
I2
sg696
I41
sg697
I51
sg698
I46
sa(dp780
g693
g706
sg694
I79
sg695
I1
sg696
I29
sg697
I45
sg698
I12
sa(dp781
g693
g706
sg694
I80
sg695
I1
sg696
I43
sg697
I49
sg698
I11
sa(dp782
g693
g700
sg694
I81
sg695
I2
sg696
I30
sg697
I41
sg698
I31
sa(dp783
g693
g706
sg694
I82
sg695
I1
sg696
I6
sg697
I47
sg698
I6
sa(dp784
g693
g700
sg694
I83
sg695
I2
sg696
I32
sg697
I51
sg698
I41
sa(dp785
g693
g706
sg694
I84
sg695
I1
sg696
I15
sg697
I47
sg698
I10
sa(dp786
g693
g700
sg694
I85
sg695
I2
sg696
I21
sg697
I39
sg698
I38
sa(dp787
g693
g706
sg694
I86
sg695
I1
sg696
I10
sg697
I43
sg698
I7
sa(dp788
g693
g700
sg694
I87
sg695
I2
sg696
I33
sg697
I43
sg698
I15
sa(dp789
g693
g702
sg694
I88
sg695
I1
sg696
I38
sg697
I43
sg698
I7
sa(dp790
g693
g700
sg694
I89
sg695
I2
sg696
I38
sg697
I43
sg698
I15
sa(dp791
g693
g702
sg694
I90
sg695
I1
sg696
I38
sg697
I43
sg698
I7
sa(dp792
g693
g700
sg694
I91
sg695
I2
sg696
I38
sg697
I43
sg698
I15
sa(dp793
g693
g702
sg694
I92
sg695
I2
sg696
I42
sg697
I47
sg698
I18
sa(dp794
g693
g702
sg694
I93
sg695
I2
sg696
I39
sg697
I51
sg698
I22
sa(dp795
g693
g702
sg694
I94
sg695
I1
sg696
I20
sg697
I55
sg698
I15
sa(dp796
g693
g706
sg694
I95
sg695
I0
sg696
I46
sg697
I59
sg698
I0
satRp797
(dp798
g168
I01
sg169
(lp799
g694
ag697
ag695
ag698
ag696
ag693
asg171
Nsg172
I0
sg173
g174
(g13
tRp800
sbsS'max_archive_size'
p801
NsS'solution_found_flag'
p802
I01
sS'time_taken'
p803
F1.9804530143737793
sS'benchmark_name'
p804
S'M_A4'
p805
sa(dp806
S'tree_str'
p807
S'a4(a4(a4(a4(ARG0,ARG1),a4(a4(ARG0,ARG0),a4(ARG1,a4(ARG1,ARG2)))),ARG2),a4(a4(a4(a4(ARG0,a4(ARG2,a4(ARG1,ARG2))),a4(ARG2,a4(ARG2,ARG1))),ARG0),a4(ARG0,a4(ARG0,ARG0))))'
p808
sS'tree_len'
p809
I37
sS'archive_size'
p810
I130
sS'number_of_operators'
p811
I18
sS'alg_name'
p812
S'small-LTI'
p813
sS'archive_tree_deapth'
p814
I2
sS'logbook'
p815
g12
(g13
g14
(lp816
(dp817
S'status'
p818
NsS'iteration'
p819
I0
sS'count_wrongs'
p820
I6
sS'picked_node'
p821
NsS'len_master_tree'
p822
I1
sS'total_wrongs'
p823
I6
sa(dp824
g818
S'worst'
p825
sg819
I1
sg820
I7
sg821
I0
sg822
I5
sg823
I30
sa(dp826
g818
S'better'
p827
sg819
I2
sg820
I5
sg821
I4
sg822
I9
sg823
I16
sa(dp828
g818
g825
sg819
I3
sg820
I5
sg821
I7
sg822
I13
sg823
I32
sa(dp829
g818
g827
sg819
I4
sg820
I5
sg821
I8
sg822
I9
sg823
I16
sa(dp830
g818
g825
sg819
I5
sg820
I5
sg821
I8
sg822
I13
sg823
I32
sa(dp831
g818
g827
sg819
I6
sg820
I5
sg821
I6
sg822
I9
sg823
I16
sa(dp832
g818
g825
sg819
I7
sg820
I6
sg821
I8
sg822
I13
sg823
I28
sa(dp833
g818
S'perfect'
p834
sg819
I8
sg820
I5
sg821
I5
sg822
I17
sg823
I20
sa(dp835
g818
g825
sg819
I9
sg820
I6
sg821
I7
sg822
I13
sg823
I25
sa(dp836
g818
g834
sg819
I10
sg820
I5
sg821
I7
sg822
I9
sg823
I16
sa(dp837
g818
g825
sg819
I11
sg820
I6
sg821
I7
sg822
I13
sg823
I28
sa(dp838
g818
g834
sg819
I12
sg820
I5
sg821
I7
sg822
I17
sg823
I20
sa(dp839
g818
g825
sg819
I13
sg820
I6
sg821
I5
sg822
I13
sg823
I25
sa(dp840
g818
g834
sg819
I14
sg820
I5
sg821
I5
sg822
I9
sg823
I16
sa(dp841
g818
g825
sg819
I15
sg820
I6
sg821
I7
sg822
I13
sg823
I26
sa(dp842
g818
g827
sg819
I16
sg820
I5
sg821
I8
sg822
I9
sg823
I16
sa(dp843
g818
g825
sg819
I17
sg820
I5
sg821
I6
sg822
I13
sg823
I32
sa(dp844
g818
g827
sg819
I18
sg820
I5
sg821
I8
sg822
I13
sg823
I21
sa(dp845
g818
g825
sg819
I19
sg820
I5
sg821
I8
sg822
I13
sg823
I32
sa(dp846
g818
g827
sg819
I20
sg820
I5
sg821
I10
sg822
I13
sg823
I22
sa(dp847
g818
g825
sg819
I21
sg820
I5
sg821
I10
sg822
I13
sg823
I32
sa(dp848
g818
g827
sg819
I22
sg820
I5
sg821
I11
sg822
I13
sg823
I22
sa(dp849
g818
g825
sg819
I23
sg820
I5
sg821
I12
sg822
I13
sg823
I32
sa(dp850
g818
g827
sg819
I24
sg820
I5
sg821
I8
sg822
I13
sg823
I21
sa(dp851
g818
g825
sg819
I25
sg820
I5
sg821
I11
sg822
I17
sg823
I40
sa(dp852
g818
g827
sg819
I26
sg820
I5
sg821
I8
sg822
I13
sg823
I20
sa(dp853
g818
g825
sg819
I27
sg820
I5
sg821
I10
sg822
I13
sg823
I32
sa(dp854
g818
g827
sg819
I28
sg820
I5
sg821
I10
sg822
I13
sg823
I21
sa(dp855
g818
g825
sg819
I29
sg820
I5
sg821
I11
sg822
I13
sg823
I32
sa(dp856
g818
g827
sg819
I30
sg820
I5
sg821
I12
sg822
I13
sg823
I21
sa(dp857
g818
g825
sg819
I31
sg820
I6
sg821
I9
sg822
I17
sg823
I37
sa(dp858
g818
g834
sg819
I32
sg820
I5
sg821
I6
sg822
I21
sg823
I25
sa(dp859
g818
g825
sg819
I33
sg820
I6
sg821
I6
sg822
I25
sg823
I42
sa(dp860
g818
g827
sg819
I34
sg820
I5
sg821
I20
sg822
I21
sg823
I25
sa(dp861
g818
g825
sg819
I35
sg820
I6
sg821
I11
sg822
I25
sg823
I53
sa(dp862
g818
g834
sg819
I36
sg820
I5
sg821
I11
sg822
I25
sg823
I30
sa(dp863
g818
g834
sg819
I37
sg820
I4
sg821
I12
sg822
I29
sg823
I9
sa(dp864
g818
g825
sg819
I38
sg820
I4
sg821
I3
sg822
I33
sg823
I63
sa(dp865
g818
g827
sg819
I39
sg820
I4
sg821
I28
sg822
I29
sg823
I9
sa(dp866
g818
g825
sg819
I40
sg820
I4
sg821
I28
sg822
I33
sg823
I63
sa(dp867
g818
g827
sg819
I41
sg820
I5
sg821
I9
sg822
I31
sg823
I47
sa(dp868
g818
g827
sg819
I42
sg820
I6
sg821
I1
sg822
I35
sg823
I62
sa(dp869
g818
g834
sg819
I43
sg820
I6
sg821
I2
sg822
I13
sg823
I42
sa(dp870
g818
g827
sg819
I44
sg820
I5
sg821
I2
sg822
I13
sg823
I31
sa(dp871
g818
g825
sg819
I45
sg820
I5
sg821
I2
sg822
I13
sg823
I43
sa(dp872
g818
g827
sg819
I46
sg820
I5
sg821
I8
sg822
I13
sg823
I31
sa(dp873
g818
g825
sg819
I47
sg820
I5
sg821
I8
sg822
I13
sg823
I43
sa(dp874
g818
g827
sg819
I48
sg820
I5
sg821
I11
sg822
I17
sg823
I39
sa(dp875
g818
g825
sg819
I49
sg820
I5
sg821
I14
sg822
I17
sg823
I55
sa(dp876
g818
g827
sg819
I50
sg820
I5
sg821
I14
sg822
I17
sg823
I39
sa(dp877
g818
g825
sg819
I51
sg820
I5
sg821
I12
sg822
I17
sg823
I55
sa(dp878
g818
g827
sg819
I52
sg820
I5
sg821
I12
sg822
I17
sg823
I39
sa(dp879
g818
g825
sg819
I53
sg820
I6
sg821
I16
sg822
I21
sg823
I60
sa(dp880
g818
g834
sg819
I54
sg820
I5
sg821
I9
sg822
I25
sg823
I44
sa(dp881
g818
g825
sg819
I55
sg820
I5
sg821
I17
sg822
I25
sg823
I66
sa(dp882
g818
g827
sg819
I56
sg820
I5
sg821
I22
sg822
I25
sg823
I44
sa(dp883
g818
g825
sg819
I57
sg820
I5
sg821
I23
sg822
I25
sg823
I66
sa(dp884
g818
g827
sg819
I58
sg820
I5
sg821
I24
sg822
I25
sg823
I44
sa(dp885
g818
g825
sg819
I59
sg820
I5
sg821
I24
sg822
I25
sg823
I66
sa(dp886
g818
g827
sg819
I60
sg820
I5
sg821
I24
sg822
I29
sg823
I47
sa(dp887
g818
g825
sg819
I61
sg820
I5
sg821
I22
sg822
I25
sg823
I66
sa(dp888
g818
g827
sg819
I62
sg820
I5
sg821
I23
sg822
I25
sg823
I44
sa(dp889
g818
g825
sg819
I63
sg820
I5
sg821
I24
sg822
I29
sg823
I72
sa(dp890
g818
g834
sg819
I64
sg820
I5
sg821
I23
sg822
I33
sg823
I72
sa(dp891
g818
g827
sg819
I65
sg820
I5
sg821
I24
sg822
I37
sg823
I56
sa(dp892
g818
g834
sg819
I66
sg820
I4
sg821
I33
sg822
I41
sg823
I31
sa(dp893
g818
g825
sg819
I67
sg820
I5
sg821
I15
sg822
I25
sg823
I44
sa(dp894
g818
g825
sg819
I68
sg820
I5
sg821
I23
sg822
I29
sg823
I72
sa(dp895
g818
g827
sg819
I69
sg820
I5
sg821
I27
sg822
I29
sg823
I47
sa(dp896
g818
g825
sg819
I70
sg820
I5
sg821
I28
sg822
I29
sg823
I72
sa(dp897
g818
g827
sg819
I71
sg820
I5
sg821
I26
sg822
I29
sg823
I47
sa(dp898
g818
g825
sg819
I72
sg820
I5
sg821
I26
sg822
I29
sg823
I72
sa(dp899
g818
g827
sg819
I73
sg820
I5
sg821
I28
sg822
I33
sg823
I68
sa(dp900
g818
g834
sg819
I74
sg820
I4
sg821
I29
sg822
I37
sg823
I48
sa(dp901
g818
g825
sg819
I75
sg820
I6
sg821
I24
sg822
I29
sg823
I71
sa(dp902
g818
g834
sg819
I76
sg820
I5
sg821
I18
sg822
I33
sg823
I47
sa(dp903
g818
g825
sg819
I77
sg820
I6
sg821
I21
sg822
I29
sg823
I65
sa(dp904
g818
g834
sg819
I78
sg820
I5
sg821
I21
sg822
I25
sg823
I44
sa(dp905
g818
g825
sg819
I79
sg820
I5
sg821
I22
sg822
I25
sg823
I66
sa(dp906
g818
g827
sg819
I80
sg820
I5
sg821
I22
sg822
I29
sg823
I69
sa(dp907
g818
g834
sg819
I81
sg820
I4
sg821
I25
sg822
I33
sg823
I45
sa(dp908
g818
g825
sg819
I82
sg820
I5
sg821
I21
sg822
I25
sg823
I66
sa(dp909
g818
g827
sg819
I83
sg820
I5
sg821
I24
sg822
I29
sg823
I69
sa(dp910
g818
g827
sg819
I84
sg820
I5
sg821
I19
sg822
I25
sg823
I44
sa(dp911
g818
g825
sg819
I85
sg820
I6
sg821
I23
sg822
I29
sg823
I71
sa(dp912
g818
g834
sg819
I86
sg820
I5
sg821
I16
sg822
I33
sg823
I47
sa(dp913
g818
g825
sg819
I87
sg820
I6
sg821
I21
sg822
I29
sg823
I68
sa(dp914
g818
g834
sg819
I88
sg820
I5
sg821
I15
sg822
I25
sg823
I44
sa(dp915
g818
g825
sg819
I89
sg820
I5
sg821
I17
sg822
I25
sg823
I65
sa(dp916
g818
g834
sg819
I90
sg820
I5
sg821
I18
sg822
I29
sg823
I51
sa(dp917
g818
g827
sg819
I91
sg820
I3
sg821
I4
sg822
I33
sg823
I77
sa(dp918
g818
g834
sg819
I92
sg820
I2
sg821
I19
sg822
I33
sg823
I45
sa(dp919
g818
g827
sg819
I93
sg820
I2
sg821
I11
sg822
I37
sg823
I37
sa(dp920
g818
g834
sg819
I94
sg820
I1
sg821
I21
sg822
I39
sg823
I9
sa(dp921
g818
g834
sg819
I95
sg820
I1
sg821
I24
sg822
I43
sg823
I8
sa(dp922
g818
g825
sg819
I96
sg820
I2
sg821
I21
sg822
I41
sg823
I45
sa(dp923
g818
g834
sg819
I97
sg820
I1
sg821
I15
sg822
I35
sg823
I11
sa(dp924
g818
g834
sg819
I98
sg820
I0
sg821
I24
sg822
I37
sg823
I0
satRp925
(dp926
g168
I01
sg169
(lp927
g819
ag822
ag820
ag823
ag821
ag818
asg171
Nsg172
I0
sg173
g174
(g13
tRp928
sbsS'max_archive_size'
p929
NsS'solution_found_flag'
p930
I01
sS'time_taken'
p931
F2.9892220497131348
sS'benchmark_name'
p932
S'M_A4'
p933
sa(dp934
S'tree_str'
p935
S'a4(a4(a4(a4(a4(ARG2,ARG1),a4(a4(a4(ARG2,ARG0),ARG0),a4(a4(a4(a4(ARG1,ARG2),a4(ARG0,ARG1)),ARG1),a4(a4(ARG2,ARG2),a4(ARG1,ARG0))))),a4(ARG0,a4(ARG0,ARG2))),a4(ARG1,a4(a4(a4(ARG1,ARG1),ARG1),ARG0))),a4(a4(ARG0,a4(a4(a4(ARG0,ARG2),ARG2),a4(ARG0,a4(ARG1,ARG2)))),a4(a4(a4(a4(ARG2,a4(a4(ARG2,ARG0),ARG1)),ARG1),ARG0),ARG0)))'
p936
sS'tree_len'
p937
I71
sS'archive_size'
p938
I130
sS'number_of_operators'
p939
I35
sS'alg_name'
p940
S'small-LTI'
p941
sS'archive_tree_deapth'
p942
I2
sS'logbook'
p943
g12
(g13
g14
(lp944
(dp945
S'status'
p946
NsS'iteration'
p947
I0
sS'count_wrongs'
p948
I6
sS'picked_node'
p949
NsS'len_master_tree'
p950
I1
sS'total_wrongs'
p951
I6
sa(dp952
g946
S'worst'
p953
sg947
I1
sg948
I7
sg949
I0
sg950
I5
sg951
I30
sa(dp954
g946
S'better'
p955
sg947
I2
sg948
I5
sg949
I4
sg950
I9
sg951
I16
sa(dp956
g946
g953
sg947
I3
sg948
I6
sg949
I8
sg950
I13
sg951
I26
sa(dp957
g946
S'perfect'
p958
sg947
I4
sg948
I5
sg949
I5
sg950
I17
sg951
I18
sa(dp959
g946
g953
sg947
I5
sg948
I6
sg949
I5
sg950
I13
sg951
I25
sa(dp960
g946
g958
sg947
I6
sg948
I5
sg949
I5
sg950
I9
sg951
I16
sa(dp961
g946
g953
sg947
I7
sg948
I6
sg949
I7
sg950
I13
sg951
I26
sa(dp962
g946
g958
sg947
I8
sg948
I5
sg949
I7
sg950
I17
sg951
I18
sa(dp963
g946
g953
sg947
I9
sg948
I6
sg949
I7
sg950
I13
sg951
I25
sa(dp964
g946
g958
sg947
I10
sg948
I5
sg949
I7
sg950
I9
sg951
I16
sa(dp965
g946
g953
sg947
I11
sg948
I5
sg949
I6
sg950
I13
sg951
I32
sa(dp966
g946
g955
sg947
I12
sg948
I5
sg949
I8
sg950
I9
sg951
I16
sa(dp967
g946
g953
sg947
I13
sg948
I6
sg949
I6
sg950
I13
sg951
I28
sa(dp968
g946
g958
sg947
I14
sg948
I5
sg949
I6
sg950
I17
sg951
I20
sa(dp969
g946
g953
sg947
I15
sg948
I5
sg949
I10
sg950
I17
sg951
I36
sa(dp970
g946
g958
sg947
I16
sg948
I4
sg949
I10
sg950
I21
sg951
I9
sa(dp971
g946
g953
sg947
I17
sg948
I4
sg949
I3
sg950
I25
sg951
I59
sa(dp972
g946
g955
sg947
I18
sg948
I4
sg949
I4
sg950
I21
sg951
I41
sa(dp973
g946
g955
sg947
I19
sg948
I5
sg949
I10
sg950
I25
sg951
I56
sa(dp974
g946
g958
sg947
I20
sg948
I4
sg949
I5
sg950
I29
sg951
I35
sa(dp975
g946
g955
sg947
I21
sg948
I3
sg949
I1
sg950
I33
sg951
I34
sa(dp976
g946
g953
sg947
I22
sg948
I4
sg949
I19
sg950
I37
sg951
I52
sa(dp977
g946
g955
sg947
I23
sg948
I3
sg949
I32
sg950
I33
sg951
I34
sa(dp978
g946
g953
sg947
I24
sg948
I4
sg949
I9
sg950
I37
sg951
I61
sa(dp979
g946
g958
sg947
I25
sg948
I4
sg949
I3
sg950
I35
sg951
I53
sa(dp980
g946
g953
sg947
I26
sg948
I5
sg949
I18
sg950
I39
sg951
I90
sa(dp981
g946
g958
sg947
I27
sg948
I5
sg949
I9
sg950
I43
sg951
I89
sa(dp982
g946
g958
sg947
I28
sg948
I4
sg949
I32
sg950
I47
sg951
I54
sa(dp983
g946
g953
sg947
I29
sg948
I5
sg949
I33
sg950
I51
sg951
I88
sa(dp984
g946
g958
sg947
I30
sg948
I5
sg949
I34
sg950
I55
sg951
I85
sa(dp985
g946
g958
sg947
I31
sg948
I5
sg949
I36
sg950
I59
sg951
I81
sa(dp986
g946
g955
sg947
I32
sg948
I4
sg949
I32
sg950
I51
sg951
I54
sa(dp987
g946
g953
sg947
I33
sg948
I5
sg949
I46
sg950
I47
sg951
I84
sa(dp988
g946
g958
sg947
I34
sg948
I4
sg949
I26
sg950
I43
sg951
I53
sa(dp989
g946
g953
sg947
I35
sg948
I5
sg949
I35
sg950
I47
sg951
I98
sa(dp990
g946
g958
sg947
I36
sg948
I5
sg949
I30
sg950
I43
sg951
I89
sa(dp991
g946
g958
sg947
I37
sg948
I4
sg949
I36
sg950
I47
sg951
I54
sa(dp992
g946
g953
sg947
I38
sg948
I5
sg949
I36
sg950
I43
sg951
I75
sa(dp993
g946
g958
sg947
I39
sg948
I4
sg949
I37
sg950
I39
sg951
I53
sa(dp994
g946
g953
sg947
I40
sg948
I5
sg949
I37
sg950
I43
sg951
I89
sa(dp995
g946
g958
sg947
I41
sg948
I4
sg949
I37
sg950
I47
sg951
I54
sa(dp996
g946
g953
sg947
I42
sg948
I5
sg949
I37
sg950
I43
sg951
I75
sa(dp997
g946
g958
sg947
I43
sg948
I4
sg949
I30
sg950
I39
sg951
I53
sa(dp998
g946
g953
sg947
I44
sg948
I5
sg949
I31
sg950
I43
sg951
I89
sa(dp999
g946
g958
sg947
I45
sg948
I5
sg949
I34
sg950
I47
sg951
I88
sa(dp1000
g946
g958
sg947
I46
sg948
I4
sg949
I36
sg950
I53
sg951
I54
sa(dp1001
g946
g953
sg947
I47
sg948
I5
sg949
I37
sg950
I57
sg951
I90
sa(dp1002
g946
g958
sg947
I48
sg948
I5
sg949
I32
sg950
I57
sg951
I82
sa(dp1003
g946
g958
sg947
I49
sg948
I5
sg949
I36
sg950
I61
sg951
I79
sa(dp1004
g946
g955
sg947
I50
sg948
I4
sg949
I34
sg950
I53
sg951
I54
sa(dp1005
g946
g953
sg947
I51
sg948
I5
sg949
I48
sg950
I49
sg951
I84
sa(dp1006
g946
g958
sg947
I52
sg948
I4
sg949
I31
sg950
I39
sg951
I53
sa(dp1007
g946
g953
sg947
I53
sg948
I6
sg949
I25
sg950
I43
sg951
I137
sa(dp1008
g946
g958
sg947
I54
sg948
I5
sg949
I34
sg950
I49
sg951
I89
sa(dp1009
g946
g958
sg947
I55
sg948
I4
sg949
I29
sg950
I53
sg951
I54
sa(dp1010
g946
g953
sg947
I56
sg948
I5
sg949
I2
sg950
I29
sg951
I65
sa(dp1011
g946
g955
sg947
I57
sg948
I4
sg949
I9
sg950
I25
sg951
I18
sa(dp1012
g946
g953
sg947
I58
sg948
I5
sg949
I10
sg950
I21
sg951
I31
sa(dp1013
g946
g958
sg947
I59
sg948
I4
sg949
I8
sg950
I25
sg951
I19
sa(dp1014
g946
g953
sg947
I60
sg948
I4
sg949
I3
sg950
I25
sg951
I45
sa(dp1015
g946
g955
sg947
I61
sg948
I4
sg949
I18
sg950
I25
sg951
I20
sa(dp1016
g946
g953
sg947
I62
sg948
I4
sg949
I18
sg950
I25
sg951
I35
sa(dp1017
g946
g955
sg947
I63
sg948
I4
sg949
I23
sg950
I29
sg951
I37
sa(dp1018
g946
g953
sg947
I64
sg948
I4
sg949
I24
sg950
I25
sg951
I35
sa(dp1019
g946
g955
sg947
I65
sg948
I4
sg949
I24
sg950
I29
sg951
I37
sa(dp1020
g946
g953
sg947
I66
sg948
I4
sg949
I24
sg950
I29
sg951
I41
sa(dp1021
g946
g955
sg947
I67
sg948
I4
sg949
I27
sg950
I33
sg951
I41
sa(dp1022
g946
g953
sg947
I68
sg948
I4
sg949
I26
sg950
I29
sg951
I41
sa(dp1023
g946
g953
sg947
I69
sg948
I5
sg949
I25
sg950
I33
sg951
I61
sa(dp1024
g946
g955
sg947
I70
sg948
I4
sg949
I28
sg950
I29
sg951
I41
sa(dp1025
g946
g955
sg947
I71
sg948
I4
sg949
I26
sg950
I33
sg951
I41
sa(dp1026
g946
g953
sg947
I72
sg948
I4
sg949
I24
sg950
I29
sg951
I41
sa(dp1027
g946
g953
sg947
I73
sg948
I6
sg949
I25
sg950
I33
sg951
I87
sa(dp1028
g946
g955
sg947
I74
sg948
I4
sg949
I28
sg950
I29
sg951
I41
sa(dp1029
g946
g953
sg947
I75
sg948
I6
sg949
I28
sg950
I33
sg951
I87
sa(dp1030
g946
g955
sg947
I76
sg948
I5
sg949
I8
sg950
I37
sg951
I78
sa(dp1031
g946
g955
sg947
I77
sg948
I5
sg949
I17
sg950
I29
sg951
I58
sa(dp1032
g946
g955
sg947
I78
sg948
I5
sg949
I25
sg950
I33
sg951
I61
sa(dp1033
g946
g955
sg947
I79
sg948
I4
sg949
I10
sg950
I37
sg951
I54
sa(dp1034
g946
g953
sg947
I80
sg948
I4
sg949
I7
sg950
I29
sg951
I48
sa(dp1035
g946
g955
sg947
I81
sg948
I4
sg949
I13
sg950
I25
sg951
I20
sa(dp1036
g946
g953
sg947
I82
sg948
I5
sg949
I14
sg950
I25
sg951
I51
sa(dp1037
g946
g955
sg947
I83
sg948
I4
sg949
I24
sg950
I25
sg951
I20
sa(dp1038
g946
g953
sg947
I84
sg948
I5
sg949
I13
sg950
I25
sg951
I51
sa(dp1039
g946
g955
sg947
I85
sg948
I4
sg949
I21
sg950
I25
sg951
I20
sa(dp1040
g946
g953
sg947
I86
sg948
I4
sg949
I13
sg950
I25
sg951
I45
sa(dp1041
g946
g955
sg947
I87
sg948
I4
sg949
I21
sg950
I29
sg951
I48
sa(dp1042
g946
g953
sg947
I88
sg948
I4
sg949
I24
sg950
I25
sg951
I45
sa(dp1043
g946
g955
sg947
I89
sg948
I4
sg949
I24
sg950
I29
sg951
I48
sa(dp1044
g946
g953
sg947
I90
sg948
I5
sg949
I8
sg950
I25
sg951
I59
sa(dp1045
g946
g955
sg947
I91
sg948
I4
sg949
I24
sg950
I29
sg951
I48
sa(dp1046
g946
g953
sg947
I92
sg948
I4
sg949
I19
sg950
I25
sg951
I45
sa(dp1047
g946
g953
sg947
I93
sg948
I5
sg949
I4
sg950
I21
sg951
I57
sa(dp1048
g946
g955
sg947
I94
sg948
I5
sg949
I17
sg950
I25
sg951
I59
sa(dp1049
g946
g955
sg947
I95
sg948
I4
sg949
I4
sg950
I29
sg951
I48
sa(dp1050
g946
g955
sg947
I96
sg948
I4
sg949
I10
sg950
I25
sg951
I20
sa(dp1051
g946
g953
sg947
I97
sg948
I5
sg949
I5
sg950
I25
sg951
I35
sa(dp1052
g946
g955
sg947
I98
sg948
I4
sg949
I20
sg950
I25
sg951
I20
sa(dp1053
g946
g953
sg947
I99
sg948
I4
sg949
I13
sg950
I25
sg951
I35
sa(dp1054
g946
g953
sg947
I100
sg948
I4
sg949
I2
sg950
I13
sg951
I40
sa(dp1055
g946
g955
sg947
I101
sg948
I5
sg949
I12
sg950
I17
sg951
I55
sa(dp1056
g946
g955
sg947
I102
sg948
I4
sg949
I7
sg950
I21
sg951
I26
sa(dp1057
g946
g953
sg947
I103
sg948
I5
sg949
I3
sg950
I13
sg951
I29
sa(dp1058
g946
g955
sg947
I104
sg948
I4
sg949
I10
sg950
I17
sg951
I22
sa(dp1059
g946
g953
sg947
I105
sg948
I5
sg949
I12
sg950
I13
sg951
I29
sa(dp1060
g946
g955
sg947
I106
sg948
I4
sg949
I12
sg950
I17
sg951
I22
sa(dp1061
g946
g953
sg947
I107
sg948
I6
sg949
I5
sg950
I13
sg951
I36
sa(dp1062
g946
g958
sg947
I108
sg948
I6
sg949
I9
sg950
I17
sg951
I34
sa(dp1063
g946
g955
sg947
I109
sg948
I6
sg949
I11
sg950
I21
sg951
I33
sa(dp1064
g946
g955
sg947
I110
sg948
I6
sg949
I4
sg950
I25
sg951
I37
sa(dp1065
g946
g955
sg947
I111
sg948
I5
sg949
I5
sg950
I17
sg951
I26
sa(dp1066
g946
g953
sg947
I112
sg948
I5
sg949
I10
sg950
I17
sg951
I30
sa(dp1067
g946
g955
sg947
I113
sg948
I5
sg949
I10
sg950
I17
sg951
I26
sa(dp1068
g946
g953
sg947
I114
sg948
I5
sg949
I10
sg950
I17
sg951
I31
sa(dp1069
g946
g955
sg947
I115
sg948
I5
sg949
I10
sg950
I17
sg951
I24
sa(dp1070
g946
g958
sg947
I116
sg948
I5
sg949
I13
sg950
I21
sg951
I23
sa(dp1071
g946
g953
sg947
I117
sg948
I6
sg949
I12
sg950
I25
sg951
I51
sa(dp1072
g946
g958
sg947
I118
sg948
I6
sg949
I15
sg950
I25
sg951
I46
sa(dp1073
g946
g958
sg947
I119
sg948
I5
sg949
I8
sg950
I29
sg951
I27
sa(dp1074
g946
g953
sg947
I120
sg948
I6
sg949
I9
sg950
I21
sg951
I46
sa(dp1075
g946
g958
sg947
I121
sg948
I5
sg949
I7
sg950
I17
sg951
I26
sa(dp1076
g946
g953
sg947
I122
sg948
I5
sg949
I7
sg950
I17
sg951
I30
sa(dp1077
g946
g955
sg947
I123
sg948
I5
sg949
I12
sg950
I21
sg951
I31
sa(dp1078
g946
g958
sg947
I124
sg948
I5
sg949
I12
sg950
I25
sg951
I31
sa(dp1079
g946
g953
sg947
I125
sg948
I6
sg949
I11
sg950
I17
sg951
I42
sa(dp1080
g946
g955
sg947
I126
sg948
I6
sg949
I4
sg950
I21
sg951
I35
sa(dp1081
g946
g955
sg947
I127
sg948
I6
sg949
I15
sg950
I25
sg951
I35
sa(dp1082
g946
g953
sg947
I128
sg948
I6
sg949
I20
sg950
I21
sg951
I35
sa(dp1083
g946
g955
sg947
I129
sg948
I6
sg949
I20
sg950
I25
sg951
I35
sa(dp1084
g946
g953
sg947
I130
sg948
I6
sg949
I20
sg950
I21
sg951
I38
sa(dp1085
g946
g955
sg947
I131
sg948
I5
sg949
I15
sg950
I17
sg951
I30
sa(dp1086
g946
g955
sg947
I132
sg948
I5
sg949
I9
sg950
I17
sg951
I24
sa(dp1087
g946
g953
sg947
I133
sg948
I6
sg949
I13
sg950
I21
sg951
I62
sa(dp1088
g946
g958
sg947
I134
sg948
I5
sg949
I16
sg950
I21
sg951
I23
sa(dp1089
g946
g953
sg947
I135
sg948
I6
sg949
I9
sg950
I25
sg951
I32
sa(dp1090
g946
g955
sg947
I136
sg948
I5
sg949
I20
sg950
I21
sg951
I23
sa(dp1091
g946
g953
sg947
I137
sg948
I5
sg949
I9
sg950
I17
sg951
I30
sa(dp1092
g946
g955
sg947
I138
sg948
I6
sg949
I13
sg950
I21
sg951
I42
sa(dp1093
g946
g955
sg947
I139
sg948
I6
sg949
I9
sg950
I25
sg951
I35
sa(dp1094
g946
g953
sg947
I140
sg948
I6
sg949
I15
sg950
I21
sg951
I35
sa(dp1095
g946
g955
sg947
I141
sg948
I6
sg949
I20
sg950
I25
sg951
I35
sa(dp1096
g946
g953
sg947
I142
sg948
I6
sg949
I20
sg950
I25
sg951
I40
sa(dp1097
g946
g958
sg947
I143
sg948
I6
sg949
I22
sg950
I25
sg951
I35
sa(dp1098
g946
g953
sg947
I144
sg948
I6
sg949
I20
sg950
I25
sg951
I40
sa(dp1099
g946
g958
sg947
I145
sg948
I6
sg949
I24
sg950
I29
sg951
I35
sa(dp1100
g946
g953
sg947
I146
sg948
I6
sg949
I20
sg950
I27
sg951
I69
sa(dp1101
g946
g958
sg947
I147
sg948
I5
sg949
I18
sg950
I31
sg951
I42
sa(dp1102
g946
g955
sg947
I148
sg948
I5
sg949
I11
sg950
I35
sg951
I26
sa(dp1103
g946
g953
sg947
I149
sg948
I5
sg949
I30
sg950
I31
sg951
I42
sa(dp1104
g946
g955
sg947
I150
sg948
I5
sg949
I30
sg950
I35
sg951
I26
sa(dp1105
g946
g953
sg947
I151
sg948
I5
sg949
I4
sg950
I31
sg951
I53
sa(dp1106
g946
g958
sg947
I152
sg948
I5
sg949
I22
sg950
I31
sg951
I46
sa(dp1107
g946
g958
sg947
I153
sg948
I5
sg949
I18
sg950
I31
sg951
I40
sa(dp1108
g946
g955
sg947
I154
sg948
I5
sg949
I8
sg950
I35
sg951
I39
sa(dp1109
g946
g955
sg947
I155
sg948
I5
sg949
I25
sg950
I39
sg951
I44
sa(dp1110
g946
g955
sg947
I156
sg948
I5
sg949
I6
sg950
I35
sg951
I32
sa(dp1111
g946
g955
sg947
I157
sg948
I4
sg949
I2
sg950
I39
sg951
I21
sa(dp1112
g946
g955
sg947
I158
sg948
I2
sg949
I37
sg950
I43
sg951
I12
sa(dp1113
g946
g958
sg947
I159
sg948
I2
sg949
I42
sg950
I47
sg951
I11
sa(dp1114
g946
g953
sg947
I160
sg948
I3
sg949
I38
sg950
I43
sg951
I53
sa(dp1115
g946
g958
sg947
I161
sg948
I2
sg949
I10
sg950
I47
sg951
I12
sa(dp1116
g946
g953
sg947
I162
sg948
I3
sg949
I33
sg950
I47
sg951
I50
sa(dp1117
g946
g958
sg947
I163
sg948
I2
sg949
I22
sg950
I53
sg951
I10
sa(dp1118
g946
g953
sg947
I164
sg948
I3
sg949
I39
sg950
I51
sg951
I43
sa(dp1119
g946
g955
sg947
I165
sg948
I2
sg949
I46
sg950
I53
sg951
I10
sa(dp1120
g946
g953
sg947
I166
sg948
I3
sg949
I46
sg950
I51
sg951
I43
sa(dp1121
g946
g955
sg947
I167
sg948
I2
sg949
I49
sg950
I55
sg951
I40
sa(dp1122
g946
g953
sg947
I168
sg948
I3
sg949
I48
sg950
I51
sg951
I43
sa(dp1123
g946
g955
sg947
I169
sg948
I3
sg949
I47
sg950
I57
sg951
I24
sa(dp1124
g946
g958
sg947
I170
sg948
I2
sg949
I48
sg950
I61
sg951
I16
sa(dp1125
g946
g958
sg947
I171
sg948
I1
sg949
I51
sg950
I65
sg951
I3
sa(dp1126
g946
g953
sg947
I172
sg948
I3
sg949
I31
sg950
I69
sg951
I59
sa(dp1127
g946
g958
sg947
I173
sg948
I3
sg949
I48
sg950
I63
sg951
I21
sa(dp1128
g946
g955
sg947
I174
sg948
I2
sg949
I55
sg950
I67
sg951
I32
sa(dp1129
g946
g958
sg947
I175
sg948
I1
sg949
I55
sg950
I67
sg951
I11
sa(dp1130
g946
g953
sg947
I176
sg948
I2
sg949
I53
sg950
I63
sg951
I47
sa(dp1131
g946
g955
sg947
I177
sg948
I1
sg949
I59
sg950
I67
sg951
I11
sa(dp1132
g946
g953
sg947
I178
sg948
I2
sg949
I58
sg950
I63
sg951
I50
sa(dp1133
g946
g958
sg947
I179
sg948
I2
sg949
I41
sg950
I63
sg951
I49
sa(dp1134
g946
g958
sg947
I180
sg948
I1
sg949
I51
sg950
I67
sg951
I7
sa(dp1135
g946
g953
sg947
I181
sg948
I2
sg949
I57
sg950
I71
sg951
I63
sa(dp1136
g946
g958
sg947
I182
sg948
I2
sg949
I51
sg950
I67
sg951
I59
sa(dp1137
g946
g955
sg947
I183
sg948
I1
sg949
I53
sg950
I67
sg951
I11
sa(dp1138
g946
g953
sg947
I184
sg948
I2
sg949
I60
sg950
I63
sg951
I51
sa(dp1139
g946
g955
sg947
I185
sg948
I1
sg949
I53
sg950
I67
sg951
I11
sa(dp1140
g946
g958
sg947
I186
sg948
I0
sg949
I60
sg950
I71
sg951
I0
satRp1141
(dp1142
g168
I01
sg169
(lp1143
g947
ag950
ag948
ag951
ag949
ag946
asg171
Nsg172
I0
sg173
g174
(g13
tRp1144
sbsS'max_archive_size'
p1145
NsS'solution_found_flag'
p1146
I01
sS'time_taken'
p1147
F5.2504401206970215
sS'benchmark_name'
p1148
S'M_A4'
p1149
sa(dp1150
S'tree_str'
p1151
S'a4(a4(a4(a4(a4(ARG0,a4(ARG0,a4(ARG0,ARG2))),a4(ARG0,ARG1)),ARG0),a4(ARG2,a4(ARG2,ARG1))),a4(a4(a4(ARG0,ARG2),a4(a4(ARG0,ARG2),ARG2)),a4(a4(a4(a4(ARG0,ARG2),a4(a4(ARG1,a4(ARG2,ARG0)),ARG0)),ARG1),ARG1)))'
p1152
sS'tree_len'
p1153
I45
sS'archive_size'
p1154
I130
sS'number_of_operators'
p1155
I22
sS'alg_name'
p1156
S'small-LTI'
p1157
sS'archive_tree_deapth'
p1158
I2
sS'logbook'
p1159
g12
(g13
g14
(lp1160
(dp1161
S'status'
p1162
NsS'iteration'
p1163
I0
sS'count_wrongs'
p1164
I6
sS'picked_node'
p1165
NsS'len_master_tree'
p1166
I1
sS'total_wrongs'
p1167
I6
sa(dp1168
g1162
S'worst'
p1169
sg1163
I1
sg1164
I7
sg1165
I0
sg1166
I5
sg1167
I26
sa(dp1170
g1162
S'better'
p1171
sg1163
I2
sg1164
I6
sg1165
I4
sg1166
I9
sg1167
I28
sa(dp1172
g1162
S'perfect'
p1173
sg1163
I3
sg1164
I6
sg1165
I5
sg1166
I13
sg1167
I21
sa(dp1174
g1162
g1171
sg1163
I4
sg1164
I5
sg1165
I1
sg1166
I17
sg1167
I31
sa(dp1175
g1162
g1171
sg1163
I5
sg1164
I4
sg1165
I13
sg1166
I21
sg1167
I26
sa(dp1176
g1162
g1169
sg1163
I6
sg1164
I4
sg1165
I3
sg1166
I17
sg1167
I33
sa(dp1177
g1162
g1169
sg1163
I7
sg1164
I5
sg1165
I7
sg1166
I13
sg1167
I38
sa(dp1178
g1162
g1171
sg1163
I8
sg1164
I4
sg1165
I12
sg1166
I17
sg1167
I33
sa(dp1179
g1162
g1169
sg1163
I9
sg1164
I5
sg1165
I12
sg1166
I13
sg1167
I38
sa(dp1180
g1162
g1171
sg1163
I10
sg1164
I4
sg1165
I6
sg1166
I17
sg1167
I41
sa(dp1181
g1162
g1169
sg1163
I11
sg1164
I5
sg1165
I11
sg1166
I21
sg1167
I50
sa(dp1182
g1162
g1171
sg1163
I12
sg1164
I4
sg1165
I16
sg1166
I17
sg1167
I41
sa(dp1183
g1162
g1169
sg1163
I13
sg1164
I5
sg1165
I16
sg1166
I21
sg1167
I50
sa(dp1184
g1162
g1171
sg1163
I14
sg1164
I4
sg1165
I11
sg1166
I17
sg1167
I33
sa(dp1185
g1162
g1169
sg1163
I15
sg1164
I6
sg1165
I7
sg1166
I21
sg1167
I59
sa(dp1186
g1162
g1173
sg1163
I16
sg1164
I4
sg1165
I20
sg1166
I25
sg1167
I26
sa(dp1187
g1162
g1169
sg1163
I17
sg1164
I4
sg1165
I6
sg1166
I17
sg1167
I33
sa(dp1188
g1162
g1169
sg1163
I18
sg1164
I5
sg1165
I6
sg1166
I13
sg1167
I38
sa(dp1189
g1162
g1171
sg1163
I19
sg1164
I6
sg1165
I5
sg1166
I19
sg1167
I63
sa(dp1190
g1162
g1173
sg1163
I20
sg1164
I3
sg1165
I9
sg1166
I25
sg1167
I25
sa(dp1191
g1162
g1171
sg1163
I21
sg1164
I2
sg1165
I10
sg1166
I29
sg1167
I16
sa(dp1192
g1162
g1173
sg1163
I22
sg1164
I1
sg1165
I16
sg1166
I33
sg1167
I3
sa(dp1193
g1162
g1169
sg1163
I23
sg1164
I3
sg1165
I2
sg1166
I37
sg1167
I43
sa(dp1194
g1162
g1173
sg1163
I24
sg1164
I3
sg1165
I17
sg1166
I41
sg1167
I21
sa(dp1195
g1162
g1171
sg1163
I25
sg1164
I1
sg1165
I32
sg1166
I45
sg1167
I11
sa(dp1196
g1162
g1169
sg1163
I26
sg1164
I2
sg1165
I42
sg1166
I45
sg1167
I33
sa(dp1197
g1162
g1173
sg1163
I27
sg1164
I2
sg1165
I39
sg1166
I45
sg1167
I32
sa(dp1198
g1162
g1173
sg1163
I28
sg1164
I1
sg1165
I35
sg1166
I45
sg1167
I11
sa(dp1199
g1162
g1169
sg1163
I29
sg1164
I2
sg1165
I31
sg1166
I41
sg1167
I14
sa(dp1200
g1162
g1173
sg1163
I30
sg1164
I0
sg1165
I37
sg1166
I45
sg1167
I0
satRp1201
(dp1202
g168
I01
sg169
(lp1203
g1163
ag1166
ag1164
ag1167
ag1165
ag1162
asg171
Nsg172
I0
sg173
g174
(g13
tRp1204
sbsS'max_archive_size'
p1205
NsS'solution_found_flag'
p1206
I01
sS'time_taken'
p1207
F1.2960469722747803
sS'benchmark_name'
p1208
S'M_A4'
p1209
sa(dp1210
S'tree_str'
p1211
S'a4(a4(a4(a4(a4(ARG0,ARG2),a4(ARG0,a4(ARG0,a4(ARG0,ARG1)))),a4(ARG2,a4(ARG2,ARG1))),a4(ARG2,a4(ARG2,ARG0))),a4(a4(a4(a4(ARG2,a4(ARG0,ARG0)),a4(ARG1,ARG2)),ARG0),a4(ARG2,a4(ARG2,ARG1))))'
p1212
sS'tree_len'
p1213
I41
sS'archive_size'
p1214
I130
sS'number_of_operators'
p1215
I20
sS'alg_name'
p1216
S'small-LTI'
p1217
sS'archive_tree_deapth'
p1218
I2
sS'logbook'
p1219
g12
(g13
g14
(lp1220
(dp1221
S'status'
p1222
NsS'iteration'
p1223
I0
sS'count_wrongs'
p1224
I6
sS'picked_node'
p1225
NsS'len_master_tree'
p1226
I1
sS'total_wrongs'
p1227
I6
sa(dp1228
g1222
S'worst'
p1229
sg1223
I1
sg1224
I7
sg1225
I0
sg1226
I5
sg1227
I26
sa(dp1230
g1222
S'better'
p1231
sg1223
I2
sg1224
I6
sg1225
I4
sg1226
I9
sg1227
I28
sa(dp1232
g1222
S'perfect'
p1233
sg1223
I3
sg1224
I6
sg1225
I5
sg1226
I13
sg1227
I21
sa(dp1234
g1222
g1231
sg1223
I4
sg1224
I5
sg1225
I1
sg1226
I17
sg1227
I31
sa(dp1235
g1222
g1231
sg1223
I5
sg1224
I4
sg1225
I13
sg1226
I21
sg1227
I26
sa(dp1236
g1222
g1229
sg1223
I6
sg1224
I5
sg1225
I16
sg1226
I17
sg1227
I31
sa(dp1237
g1222
g1231
sg1223
I7
sg1224
I4
sg1225
I16
sg1226
I21
sg1227
I26
sa(dp1238
g1222
g1229
sg1223
I8
sg1224
I6
sg1225
I3
sg1226
I17
sg1227
I36
sa(dp1239
g1222
g1231
sg1223
I9
sg1224
I6
sg1225
I16
sg1226
I21
sg1227
I39
sa(dp1240
g1222
g1233
sg1223
I10
sg1224
I5
sg1225
I17
sg1226
I25
sg1227
I27
sa(dp1241
g1222
g1229
sg1223
I11
sg1224
I6
sg1225
I12
sg1226
I17
sg1227
I36
sa(dp1242
g1222
g1231
sg1223
I12
sg1224
I6
sg1225
I16
sg1226
I23
sg1227
I47
sa(dp1243
g1222
g1233
sg1223
I13
sg1224
I5
sg1225
I10
sg1226
I27
sg1227
I27
sa(dp1244
g1222
g1229
sg1223
I14
sg1224
I5
sg1225
I11
sg1226
I21
sg1227
I46
sa(dp1245
g1222
g1231
sg1223
I15
sg1224
I4
sg1225
I16
sg1226
I23
sg1227
I29
sa(dp1246
g1222
g1229
sg1223
I16
sg1224
I5
sg1225
I7
sg1226
I19
sg1227
I39
sa(dp1247
g1222
g1231
sg1223
I17
sg1224
I4
sg1225
I5
sg1226
I25
sg1227
I51
sa(dp1248
g1222
g1231
sg1223
I18
sg1224
I5
sg1225
I7
sg1226
I27
sg1227
I70
sa(dp1249
g1222
g1233
sg1223
I19
sg1224
I5
sg1225
I24
sg1226
I27
sg1227
I67
sa(dp1250
g1222
g1231
sg1223
I20
sg1224
I3
sg1225
I9
sg1226
I29
sg1227
I39
sa(dp1251
g1222
g1233
sg1223
I21
sg1224
I3
sg1225
I17
sg1226
I33
sg1227
I38
sa(dp1252
g1222
g1233
sg1223
I22
sg1224
I2
sg1225
I19
sg1226
I37
sg1227
I26
sa(dp1253
g1222
g1229
sg1223
I23
sg1224
I3
sg1225
I14
sg1226
I29
sg1227
I39
sa(dp1254
g1222
g1233
sg1223
I24
sg1224
I3
sg1225
I25
sg1226
I33
sg1227
I38
sa(dp1255
g1222
g1233
sg1223
I25
sg1224
I2
sg1225
I27
sg1226
I37
sg1227
I26
sa(dp1256
g1222
g1229
sg1223
I26
sg1224
I3
sg1225
I22
sg1226
I29
sg1227
I39
sa(dp1257
g1222
g1233
sg1223
I27
sg1224
I2
sg1225
I28
sg1226
I33
sg1227
I26
sa(dp1258
g1222
g1229
sg1223
I28
sg1224
I3
sg1225
I6
sg1226
I29
sg1227
I42
sa(dp1259
g1222
g1231
sg1223
I29
sg1224
I4
sg1225
I23
sg1226
I31
sg1227
I58
sa(dp1260
g1222
g1231
sg1223
I30
sg1224
I2
sg1225
I23
sg1226
I33
sg1227
I26
sa(dp1261
g1222
g1229
sg1223
I31
sg1224
I4
sg1225
I6
sg1226
I29
sg1227
I46
sa(dp1262
g1222
g1233
sg1223
I32
sg1224
I4
sg1225
I9
sg1226
I33
sg1227
I45
sa(dp1263
g1222
g1233
sg1223
I33
sg1224
I2
sg1225
I5
sg1226
I37
sg1227
I22
sa(dp1264
g1222
g1229
sg1223
I34
sg1224
I3
sg1225
I10
sg1226
I33
sg1227
I43
sa(dp1265
g1222
g1233
sg1223
I35
sg1224
I3
sg1225
I20
sg1226
I37
sg1227
I42
sa(dp1266
g1222
g1233
sg1223
I36
sg1224
I2
sg1225
I20
sg1226
I41
sg1227
I21
sa(dp1267
g1222
g1229
sg1223
I37
sg1224
I3
sg1225
I10
sg1226
I33
sg1227
I46
sa(dp1268
g1222
g1231
sg1223
I38
sg1224
I4
sg1225
I27
sg1226
I35
sg1227
I57
sa(dp1269
g1222
g1231
sg1223
I39
sg1224
I2
sg1225
I29
sg1226
I37
sg1227
I21
sa(dp1270
g1222
g1229
sg1223
I40
sg1224
I3
sg1225
I26
sg1226
I33
sg1227
I46
sa(dp1271
g1222
g1231
sg1223
I41
sg1224
I4
sg1225
I32
sg1226
I35
sg1227
I79
sa(dp1272
g1222
g1231
sg1223
I42
sg1224
I2
sg1225
I27
sg1226
I37
sg1227
I24
sa(dp1273
g1222
g1233
sg1223
I43
sg1224
I2
sg1225
I34
sg1226
I37
sg1227
I21
sa(dp1274
g1222
g1229
sg1223
I44
sg1224
I2
sg1225
I29
sg1226
I37
sg1227
I33
sa(dp1275
g1222
g1233
sg1223
I45
sg1224
I2
sg1225
I36
sg1226
I37
sg1227
I21
sa(dp1276
g1222
g1229
sg1223
I46
sg1224
I3
sg1225
I28
sg1226
I37
sg1227
I37
sa(dp1277
g1222
g1231
sg1223
I47
sg1224
I2
sg1225
I36
sg1226
I37
sg1227
I21
sa(dp1278
g1222
g1229
sg1223
I48
sg1224
I2
sg1225
I33
sg1226
I37
sg1227
I33
sa(dp1279
g1222
g1233
sg1223
I49
sg1224
I2
sg1225
I36
sg1226
I37
sg1227
I21
sa(dp1280
g1222
g1229
sg1223
I50
sg1224
I3
sg1225
I28
sg1226
I37
sg1227
I42
sa(dp1281
g1222
g1233
sg1223
I51
sg1224
I1
sg1225
I35
sg1226
I41
sg1227
I3
sa(dp1282
g1222
g1229
sg1223
I52
sg1224
I3
sg1225
I2
sg1226
I45
sg1227
I50
sa(dp1283
g1222
g1233
sg1223
I53
sg1224
I3
sg1225
I39
sg1226
I49
sg1227
I21
sa(dp1284
g1222
g1231
sg1223
I54
sg1224
I1
sg1225
I41
sg1226
I53
sg1227
I11
sa(dp1285
g1222
g1233
sg1223
I55
sg1224
I1
sg1225
I49
sg1226
I57
sg1227
I10
sa(dp1286
g1222
g1229
sg1223
I56
sg1224
I2
sg1225
I46
sg1226
I53
sg1227
I27
sa(dp1287
g1222
g1231
sg1223
I57
sg1224
I1
sg1225
I46
sg1226
I53
sg1227
I11
sa(dp1288
g1222
g1233
sg1223
I58
sg1224
I1
sg1225
I49
sg1226
I57
sg1227
I10
sa(dp1289
g1222
g1229
sg1223
I59
sg1224
I2
sg1225
I46
sg1226
I53
sg1227
I27
sa(dp1290
g1222
g1231
sg1223
I60
sg1224
I1
sg1225
I50
sg1226
I55
sg1227
I24
sa(dp1291
g1222
g1233
sg1223
I61
sg1224
I0
sg1225
I25
sg1226
I41
sg1227
I0
satRp1292
(dp1293
g168
I01
sg169
(lp1294
g1223
ag1226
ag1224
ag1227
ag1225
ag1222
asg171
Nsg172
I0
sg173
g174
(g13
tRp1295
sbsS'max_archive_size'
p1296
NsS'solution_found_flag'
p1297
I01
sS'time_taken'
p1298
F2.6080501079559326
sS'benchmark_name'
p1299
S'M_A4'
p1300
sa(dp1301
S'tree_str'
p1302
S'a4(a4(a4(ARG2,a4(ARG0,a4(ARG1,ARG2))),a4(a4(a4(a4(a4(ARG2,ARG0),a4(ARG2,ARG1)),ARG2),ARG2),a4(ARG1,ARG1))),a4(a4(a4(a4(ARG1,ARG0),a4(ARG1,ARG2)),ARG1),ARG2))'
p1303
sS'tree_len'
p1304
I35
sS'archive_size'
p1305
I130
sS'number_of_operators'
p1306
I17
sS'alg_name'
p1307
S'small-LTI'
p1308
sS'archive_tree_deapth'
p1309
I2
sS'logbook'
p1310
g12
(g13
g14
(lp1311
(dp1312
S'status'
p1313
NsS'iteration'
p1314
I0
sS'count_wrongs'
p1315
I6
sS'picked_node'
p1316
NsS'len_master_tree'
p1317
I1
sS'total_wrongs'
p1318
I6
sa(dp1319
g1313
S'worst'
p1320
sg1314
I1
sg1315
I7
sg1316
I0
sg1317
I5
sg1318
I32
sa(dp1321
g1313
S'better'
p1322
sg1314
I2
sg1315
I8
sg1316
I4
sg1317
I9
sg1318
I37
sa(dp1323
g1313
g1322
sg1314
I3
sg1315
I5
sg1316
I1
sg1317
I9
sg1318
I16
sa(dp1324
g1313
g1320
sg1314
I4
sg1315
I6
sg1316
I7
sg1317
I13
sg1318
I28
sa(dp1325
g1313
S'perfect'
p1326
sg1314
I5
sg1315
I5
sg1316
I4
sg1317
I17
sg1318
I20
sa(dp1327
g1313
g1320
sg1314
I6
sg1315
I6
sg1316
I7
sg1317
I13
sg1318
I25
sa(dp1328
g1313
g1326
sg1314
I7
sg1315
I5
sg1316
I7
sg1317
I9
sg1318
I16
sa(dp1329
g1313
g1320
sg1314
I8
sg1315
I6
sg1316
I7
sg1317
I13
sg1318
I26
sa(dp1330
g1313
g1326
sg1314
I9
sg1315
I5
sg1316
I7
sg1317
I17
sg1318
I18
sa(dp1331
g1313
g1320
sg1314
I10
sg1315
I6
sg1316
I4
sg1317
I13
sg1318
I25
sa(dp1332
g1313
g1326
sg1314
I11
sg1315
I5
sg1316
I5
sg1317
I9
sg1318
I16
sa(dp1333
g1313
g1320
sg1314
I12
sg1315
I5
sg1316
I6
sg1317
I13
sg1318
I32
sa(dp1334
g1313
g1322
sg1314
I13
sg1315
I5
sg1316
I5
sg1317
I9
sg1318
I16
sa(dp1335
g1313
g1320
sg1314
I14
sg1315
I5
sg1316
I7
sg1317
I13
sg1318
I32
sa(dp1336
g1313
g1322
sg1314
I15
sg1315
I5
sg1316
I6
sg1317
I9
sg1318
I16
sa(dp1337
g1313
g1320
sg1314
I16
sg1315
I6
sg1316
I8
sg1317
I13
sg1318
I28
sa(dp1338
g1313
g1326
sg1314
I17
sg1315
I5
sg1316
I5
sg1317
I17
sg1318
I20
sa(dp1339
g1313
g1320
sg1314
I18
sg1315
I5
sg1316
I7
sg1317
I17
sg1318
I36
sa(dp1340
g1313
g1326
sg1314
I19
sg1315
I4
sg1316
I16
sg1317
I21
sg1318
I9
sa(dp1341
g1313
g1320
sg1314
I20
sg1315
I4
sg1316
I2
sg1317
I25
sg1318
I59
sa(dp1342
g1313
g1326
sg1314
I21
sg1315
I4
sg1316
I16
sg1317
I29
sg1318
I25
sa(dp1343
g1313
g1320
sg1314
I22
sg1315
I6
sg1316
I1
sg1317
I9
sg1318
I37
sa(dp1344
g1313
g1322
sg1314
I23
sg1315
I6
sg1316
I8
sg1317
I13
sg1318
I42
sa(dp1345
g1313
g1322
sg1314
I24
sg1315
I6
sg1316
I5
sg1317
I17
sg1318
I36
sa(dp1346
g1313
g1322
sg1314
I25
sg1315
I6
sg1316
I1
sg1317
I21
sg1318
I41
sa(dp1347
g1313
g1322
sg1314
I26
sg1315
I4
sg1316
I19
sg1317
I25
sg1318
I32
sa(dp1348
g1313
g1326
sg1314
I27
sg1315
I4
sg1316
I24
sg1317
I29
sg1318
I31
sa(dp1349
g1313
g1320
sg1314
I28
sg1315
I5
sg1316
I20
sg1317
I25
sg1318
I56
sa(dp1350
g1313
g1322
sg1314
I29
sg1315
I3
sg1316
I11
sg1317
I25
sg1318
I30
sa(dp1351
g1313
g1320
sg1314
I30
sg1315
I5
sg1316
I17
sg1317
I25
sg1318
I56
sa(dp1352
g1313
g1322
sg1314
I31
sg1315
I4
sg1316
I17
sg1317
I25
sg1318
I32
sa(dp1353
g1313
g1326
sg1314
I32
sg1315
I4
sg1316
I19
sg1317
I29
sg1318
I31
sa(dp1354
g1313
g1320
sg1314
I33
sg1315
I5
sg1316
I15
sg1317
I25
sg1318
I56
sa(dp1355
g1313
g1322
sg1314
I34
sg1315
I4
sg1316
I22
sg1317
I25
sg1318
I32
sa(dp1356
g1313
g1320
sg1314
I35
sg1315
I5
sg1316
I17
sg1317
I25
sg1318
I56
sa(dp1357
g1313
g1322
sg1314
I36
sg1315
I4
sg1316
I23
sg1317
I25
sg1318
I33
sa(dp1358
g1313
g1326
sg1314
I37
sg1315
I4
sg1316
I23
sg1317
I25
sg1318
I32
sa(dp1359
g1313
g1326
sg1314
I38
sg1315
I4
sg1316
I21
sg1317
I29
sg1318
I31
sa(dp1360
g1313
g1320
sg1314
I39
sg1315
I5
sg1316
I19
sg1317
I25
sg1318
I56
sa(dp1361
g1313
g1322
sg1314
I40
sg1315
I3
sg1316
I19
sg1317
I25
sg1318
I30
sa(dp1362
g1313
g1320
sg1314
I41
sg1315
I5
sg1316
I15
sg1317
I25
sg1318
I56
sa(dp1363
g1313
g1322
sg1314
I42
sg1315
I4
sg1316
I18
sg1317
I25
sg1318
I32
sa(dp1364
g1313
g1326
sg1314
I43
sg1315
I4
sg1316
I18
sg1317
I29
sg1318
I31
sa(dp1365
g1313
g1320
sg1314
I44
sg1315
I5
sg1316
I17
sg1317
I25
sg1318
I56
sa(dp1366
g1313
g1322
sg1314
I45
sg1315
I3
sg1316
I17
sg1317
I25
sg1318
I30
sa(dp1367
g1313
g1320
sg1314
I46
sg1315
I4
sg1316
I13
sg1317
I25
sg1318
I53
sa(dp1368
g1313
g1322
sg1314
I47
sg1315
I4
sg1316
I16
sg1317
I31
sg1318
I46
sa(dp1369
g1313
g1326
sg1314
I48
sg1315
I3
sg1316
I14
sg1317
I35
sg1318
I18
sa(dp1370
g1313
g1320
sg1314
I49
sg1315
I4
sg1316
I16
sg1317
I33
sg1318
I51
sa(dp1371
g1313
g1326
sg1314
I50
sg1315
I4
sg1316
I14
sg1317
I29
sg1318
I42
sa(dp1372
g1313
g1322
sg1314
I51
sg1315
I3
sg1316
I19
sg1317
I31
sg1318
I18
sa(dp1373
g1313
g1320
sg1314
I52
sg1315
I4
sg1316
I24
sg1317
I29
sg1318
I42
sa(dp1374
g1313
g1322
sg1314
I53
sg1315
I3
sg1316
I24
sg1317
I31
sg1318
I18
sa(dp1375
g1313
g1320
sg1314
I54
sg1315
I3
sg1316
I24
sg1317
I31
sg1318
I25
sa(dp1376
g1313
g1326
sg1314
I55
sg1315
I3
sg1316
I27
sg1317
I35
sg1318
I24
sa(dp1377
g1313
g1322
sg1314
I56
sg1315
I3
sg1316
I28
sg1317
I41
sg1318
I39
sa(dp1378
g1313
g1326
sg1314
I57
sg1315
I2
sg1316
I37
sg1317
I43
sg1318
I11
sa(dp1379
g1313
g1320
sg1314
I58
sg1315
I3
sg1316
I7
sg1317
I47
sg1318
I28
sa(dp1380
g1313
g1322
sg1314
I59
sg1315
I2
sg1316
I6
sg1317
I43
sg1318
I11
sa(dp1381
g1313
g1320
sg1314
I60
sg1315
I3
sg1316
I39
sg1317
I47
sg1318
I28
sa(dp1382
g1313
g1322
sg1314
I61
sg1315
I2
sg1316
I38
sg1317
I43
sg1318
I11
sa(dp1383
g1313
g1320
sg1314
I62
sg1315
I3
sg1316
I3
sg1317
I47
sg1318
I38
sa(dp1384
g1313
g1326
sg1314
I63
sg1315
I3
sg1316
I7
sg1317
I39
sg1318
I27
sa(dp1385
g1313
g1326
sg1314
I64
sg1315
I1
sg1316
I34
sg1317
I45
sg1318
I3
sa(dp1386
g1313
g1320
sg1314
I65
sg1315
I3
sg1316
I6
sg1317
I49
sg1318
I59
sa(dp1387
g1313
g1326
sg1314
I66
sg1315
I3
sg1316
I16
sg1317
I45
sg1318
I21
sa(dp1388
g1313
g1322
sg1314
I67
sg1315
I2
sg1316
I37
sg1317
I49
sg1318
I57
sa(dp1389
g1313
g1326
sg1314
I68
sg1315
I1
sg1316
I6
sg1317
I35
sg1318
I11
sa(dp1390
g1313
g1320
sg1314
I69
sg1315
I2
sg1316
I32
sg1317
I35
sg1318
I66
sa(dp1391
g1313
g1326
sg1314
I70
sg1315
I0
sg1316
I18
sg1317
I35
sg1318
I0
satRp1392
(dp1393
g168
I01
sg169
(lp1394
g1314
ag1317
ag1315
ag1318
ag1316
ag1313
asg171
Nsg172
I0
sg173
g174
(g13
tRp1395
sbsS'max_archive_size'
p1396
NsS'solution_found_flag'
p1397
I01
sS'time_taken'
p1398
F2.0651311874389648
sS'benchmark_name'
p1399
S'M_A4'
p1400
sa(dp1401
S'tree_str'
p1402
S'a4(a4(a4(a4(a4(ARG1,ARG2),a4(a4(a4(ARG1,ARG0),ARG1),a4(a4(ARG1,ARG1),ARG0))),ARG1),ARG1),a4(a4(a4(a4(ARG0,a4(ARG2,a4(a4(a4(ARG2,ARG1),ARG1),ARG0))),ARG0),a4(ARG2,a4(ARG0,a4(ARG0,a4(ARG1,ARG0))))),a4(ARG1,a4(ARG1,ARG2))))'
p1403
sS'tree_len'
p1404
I49
sS'archive_size'
p1405
I130
sS'number_of_operators'
p1406
I24
sS'alg_name'
p1407
S'small-LTI'
p1408
sS'archive_tree_deapth'
p1409
I2
sS'logbook'
p1410
g12
(g13
g14
(lp1411
(dp1412
S'status'
p1413
NsS'iteration'
p1414
I0
sS'count_wrongs'
p1415
I6
sS'picked_node'
p1416
NsS'len_master_tree'
p1417
I1
sS'total_wrongs'
p1418
I6
sa(dp1419
g1413
S'worst'
p1420
sg1414
I1
sg1415
I7
sg1416
I0
sg1417
I5
sg1418
I26
sa(dp1421
g1413
S'better'
p1422
sg1414
I2
sg1415
I4
sg1416
I3
sg1417
I9
sg1418
I20
sa(dp1423
g1413
g1420
sg1414
I3
sg1415
I5
sg1416
I2
sg1417
I9
sg1418
I28
sa(dp1424
g1413
g1422
sg1414
I4
sg1415
I6
sg1416
I4
sg1417
I15
sg1418
I33
sa(dp1425
g1413
S'perfect'
p1426
sg1414
I5
sg1415
I5
sg1416
I4
sg1417
I19
sg1418
I18
sa(dp1427
g1413
g1420
sg1414
I6
sg1415
I6
sg1416
I6
sg1417
I23
sg1418
I57
sa(dp1428
g1413
g1426
sg1414
I7
sg1415
I5
sg1416
I13
sg1417
I23
sg1418
I18
sa(dp1429
g1413
g1420
sg1414
I8
sg1415
I5
sg1416
I17
sg1417
I25
sg1418
I42
sa(dp1430
g1413
g1426
sg1414
I9
sg1415
I4
sg1416
I6
sg1417
I25
sg1418
I18
sa(dp1431
g1413
g1420
sg1414
I10
sg1415
I4
sg1416
I4
sg1417
I21
sg1418
I20
sa(dp1432
g1413
g1422
sg1414
I11
sg1415
I4
sg1416
I20
sg1417
I25
sg1418
I18
sa(dp1433
g1413
g1420
sg1414
I12
sg1415
I4
sg1416
I18
sg1417
I21
sg1418
I20
sa(dp1434
g1413
g1422
sg1414
I13
sg1415
I5
sg1416
I20
sg1417
I25
sg1418
I28
sa(dp1435
g1413
g1420
sg1414
I14
sg1415
I5
sg1416
I3
sg1417
I17
sg1418
I40
sa(dp1436
g1413
g1426
sg1414
I15
sg1415
I5
sg1416
I10
sg1417
I21
sg1418
I30
sa(dp1437
g1413
g1422
sg1414
I16
sg1415
I4
sg1416
I11
sg1417
I21
sg1418
I29
sa(dp1438
g1413
g1426
sg1414
I17
sg1415
I4
sg1416
I10
sg1417
I27
sg1418
I15
sa(dp1439
g1413
g1420
sg1414
I18
sg1415
I6
sg1416
I15
sg1417
I23
sg1418
I23
sa(dp1440
g1413
g1426
sg1414
I19
sg1415
I6
sg1416
I4
sg1417
I27
sg1418
I21
sa(dp1441
g1413
g1422
sg1414
I20
sg1415
I4
sg1416
I21
sg1417
I31
sg1418
I19
sa(dp1442
g1413
g1426
sg1414
I21
sg1415
I4
sg1416
I25
sg1417
I35
sg1418
I8
sa(dp1443
g1413
g1420
sg1414
I22
sg1415
I5
sg1416
I1
sg1417
I39
sg1418
I60
sa(dp1444
g1413
g1426
sg1414
I23
sg1415
I5
sg1416
I32
sg1417
I43
sg1418
I43
sa(dp1445
g1413
g1426
sg1414
I24
sg1415
I5
sg1416
I24
sg1417
I43
sg1418
I28
sa(dp1446
g1413
g1422
sg1414
I25
sg1415
I3
sg1416
I31
sg1417
I49
sg1418
I87
sa(dp1447
g1413
g1426
sg1414
I26
sg1415
I2
sg1416
I7
sg1417
I41
sg1418
I38
sa(dp1448
g1413
g1426
sg1414
I27
sg1415
I2
sg1416
I21
sg1417
I41
sg1418
I31
sa(dp1449
g1413
g1422
sg1414
I28
sg1415
I1
sg1416
I28
sg1417
I45
sg1418
I13
sa(dp1450
g1413
g1426
sg1414
I29
sg1415
I0
sg1416
I28
sg1417
I49
sg1418
I0
satRp1451
(dp1452
g168
I01
sg169
(lp1453
g1414
ag1417
ag1415
ag1418
ag1416
ag1413
asg171
Nsg172
I0
sg173
g174
(g13
tRp1454
sbsS'max_archive_size'
p1455
NsS'solution_found_flag'
p1456
I01
sS'time_taken'
p1457
F1.2855050563812256
sS'benchmark_name'
p1458
S'M_A4'
p1459
sa(dp1460
S'tree_str'
p1461
S'a4(a4(a4(a4(a4(ARG1,ARG2),a4(a4(a4(ARG1,ARG0),ARG1),a4(a4(ARG1,ARG1),ARG0))),ARG1),ARG1),a4(a4(a4(a4(ARG2,ARG2),a4(ARG0,a4(a4(a4(ARG0,ARG1),ARG1),ARG2))),a4(ARG0,a4(ARG2,a4(ARG1,a4(ARG2,ARG0))))),a4(ARG1,a4(ARG1,ARG0))))'
p1462
sS'tree_len'
p1463
I49
sS'archive_size'
p1464
I130
sS'number_of_operators'
p1465
I24
sS'alg_name'
p1466
S'small-LTI'
p1467
sS'archive_tree_deapth'
p1468
I2
sS'logbook'
p1469
g12
(g13
g14
(lp1470
(dp1471
S'status'
p1472
NsS'iteration'
p1473
I0
sS'count_wrongs'
p1474
I6
sS'picked_node'
p1475
NsS'len_master_tree'
p1476
I1
sS'total_wrongs'
p1477
I6
sa(dp1478
g1472
S'worst'
p1479
sg1473
I1
sg1474
I7
sg1475
I0
sg1476
I5
sg1477
I26
sa(dp1480
g1472
S'better'
p1481
sg1473
I2
sg1474
I4
sg1475
I3
sg1476
I9
sg1477
I20
sa(dp1482
g1472
g1479
sg1473
I3
sg1474
I5
sg1475
I2
sg1476
I9
sg1477
I28
sa(dp1483
g1472
g1481
sg1473
I4
sg1474
I6
sg1475
I4
sg1476
I15
sg1477
I33
sa(dp1484
g1472
S'perfect'
p1485
sg1473
I5
sg1474
I5
sg1475
I4
sg1476
I19
sg1477
I18
sa(dp1486
g1472
g1479
sg1473
I6
sg1474
I6
sg1475
I6
sg1476
I23
sg1477
I57
sa(dp1487
g1472
g1485
sg1473
I7
sg1474
I5
sg1475
I13
sg1476
I23
sg1477
I18
sa(dp1488
g1472
g1479
sg1473
I8
sg1474
I5
sg1475
I17
sg1476
I25
sg1477
I43
sa(dp1489
g1472
g1485
sg1473
I9
sg1474
I5
sg1475
I18
sg1476
I27
sg1477
I38
sa(dp1490
g1472
g1481
sg1473
I10
sg1474
I5
sg1475
I15
sg1476
I25
sg1477
I18
sa(dp1491
g1472
g1479
sg1473
I11
sg1474
I5
sg1475
I24
sg1476
I27
sg1477
I38
sa(dp1492
g1472
g1481
sg1473
I12
sg1474
I5
sg1475
I24
sg1476
I25
sg1477
I18
sa(dp1493
g1472
g1479
sg1473
I13
sg1474
I6
sg1475
I22
sg1476
I27
sg1477
I54
sa(dp1494
g1472
g1485
sg1473
I14
sg1474
I5
sg1475
I15
sg1476
I25
sg1477
I28
sa(dp1495
g1472
g1479
sg1473
I15
sg1474
I5
sg1475
I3
sg1476
I17
sg1477
I37
sa(dp1496
g1472
g1485
sg1473
I16
sg1474
I5
sg1475
I10
sg1476
I21
sg1477
I30
sa(dp1497
g1472
g1481
sg1473
I17
sg1474
I4
sg1475
I11
sg1476
I21
sg1477
I29
sa(dp1498
g1472
g1485
sg1473
I18
sg1474
I4
sg1475
I10
sg1476
I27
sg1477
I15
sa(dp1499
g1472
g1479
sg1473
I19
sg1474
I6
sg1475
I15
sg1476
I23
sg1477
I35
sa(dp1500
g1472
g1485
sg1473
I20
sg1474
I6
sg1475
I15
sg1476
I23
sg1477
I23
sa(dp1501
g1472
g1485
sg1473
I21
sg1474
I6
sg1475
I4
sg1476
I27
sg1477
I21
sa(dp1502
g1472
g1481
sg1473
I22
sg1474
I4
sg1475
I14
sg1476
I31
sg1477
I19
sa(dp1503
g1472
g1485
sg1473
I23
sg1474
I4
sg1475
I22
sg1476
I35
sg1477
I8
sa(dp1504
g1472
g1479
sg1473
I24
sg1474
I5
sg1475
I1
sg1476
I39
sg1477
I73
sa(dp1505
g1472
g1485
sg1473
I25
sg1474
I5
sg1475
I17
sg1476
I39
sg1477
I60
sa(dp1506
g1472
g1485
sg1473
I26
sg1474
I5
sg1475
I29
sg1476
I43
sg1477
I40
sa(dp1507
g1472
g1485
sg1473
I27
sg1474
I5
sg1475
I21
sg1476
I43
sg1477
I28
sa(dp1508
g1472
g1481
sg1473
I28
sg1474
I3
sg1475
I28
sg1476
I49
sg1477
I90
sa(dp1509
g1472
g1485
sg1473
I29
sg1474
I2
sg1475
I7
sg1476
I41
sg1477
I41
sa(dp1510
g1472
g1485
sg1473
I30
sg1474
I1
sg1475
I14
sg1476
I47
sg1477
I10
sa(dp1511
g1472
g1479
sg1473
I31
sg1474
I2
sg1475
I30
sg1476
I51
sg1477
I56
sa(dp1512
g1472
g1485
sg1473
I32
sg1474
I1
sg1475
I39
sg1476
I45
sg1477
I13
sa(dp1513
g1472
g1485
sg1473
I33
sg1474
I0
sg1475
I30
sg1476
I49
sg1477
I0
satRp1514
(dp1515
g168
I01
sg169
(lp1516
g1473
ag1476
ag1474
ag1477
ag1475
ag1472
asg171
Nsg172
I0
sg173
g174
(g13
tRp1517
sbsS'max_archive_size'
p1518
NsS'solution_found_flag'
p1519
I01
sS'time_taken'
p1520
F1.5534830093383789
sS'benchmark_name'
p1521
S'M_A4'
p1522
sa(dp1523
S'tree_str'
p1524
S'a4(a4(a4(a4(a4(ARG0,ARG2),a4(ARG0,ARG0)),ARG1),ARG0),a4(a4(a4(a4(ARG2,a4(ARG2,a4(ARG2,ARG0))),a4(ARG1,a4(ARG0,ARG0))),ARG1),a4(a4(ARG2,a4(ARG1,ARG2)),a4(a4(ARG0,ARG1),ARG0))))'
p1525
sS'tree_len'
p1526
I39
sS'archive_size'
p1527
I130
sS'number_of_operators'
p1528
I19
sS'alg_name'
p1529
S'small-LTI'
p1530
sS'archive_tree_deapth'
p1531
I2
sS'logbook'
p1532
g12
(g13
g14
(lp1533
(dp1534
S'status'
p1535
NsS'iteration'
p1536
I0
sS'count_wrongs'
p1537
I6
sS'picked_node'
p1538
NsS'len_master_tree'
p1539
I1
sS'total_wrongs'
p1540
I6
sa(dp1541
g1535
S'worst'
p1542
sg1536
I1
sg1537
I7
sg1538
I0
sg1539
I5
sg1540
I30
sa(dp1543
g1535
S'better'
p1544
sg1536
I2
sg1537
I5
sg1538
I4
sg1539
I9
sg1540
I16
sa(dp1545
g1535
g1542
sg1536
I3
sg1537
I6
sg1538
I8
sg1539
I13
sg1540
I26
sa(dp1546
g1535
S'perfect'
p1547
sg1536
I4
sg1537
I5
sg1538
I5
sg1539
I17
sg1540
I18
sa(dp1548
g1535
g1542
sg1536
I5
sg1537
I6
sg1538
I5
sg1539
I13
sg1540
I25
sa(dp1549
g1535
g1547
sg1536
I6
sg1537
I5
sg1538
I5
sg1539
I9
sg1540
I16
sa(dp1550
g1535
g1542
sg1536
I7
sg1537
I5
sg1538
I6
sg1539
I13
sg1540
I32
sa(dp1551
g1535
g1544
sg1536
I8
sg1537
I5
sg1538
I8
sg1539
I9
sg1540
I16
sa(dp1552
g1535
g1542
sg1536
I9
sg1537
I5
sg1538
I8
sg1539
I13
sg1540
I32
sa(dp1553
g1535
g1544
sg1536
I10
sg1537
I5
sg1538
I8
sg1539
I13
sg1540
I21
sa(dp1554
g1535
g1542
sg1536
I11
sg1537
I5
sg1538
I10
sg1539
I13
sg1540
I32
sa(dp1555
g1535
g1544
sg1536
I12
sg1537
I5
sg1538
I8
sg1539
I13
sg1540
I21
sa(dp1556
g1535
g1542
sg1536
I13
sg1537
I5
sg1538
I11
sg1539
I13
sg1540
I32
sa(dp1557
g1535
g1544
sg1536
I14
sg1537
I5
sg1538
I8
sg1539
I13
sg1540
I20
sa(dp1558
g1535
g1542
sg1536
I15
sg1537
I5
sg1538
I8
sg1539
I13
sg1540
I32
sa(dp1559
g1535
g1544
sg1536
I16
sg1537
I5
sg1538
I8
sg1539
I13
sg1540
I20
sa(dp1560
g1535
g1542
sg1536
I17
sg1537
I6
sg1538
I6
sg1539
I17
sg1540
I32
sa(dp1561
g1535
g1547
sg1536
I18
sg1537
I5
sg1538
I6
sg1539
I21
sg1540
I24
sa(dp1562
g1535
g1542
sg1536
I19
sg1537
I6
sg1538
I11
sg1539
I17
sg1540
I33
sa(dp1563
g1535
g1547
sg1536
I20
sg1537
I5
sg1538
I11
sg1539
I13
sg1540
I20
sa(dp1564
g1535
g1542
sg1536
I21
sg1537
I5
sg1538
I6
sg1539
I13
sg1540
I32
sa(dp1565
g1535
g1544
sg1536
I22
sg1537
I5
sg1538
I10
sg1539
I13
sg1540
I21
sa(dp1566
g1535
g1542
sg1536
I23
sg1537
I6
sg1538
I6
sg1539
I17
sg1540
I30
sa(dp1567
g1535
g1544
sg1536
I24
sg1537
I5
sg1538
I12
sg1539
I13
sg1540
I21
sa(dp1568
g1535
g1542
sg1536
I25
sg1537
I5
sg1538
I7
sg1539
I13
sg1540
I32
sa(dp1569
g1535
g1544
sg1536
I26
sg1537
I5
sg1538
I10
sg1539
I13
sg1540
I22
sa(dp1570
g1535
g1542
sg1536
I27
sg1537
I6
sg1538
I9
sg1539
I17
sg1540
I36
sa(dp1571
g1535
g1547
sg1536
I28
sg1537
I5
sg1538
I6
sg1539
I21
sg1540
I24
sa(dp1572
g1535
g1547
sg1536
I29
sg1537
I4
sg1538
I12
sg1539
I25
sg1540
I9
sa(dp1573
g1535
g1542
sg1536
I30
sg1537
I4
sg1538
I3
sg1539
I29
sg1540
I61
sa(dp1574
g1535
g1547
sg1536
I31
sg1537
I4
sg1538
I16
sg1539
I33
sg1540
I25
sa(dp1575
g1535
g1542
sg1536
I32
sg1537
I6
sg1538
I2
sg1539
I9
sg1540
I37
sa(dp1576
g1535
g1544
sg1536
I33
sg1537
I6
sg1538
I5
sg1539
I13
sg1540
I42
sa(dp1577
g1535
g1544
sg1536
I34
sg1537
I6
sg1538
I7
sg1539
I17
sg1540
I51
sa(dp1578
g1535
g1544
sg1536
I35
sg1537
I6
sg1538
I10
sg1539
I17
sg1540
I37
sa(dp1579
g1535
g1547
sg1536
I36
sg1537
I6
sg1538
I10
sg1539
I17
sg1540
I36
sa(dp1580
g1535
g1544
sg1536
I37
sg1537
I6
sg1538
I1
sg1539
I21
sg1540
I41
sa(dp1581
g1535
g1544
sg1536
I38
sg1537
I4
sg1538
I19
sg1539
I25
sg1540
I32
sa(dp1582
g1535
g1547
sg1536
I39
sg1537
I4
sg1538
I24
sg1539
I29
sg1540
I31
sa(dp1583
g1535
g1542
sg1536
I40
sg1537
I5
sg1538
I20
sg1539
I25
sg1540
I56
sa(dp1584
g1535
g1544
sg1536
I41
sg1537
I3
sg1538
I8
sg1539
I25
sg1540
I30
sa(dp1585
g1535
g1542
sg1536
I42
sg1537
I5
sg1538
I20
sg1539
I25
sg1540
I56
sa(dp1586
g1535
g1544
sg1536
I43
sg1537
I3
sg1538
I17
sg1539
I25
sg1540
I30
sa(dp1587
g1535
g1542
sg1536
I44
sg1537
I5
sg1538
I23
sg1539
I25
sg1540
I56
sa(dp1588
g1535
g1544
sg1536
I45
sg1537
I3
sg1538
I24
sg1539
I25
sg1540
I30
sa(dp1589
g1535
g1542
sg1536
I46
sg1537
I5
sg1538
I18
sg1539
I25
sg1540
I57
sa(dp1590
g1535
g1544
sg1536
I47
sg1537
I3
sg1538
I17
sg1539
I25
sg1540
I30
sa(dp1591
g1535
g1542
sg1536
I48
sg1537
I5
sg1538
I22
sg1539
I25
sg1540
I56
sa(dp1592
g1535
g1544
sg1536
I49
sg1537
I4
sg1538
I19
sg1539
I25
sg1540
I32
sa(dp1593
g1535
g1542
sg1536
I50
sg1537
I5
sg1538
I22
sg1539
I25
sg1540
I56
sa(dp1594
g1535
g1544
sg1536
I51
sg1537
I4
sg1538
I17
sg1539
I25
sg1540
I32
sa(dp1595
g1535
g1542
sg1536
I52
sg1537
I5
sg1538
I6
sg1539
I25
sg1540
I55
sa(dp1596
g1535
g1544
sg1536
I53
sg1537
I4
sg1538
I20
sg1539
I25
sg1540
I32
sa(dp1597
g1535
g1547
sg1536
I54
sg1537
I4
sg1538
I19
sg1539
I29
sg1540
I31
sa(dp1598
g1535
g1542
sg1536
I55
sg1537
I5
sg1538
I15
sg1539
I25
sg1540
I56
sa(dp1599
g1535
g1544
sg1536
I56
sg1537
I4
sg1538
I20
sg1539
I25
sg1540
I32
sa(dp1600
g1535
g1542
sg1536
I57
sg1537
I5
sg1538
I15
sg1539
I25
sg1540
I55
sa(dp1601
g1535
g1547
sg1536
I58
sg1537
I5
sg1538
I23
sg1539
I29
sg1540
I52
sa(dp1602
g1535
g1544
sg1536
I59
sg1537
I4
sg1538
I20
sg1539
I25
sg1540
I33
sa(dp1603
g1535
g1547
sg1536
I60
sg1537
I4
sg1538
I24
sg1539
I25
sg1540
I32
sa(dp1604
g1535
g1542
sg1536
I61
sg1537
I6
sg1538
I19
sg1539
I25
sg1540
I71
sa(dp1605
g1535
g1547
sg1536
I62
sg1537
I6
sg1538
I8
sg1539
I25
sg1540
I61
sa(dp1606
g1535
g1547
sg1536
I63
sg1537
I6
sg1538
I21
sg1539
I29
sg1540
I53
sa(dp1607
g1535
g1547
sg1536
I64
sg1537
I4
sg1538
I21
sg1539
I29
sg1540
I31
sa(dp1608
g1535
g1542
sg1536
I65
sg1537
I5
sg1538
I12
sg1539
I25
sg1540
I56
sa(dp1609
g1535
g1544
sg1536
I66
sg1537
I3
sg1538
I12
sg1539
I25
sg1540
I30
sa(dp1610
g1535
g1542
sg1536
I67
sg1537
I5
sg1538
I22
sg1539
I25
sg1540
I57
sa(dp1611
g1535
g1544
sg1536
I68
sg1537
I4
sg1538
I15
sg1539
I25
sg1540
I33
sa(dp1612
g1535
g1547
sg1536
I69
sg1537
I4
sg1538
I19
sg1539
I25
sg1540
I32
sa(dp1613
g1535
g1547
sg1536
I70
sg1537
I4
sg1538
I23
sg1539
I29
sg1540
I31
sa(dp1614
g1535
g1542
sg1536
I71
sg1537
I5
sg1538
I21
sg1539
I25
sg1540
I56
sa(dp1615
g1535
g1544
sg1536
I72
sg1537
I3
sg1538
I15
sg1539
I25
sg1540
I30
sa(dp1616
g1535
g1542
sg1536
I73
sg1537
I4
sg1538
I10
sg1539
I25
sg1540
I53
sa(dp1617
g1535
g1544
sg1536
I74
sg1537
I4
sg1538
I16
sg1539
I31
sg1540
I40
sa(dp1618
g1535
g1547
sg1536
I75
sg1537
I3
sg1538
I16
sg1539
I35
sg1540
I18
sa(dp1619
g1535
g1542
sg1536
I76
sg1537
I4
sg1538
I16
sg1539
I33
sg1540
I46
sa(dp1620
g1535
g1544
sg1536
I77
sg1537
I3
sg1538
I28
sg1539
I35
sg1540
I18
sa(dp1621
g1535
g1542
sg1536
I78
sg1537
I4
sg1538
I28
sg1539
I33
sg1540
I46
sa(dp1622
g1535
g1544
sg1536
I79
sg1537
I3
sg1538
I31
sg1539
I37
sg1540
I43
sa(dp1623
g1535
g1542
sg1536
I80
sg1537
I4
sg1538
I13
sg1539
I25
sg1540
I35
sa(dp1624
g1535
g1544
sg1536
I81
sg1537
I3
sg1538
I24
sg1539
I31
sg1540
I31
sa(dp1625
g1535
g1547
sg1536
I82
sg1537
I2
sg1538
I26
sg1539
I33
sg1540
I11
sa(dp1626
g1535
g1542
sg1536
I83
sg1537
I2
sg1538
I2
sg1539
I21
sg1540
I30
sa(dp1627
g1535
g1547
sg1536
I84
sg1537
I2
sg1538
I16
sg1539
I25
sg1540
I21
sa(dp1628
g1535
g1544
sg1536
I85
sg1537
I2
sg1538
I3
sg1539
I29
sg1540
I24
sa(dp1629
g1535
g1542
sg1536
I86
sg1537
I2
sg1538
I24
sg1539
I25
sg1540
I21
sa(dp1630
g1535
g1544
sg1536
I87
sg1537
I2
sg1538
I24
sg1539
I29
sg1540
I24
sa(dp1631
g1535
g1542
sg1536
I88
sg1537
I4
sg1538
I7
sg1539
I29
sg1540
I49
sa(dp1632
g1535
g1547
sg1536
I89
sg1537
I2
sg1538
I27
sg1539
I33
sg1540
I21
sa(dp1633
g1535
g1542
sg1536
I90
sg1537
I2
sg1538
I21
sg1539
I29
sg1540
I18
sa(dp1634
g1535
g1544
sg1536
I91
sg1537
I2
sg1538
I28
sg1539
I33
sg1540
I21
sa(dp1635
g1535
g1542
sg1536
I92
sg1537
I2
sg1538
I28
sg1539
I29
sg1540
I18
sa(dp1636
g1535
g1542
sg1536
I93
sg1537
I3
sg1538
I4
sg1539
I33
sg1540
I43
sa(dp1637
g1535
g1547
sg1536
I94
sg1537
I3
sg1538
I21
sg1539
I37
sg1540
I36
sa(dp1638
g1535
g1544
sg1536
I95
sg1537
I2
sg1538
I3
sg1539
I25
sg1540
I21
sa(dp1639
g1535
g1544
sg1536
I96
sg1537
I2
sg1538
I19
sg1539
I29
sg1540
I24
sa(dp1640
g1535
g1542
sg1536
I97
sg1537
I4
sg1538
I23
sg1539
I29
sg1540
I49
sa(dp1641
g1535
g1547
sg1536
I98
sg1537
I2
sg1538
I22
sg1539
I33
sg1540
I21
sa(dp1642
g1535
g1542
sg1536
I99
sg1537
I2
sg1538
I22
sg1539
I29
sg1540
I18
sa(dp1643
g1535
g1542
sg1536
I100
sg1537
I4
sg1538
I13
sg1539
I33
sg1540
I34
sa(dp1644
g1535
g1544
sg1536
I101
sg1537
I2
sg1538
I28
sg1539
I29
sg1540
I18
sa(dp1645
g1535
g1544
sg1536
I102
sg1537
I2
sg1538
I27
sg1539
I33
sg1540
I21
sa(dp1646
g1535
g1542
sg1536
I103
sg1537
I2
sg1538
I28
sg1539
I33
sg1540
I25
sa(dp1647
g1535
g1544
sg1536
I104
sg1537
I2
sg1538
I31
sg1539
I37
sg1540
I25
sa(dp1648
g1535
g1542
sg1536
I105
sg1537
I2
sg1538
I28
sg1539
I33
sg1540
I25
sa(dp1649
g1535
g1542
sg1536
I106
sg1537
I4
sg1538
I32
sg1539
I33
sg1540
I67
sa(dp1650
g1535
g1547
sg1536
I107
sg1537
I2
sg1538
I22
sg1539
I33
sg1540
I25
sa(dp1651
g1535
g1544
sg1536
I108
sg1537
I2
sg1538
I26
sg1539
I37
sg1540
I25
sa(dp1652
g1535
g1542
sg1536
I109
sg1537
I2
sg1538
I23
sg1539
I33
sg1540
I25
sa(dp1653
g1535
g1542
sg1536
I110
sg1537
I3
sg1538
I32
sg1539
I37
sg1540
I50
sa(dp1654
g1535
g1547
sg1536
I111
sg1537
I3
sg1538
I23
sg1539
I37
sg1540
I43
sa(dp1655
g1535
g1544
sg1536
I112
sg1537
I2
sg1538
I27
sg1539
I33
sg1540
I25
sa(dp1656
g1535
g1542
sg1536
I113
sg1537
I3
sg1538
I32
sg1539
I37
sg1540
I43
sa(dp1657
g1535
g1547
sg1536
I114
sg1537
I2
sg1538
I35
sg1539
I41
sg1540
I26
sa(dp1658
g1535
g1544
sg1536
I115
sg1537
I2
sg1538
I24
sg1539
I45
sg1540
I41
sa(dp1659
g1535
g1547
sg1536
I116
sg1537
I1
sg1538
I37
sg1539
I45
sg1540
I8
sa(dp1660
g1535
g1542
sg1536
I117
sg1537
I2
sg1538
I19
sg1539
I49
sg1540
I45
sa(dp1661
g1535
g1547
sg1536
I118
sg1537
I2
sg1538
I29
sg1539
I53
sg1540
I38
sa(dp1662
g1535
g1542
sg1536
I119
sg1537
I3
sg1538
I31
sg1539
I49
sg1540
I56
sa(dp1663
g1535
g1544
sg1536
I120
sg1537
I2
sg1538
I29
sg1539
I49
sg1540
I58
sa(dp1664
g1535
g1547
sg1536
I121
sg1537
I1
sg1538
I39
sg1539
I49
sg1540
I12
sa(dp1665
g1535
g1542
sg1536
I122
sg1537
I2
sg1538
I18
sg1539
I37
sg1540
I39
sa(dp1666
g1535
g1547
sg1536
I123
sg1537
I2
sg1538
I29
sg1539
I37
sg1540
I36
sa(dp1667
g1535
g1542
sg1536
I124
sg1537
I3
sg1538
I5
sg1539
I29
sg1540
I44
sa(dp1668
g1535
g1547
sg1536
I125
sg1537
I2
sg1538
I15
sg1539
I33
sg1540
I15
sa(dp1669
g1535
g1542
sg1536
I126
sg1537
I3
sg1538
I15
sg1539
I29
sg1540
I30
sa(dp1670
g1535
g1547
sg1536
I127
sg1537
I2
sg1538
I24
sg1539
I33
sg1540
I14
sa(dp1671
g1535
g1542
sg1536
I128
sg1537
I3
sg1538
I18
sg1539
I33
sg1540
I34
sa(dp1672
g1535
g1544
sg1536
I129
sg1537
I2
sg1538
I28
sg1539
I33
sg1540
I14
sa(dp1673
g1535
g1542
sg1536
I130
sg1537
I3
sg1538
I28
sg1539
I33
sg1540
I34
sa(dp1674
g1535
g1542
sg1536
I131
sg1537
I5
sg1538
I9
sg1539
I29
sg1540
I64
sa(dp1675
g1535
g1547
sg1536
I132
sg1537
I5
sg1538
I12
sg1539
I33
sg1540
I63
sa(dp1676
g1535
g1547
sg1536
I133
sg1537
I3
sg1538
I14
sg1539
I39
sg1540
I29
sa(dp1677
g1535
g1544
sg1536
I134
sg1537
I3
sg1538
I21
sg1539
I39
sg1540
I34
sa(dp1678
g1535
g1547
sg1536
I135
sg1537
I2
sg1538
I10
sg1539
I37
sg1540
I14
sa(dp1679
g1535
g1542
sg1536
I136
sg1537
I3
sg1538
I27
sg1539
I37
sg1540
I41
sa(dp1680
g1535
g1547
sg1536
I137
sg1537
I2
sg1538
I9
sg1539
I21
sg1540
I14
sa(dp1681
g1535
g1542
sg1536
I138
sg1537
I3
sg1538
I11
sg1539
I21
sg1540
I35
sa(dp1682
g1535
g1547
sg1536
I139
sg1537
I2
sg1538
I12
sg1539
I25
sg1540
I14
sa(dp1683
g1535
g1542
sg1536
I140
sg1537
I3
sg1538
I15
sg1539
I25
sg1540
I38
sa(dp1684
g1535
g1547
sg1536
I141
sg1537
I3
sg1538
I14
sg1539
I29
sg1540
I29
sa(dp1685
g1535
g1544
sg1536
I142
sg1537
I3
sg1538
I19
sg1539
I29
sg1540
I34
sa(dp1686
g1535
g1547
sg1536
I143
sg1537
I2
sg1538
I12
sg1539
I25
sg1540
I14
sa(dp1687
g1535
g1542
sg1536
I144
sg1537
I3
sg1538
I17
sg1539
I25
sg1540
I38
sa(dp1688
g1535
g1547
sg1536
I145
sg1537
I2
sg1538
I12
sg1539
I21
sg1540
I14
sa(dp1689
g1535
g1542
sg1536
I146
sg1537
I3
sg1538
I15
sg1539
I21
sg1540
I31
sa(dp1690
g1535
g1547
sg1536
I147
sg1537
I2
sg1538
I17
sg1539
I21
sg1540
I14
sa(dp1691
g1535
g1542
sg1536
I148
sg1537
I3
sg1538
I16
sg1539
I21
sg1540
I35
sa(dp1692
g1535
g1547
sg1536
I149
sg1537
I2
sg1538
I15
sg1539
I25
sg1540
I14
sa(dp1693
g1535
g1542
sg1536
I150
sg1537
I3
sg1538
I15
sg1539
I25
sg1540
I38
sa(dp1694
g1535
g1547
sg1536
I151
sg1537
I2
sg1538
I11
sg1539
I21
sg1540
I14
sa(dp1695
g1535
g1542
sg1536
I152
sg1537
I3
sg1538
I11
sg1539
I21
sg1540
I31
sa(dp1696
g1535
g1547
sg1536
I153
sg1537
I2
sg1538
I17
sg1539
I25
sg1540
I14
sa(dp1697
g1535
g1542
sg1536
I154
sg1537
I2
sg1538
I16
sg1539
I23
sg1540
I22
sa(dp1698
g1535
g1547
sg1536
I155
sg1537
I2
sg1538
I17
sg1539
I25
sg1540
I14
sa(dp1699
g1535
g1542
sg1536
I156
sg1537
I3
sg1538
I16
sg1539
I23
sg1540
I35
sa(dp1700
g1535
g1547
sg1536
I157
sg1537
I3
sg1538
I18
sg1539
I29
sg1540
I33
sa(dp1701
g1535
g1544
sg1536
I158
sg1537
I2
sg1538
I16
sg1539
I21
sg1540
I14
sa(dp1702
g1535
g1542
sg1536
I159
sg1537
I3
sg1538
I19
sg1539
I25
sg1540
I43
sa(dp1703
g1535
g1547
sg1536
I160
sg1537
I1
sg1538
I24
sg1539
I29
sg1540
I7
sa(dp1704
g1535
g1542
sg1536
I161
sg1537
I2
sg1538
I9
sg1539
I33
sg1540
I22
sa(dp1705
g1535
g1542
sg1536
I162
sg1537
I3
sg1538
I11
sg1539
I37
sg1540
I62
sa(dp1706
g1535
g1547
sg1536
I163
sg1537
I2
sg1538
I23
sg1539
I41
sg1540
I26
sa(dp1707
g1535
g1547
sg1536
I164
sg1537
I1
sg1538
I35
sg1539
I45
sg1540
I8
sa(dp1708
g1535
g1542
sg1536
I165
sg1537
I2
sg1538
I26
sg1539
I41
sg1540
I26
sa(dp1709
g1535
g1547
sg1536
I166
sg1537
I1
sg1538
I28
sg1539
I37
sg1540
I7
sa(dp1710
g1535
g1542
sg1536
I167
sg1537
I2
sg1538
I33
sg1539
I41
sg1540
I26
sa(dp1711
g1535
g1547
sg1536
I168
sg1537
I1
sg1538
I27
sg1539
I45
sg1540
I8
sa(dp1712
g1535
g1542
sg1536
I169
sg1537
I2
sg1538
I35
sg1539
I41
sg1540
I26
sa(dp1713
g1535
g1547
sg1536
I170
sg1537
I1
sg1538
I26
sg1539
I37
sg1540
I7
sa(dp1714
g1535
g1542
sg1536
I171
sg1537
I2
sg1538
I31
sg1539
I41
sg1540
I26
sa(dp1715
g1535
g1547
sg1536
I172
sg1537
I1
sg1538
I32
sg1539
I45
sg1540
I8
sa(dp1716
g1535
g1542
sg1536
I173
sg1537
I2
sg1538
I36
sg1539
I49
sg1540
I42
sa(dp1717
g1535
g1547
sg1536
I174
sg1537
I1
sg1538
I12
sg1539
I53
sg1540
I12
sa(dp1718
g1535
g1542
sg1536
I175
sg1537
I2
sg1538
I43
sg1539
I49
sg1540
I38
sa(dp1719
g1535
g1547
sg1536
I176
sg1537
I1
sg1538
I11
sg1539
I45
sg1540
I8
sa(dp1720
g1535
g1542
sg1536
I177
sg1537
I2
sg1538
I32
sg1539
I41
sg1540
I26
sa(dp1721
g1535
g1547
sg1536
I178
sg1537
I1
sg1538
I28
sg1539
I37
sg1540
I7
sa(dp1722
g1535
g1542
sg1536
I179
sg1537
I4
sg1538
I31
sg1539
I37
sg1540
I56
sa(dp1723
g1535
g1547
sg1536
I180
sg1537
I2
sg1538
I30
sg1539
I37
sg1540
I20
sa(dp1724
g1535
g1542
sg1536
I181
sg1537
I3
sg1538
I6
sg1539
I31
sg1540
I58
sa(dp1725
g1535
g1547
sg1536
I182
sg1537
I1
sg1538
I8
sg1539
I21
sg1540
I3
sa(dp1726
g1535
g1542
sg1536
I183
sg1537
I3
sg1538
I4
sg1539
I25
sg1540
I35
sa(dp1727
g1535
g1547
sg1536
I184
sg1537
I3
sg1538
I6
sg1539
I29
sg1540
I21
sa(dp1728
g1535
g1544
sg1536
I185
sg1537
I2
sg1538
I22
sg1539
I31
sg1540
I40
sa(dp1729
g1535
g1547
sg1536
I186
sg1537
I1
sg1538
I23
sg1539
I31
sg1540
I9
sa(dp1730
g1535
g1542
sg1536
I187
sg1537
I2
sg1538
I21
sg1539
I33
sg1540
I42
sa(dp1731
g1535
g1547
sg1536
I188
sg1537
I1
sg1538
I29
sg1539
I35
sg1540
I30
sa(dp1732
g1535
g1547
sg1536
I189
sg1537
I0
sg1538
I31
sg1539
I39
sg1540
I0
satRp1733
(dp1734
g168
I01
sg169
(lp1735
g1536
ag1539
ag1537
ag1540
ag1538
ag1535
asg171
Nsg172
I0
sg173
g174
(g13
tRp1736
sbsS'max_archive_size'
p1737
NsS'solution_found_flag'
p1738
I01
sS'time_taken'
p1739
F4.7765560150146484
sS'benchmark_name'
p1740
S'M_A4'
p1741
sa(dp1742
S'tree_str'
p1743
S'a4(a4(a4(a4(a4(ARG0,ARG2),a4(ARG0,ARG1)),a4(ARG2,a4(ARG2,ARG0))),a4(a4(a4(ARG2,a4(a4(ARG2,ARG2),a4(ARG1,ARG1))),a4(ARG2,ARG0)),a4(a4(ARG0,ARG2),a4(ARG1,ARG0)))),a4(a4(a4(a4(ARG0,ARG0),ARG1),a4(a4(ARG2,ARG0),a4(a4(ARG0,ARG2),ARG2))),a4(ARG0,a4(ARG0,ARG0))))'
p1744
sS'tree_len'
p1745
I57
sS'archive_size'
p1746
I130
sS'number_of_operators'
p1747
I28
sS'alg_name'
p1748
S'small-LTI'
p1749
sS'archive_tree_deapth'
p1750
I2
sS'logbook'
p1751
g12
(g13
g14
(lp1752
(dp1753
S'status'
p1754
NsS'iteration'
p1755
I0
sS'count_wrongs'
p1756
I6
sS'picked_node'
p1757
NsS'len_master_tree'
p1758
I1
sS'total_wrongs'
p1759
I6
sa(dp1760
g1754
S'worst'
p1761
sg1755
I1
sg1756
I7
sg1757
I0
sg1758
I5
sg1759
I30
sa(dp1762
g1754
S'better'
p1763
sg1755
I2
sg1756
I5
sg1757
I4
sg1758
I9
sg1759
I16
sa(dp1764
g1754
g1761
sg1755
I3
sg1756
I6
sg1757
I8
sg1758
I13
sg1759
I26
sa(dp1765
g1754
S'perfect'
p1766
sg1755
I4
sg1756
I5
sg1757
I5
sg1758
I17
sg1759
I18
sa(dp1767
g1754
g1761
sg1755
I5
sg1756
I6
sg1757
I5
sg1758
I13
sg1759
I25
sa(dp1768
g1754
g1766
sg1755
I6
sg1756
I5
sg1757
I5
sg1758
I9
sg1759
I16
sa(dp1769
g1754
g1761
sg1755
I7
sg1756
I5
sg1757
I6
sg1758
I13
sg1759
I32
sa(dp1770
g1754
g1763
sg1755
I8
sg1756
I5
sg1757
I8
sg1758
I9
sg1759
I16
sa(dp1771
g1754
g1761
sg1755
I9
sg1756
I6
sg1757
I6
sg1758
I13
sg1759
I28
sa(dp1772
g1754
g1766
sg1755
I10
sg1756
I5
sg1757
I6
sg1758
I17
sg1759
I20
sa(dp1773
g1754
g1761
sg1755
I11
sg1756
I6
sg1757
I7
sg1758
I13
sg1759
I25
sa(dp1774
g1754
g1766
sg1755
I12
sg1756
I5
sg1757
I7
sg1758
I9
sg1759
I16
sa(dp1775
g1754
g1761
sg1755
I13
sg1756
I5
sg1757
I6
sg1758
I13
sg1759
I32
sa(dp1776
g1754
g1763
sg1755
I14
sg1756
I5
sg1757
I10
sg1758
I13
sg1759
I21
sa(dp1777
g1754
g1761
sg1755
I15
sg1756
I5
sg1757
I8
sg1758
I13
sg1759
I32
sa(dp1778
g1754
g1763
sg1755
I16
sg1756
I5
sg1757
I8
sg1758
I13
sg1759
I21
sa(dp1779
g1754
g1761
sg1755
I17
sg1756
I5
sg1757
I8
sg1758
I13
sg1759
I32
sa(dp1780
g1754
g1763
sg1755
I18
sg1756
I5
sg1757
I8
sg1758
I13
sg1759
I22
sa(dp1781
g1754
g1761
sg1755
I19
sg1756
I5
sg1757
I10
sg1758
I13
sg1759
I32
sa(dp1782
g1754
g1763
sg1755
I20
sg1756
I5
sg1757
I8
sg1758
I13
sg1759
I20
sa(dp1783
g1754
g1761
sg1755
I21
sg1756
I6
sg1757
I6
sg1758
I17
sg1759
I30
sa(dp1784
g1754
g1763
sg1755
I22
sg1756
I5
sg1757
I12
sg1758
I13
sg1759
I20
sa(dp1785
g1754
g1761
sg1755
I23
sg1756
I5
sg1757
I7
sg1758
I13
sg1759
I32
sa(dp1786
g1754
g1763
sg1755
I24
sg1756
I5
sg1757
I8
sg1758
I13
sg1759
I20
sa(dp1787
g1754
g1761
sg1755
I25
sg1756
I5
sg1757
I10
sg1758
I13
sg1759
I32
sa(dp1788
g1754
g1763
sg1755
I26
sg1756
I5
sg1757
I8
sg1758
I13
sg1759
I21
sa(dp1789
g1754
g1761
sg1755
I27
sg1756
I5
sg1757
I11
sg1758
I17
sg1759
I40
sa(dp1790
g1754
g1763
sg1755
I28
sg1756
I5
sg1757
I10
sg1758
I13
sg1759
I22
sa(dp1791
g1754
g1761
sg1755
I29
sg1756
I5
sg1757
I11
sg1758
I13
sg1759
I32
sa(dp1792
g1754
g1763
sg1755
I30
sg1756
I5
sg1757
I12
sg1758
I13
sg1759
I22
sa(dp1793
g1754
g1761
sg1755
I31
sg1756
I5
sg1757
I12
sg1758
I13
sg1759
I32
sa(dp1794
g1754
g1763
sg1755
I32
sg1756
I5
sg1757
I12
sg1758
I17
sg1759
I26
sa(dp1795
g1754
g1761
sg1755
I33
sg1756
I5
sg1757
I12
sg1758
I17
sg1759
I40
sa(dp1796
g1754
g1763
sg1755
I34
sg1756
I5
sg1757
I14
sg1758
I17
sg1759
I26
sa(dp1797
g1754
g1761
sg1755
I35
sg1756
I5
sg1757
I15
sg1758
I17
sg1759
I40
sa(dp1798
g1754
g1763
sg1755
I36
sg1756
I5
sg1757
I16
sg1758
I17
sg1759
I26
sa(dp1799
g1754
g1761
sg1755
I37
sg1756
I5
sg1757
I12
sg1758
I17
sg1759
I40
sa(dp1800
g1754
g1763
sg1755
I38
sg1756
I5
sg1757
I15
sg1758
I17
sg1759
I26
sa(dp1801
g1754
g1761
sg1755
I39
sg1756
I5
sg1757
I14
sg1758
I17
sg1759
I40
sa(dp1802
g1754
g1763
sg1755
I40
sg1756
I5
sg1757
I14
sg1758
I17
sg1759
I26
sa(dp1803
g1754
g1761
sg1755
I41
sg1756
I5
sg1757
I12
sg1758
I17
sg1759
I40
sa(dp1804
g1754
g1763
sg1755
I42
sg1756
I5
sg1757
I12
sg1758
I17
sg1759
I26
sa(dp1805
g1754
g1761
sg1755
I43
sg1756
I5
sg1757
I14
sg1758
I17
sg1759
I40
sa(dp1806
g1754
g1763
sg1755
I44
sg1756
I5
sg1757
I12
sg1758
I17
sg1759
I26
sa(dp1807
g1754
g1761
sg1755
I45
sg1756
I6
sg1757
I6
sg1758
I21
sg1759
I44
sa(dp1808
g1754
g1763
sg1755
I46
sg1756
I5
sg1757
I16
sg1758
I17
sg1759
I23
sa(dp1809
g1754
g1761
sg1755
I47
sg1756
I6
sg1757
I7
sg1758
I13
sg1759
I32
sa(dp1810
g1754
g1763
sg1755
I48
sg1756
I6
sg1757
I9
sg1758
I17
sg1759
I32
sa(dp1811
g1754
g1763
sg1755
I49
sg1756
I5
sg1757
I11
sg1758
I21
sg1759
I21
sa(dp1812
g1754
g1761
sg1755
I50
sg1756
I6
sg1757
I9
sg1758
I17
sg1759
I32
sa(dp1813
g1754
g1763
sg1755
I51
sg1756
I5
sg1757
I16
sg1758
I21
sg1759
I21
sa(dp1814
g1754
g1761
sg1755
I52
sg1756
I6
sg1757
I14
sg1758
I17
sg1759
I32
sa(dp1815
g1754
g1763
sg1755
I53
sg1756
I5
sg1757
I16
sg1758
I21
sg1759
I21
sa(dp1816
g1754
g1761
sg1755
I54
sg1756
I6
sg1757
I17
sg1758
I25
sg1759
I50
sa(dp1817
g1754
g1766
sg1755
I55
sg1756
I6
sg1757
I18
sg1758
I29
sg1759
I47
sa(dp1818
g1754
g1763
sg1755
I56
sg1756
I5
sg1757
I1
sg1758
I33
sg1759
I89
sa(dp1819
g1754
g1766
sg1755
I57
sg1756
I3
sg1757
I16
sg1758
I29
sg1759
I31
sa(dp1820
g1754
g1766
sg1755
I58
sg1756
I3
sg1757
I16
sg1758
I29
sg1759
I16
sa(dp1821
g1754
g1761
sg1755
I59
sg1756
I4
sg1757
I17
sg1758
I33
sg1759
I41
sa(dp1822
g1754
g1766
sg1755
I60
sg1756
I3
sg1757
I27
sg1758
I37
sg1759
I17
sa(dp1823
g1754
g1761
sg1755
I61
sg1756
I4
sg1757
I27
sg1758
I33
sg1759
I41
sa(dp1824
g1754
g1766
sg1755
I62
sg1756
I3
sg1757
I27
sg1758
I29
sg1759
I16
sa(dp1825
g1754
g1761
sg1755
I63
sg1756
I4
sg1757
I27
sg1758
I33
sg1759
I41
sa(dp1826
g1754
g1766
sg1755
I64
sg1756
I3
sg1757
I5
sg1758
I37
sg1759
I17
sa(dp1827
g1754
g1761
sg1755
I65
sg1756
I4
sg1757
I28
sg1758
I41
sg1759
I56
sa(dp1828
g1754
g1766
sg1755
I66
sg1756
I4
sg1757
I29
sg1758
I45
sg1759
I53
sa(dp1829
g1754
g1766
sg1755
I67
sg1756
I3
sg1757
I25
sg1758
I51
sg1759
I21
sa(dp1830
g1754
g1761
sg1755
I68
sg1756
I4
sg1757
I26
sg1758
I43
sg1759
I55
sa(dp1831
g1754
g1766
sg1755
I69
sg1756
I3
sg1757
I24
sg1758
I37
sg1759
I17
sa(dp1832
g1754
g1761
sg1755
I70
sg1756
I4
sg1757
I29
sg1758
I33
sg1759
I28
sa(dp1833
g1754
g1766
sg1755
I71
sg1756
I3
sg1757
I24
sg1758
I29
sg1759
I16
sa(dp1834
g1754
g1761
sg1755
I72
sg1756
I4
sg1757
I15
sg1758
I29
sg1759
I21
sa(dp1835
g1754
g1763
sg1755
I73
sg1756
I3
sg1757
I24
sg1758
I29
sg1759
I16
sa(dp1836
g1754
g1761
sg1755
I74
sg1756
I4
sg1757
I25
sg1758
I33
sg1759
I41
sa(dp1837
g1754
g1766
sg1755
I75
sg1756
I3
sg1757
I19
sg1758
I37
sg1759
I17
sa(dp1838
g1754
g1761
sg1755
I76
sg1756
I5
sg1757
I23
sg1758
I33
sg1759
I63
sa(dp1839
g1754
g1766
sg1755
I77
sg1756
I3
sg1757
I23
sg1758
I29
sg1759
I13
sa(dp1840
g1754
g1761
sg1755
I78
sg1756
I4
sg1757
I24
sg1758
I31
sg1759
I41
sa(dp1841
g1754
g1766
sg1755
I79
sg1756
I3
sg1757
I22
sg1758
I35
sg1759
I16
sa(dp1842
g1754
g1763
sg1755
I80
sg1756
I3
sg1757
I25
sg1758
I39
sg1759
I19
sa(dp1843
g1754
g1766
sg1755
I81
sg1756
I2
sg1757
I35
sg1758
I43
sg1759
I10
sa(dp1844
g1754
g1761
sg1755
I82
sg1756
I3
sg1757
I23
sg1758
I35
sg1759
I16
sa(dp1845
g1754
g1763
sg1755
I83
sg1756
I3
sg1757
I34
sg1758
I39
sg1759
I19
sa(dp1846
g1754
g1761
sg1755
I84
sg1756
I3
sg1757
I34
sg1758
I35
sg1759
I16
sa(dp1847
g1754
g1761
sg1755
I85
sg1756
I4
sg1757
I26
sg1758
I37
sg1759
I29
sa(dp1848
g1754
g1766
sg1755
I86
sg1756
I3
sg1757
I35
sg1758
I41
sg1759
I13
sa(dp1849
g1754
g1761
sg1755
I87
sg1756
I4
sg1757
I22
sg1758
I33
sg1759
I47
sa(dp1850
g1754
g1766
sg1755
I88
sg1756
I4
sg1757
I18
sg1758
I33
sg1759
I28
sa(dp1851
g1754
g1766
sg1755
I89
sg1756
I3
sg1757
I18
sg1758
I29
sg1759
I16
sa(dp1852
g1754
g1761
sg1755
I90
sg1756
I4
sg1757
I19
sg1758
I33
sg1759
I41
sa(dp1853
g1754
g1766
sg1755
I91
sg1756
I3
sg1757
I23
sg1758
I37
sg1759
I17
sa(dp1854
g1754
g1761
sg1755
I92
sg1756
I4
sg1757
I18
sg1758
I33
sg1759
I41
sa(dp1855
g1754
g1766
sg1755
I93
sg1756
I3
sg1757
I23
sg1758
I29
sg1759
I16
sa(dp1856
g1754
g1761
sg1755
I94
sg1756
I4
sg1757
I24
sg1758
I33
sg1759
I41
sa(dp1857
g1754
g1766
sg1755
I95
sg1756
I3
sg1757
I27
sg1758
I37
sg1759
I17
sa(dp1858
g1754
g1761
sg1755
I96
sg1756
I4
sg1757
I23
sg1758
I33
sg1759
I41
sa(dp1859
g1754
g1766
sg1755
I97
sg1756
I3
sg1757
I18
sg1758
I29
sg1759
I16
sa(dp1860
g1754
g1761
sg1755
I98
sg1756
I4
sg1757
I20
sg1758
I33
sg1759
I41
sa(dp1861
g1754
g1766
sg1755
I99
sg1756
I3
sg1757
I18
sg1758
I37
sg1759
I17
sa(dp1862
g1754
g1761
sg1755
I100
sg1756
I5
sg1757
I18
sg1758
I33
sg1759
I50
sa(dp1863
g1754
g1766
sg1755
I101
sg1756
I4
sg1757
I18
sg1758
I33
sg1759
I25
sa(dp1864
g1754
g1763
sg1755
I102
sg1756
I4
sg1757
I24
sg1758
I37
sg1759
I23
sa(dp1865
g1754
g1766
sg1755
I103
sg1756
I3
sg1757
I33
sg1758
I41
sg1759
I13
sa(dp1866
g1754
g1763
sg1755
I104
sg1756
I2
sg1757
I26
sg1758
I45
sg1759
I12
sa(dp1867
g1754
g1766
sg1755
I105
sg1756
I1
sg1757
I41
sg1758
I49
sg1759
I3
sa(dp1868
g1754
g1761
sg1755
I106
sg1756
I3
sg1757
I2
sg1758
I53
sg1759
I65
sa(dp1869
g1754
g1766
sg1755
I107
sg1756
I3
sg1757
I13
sg1758
I49
sg1759
I21
sa(dp1870
g1754
g1761
sg1755
I108
sg1756
I4
sg1757
I1
sg1758
I29
sg1759
I48
sa(dp1871
g1754
g1766
sg1755
I109
sg1756
I4
sg1757
I5
sg1758
I31
sg1759
I46
sa(dp1872
g1754
g1761
sg1755
I110
sg1756
I4
sg1757
I1
sg1758
I15
sg1759
I39
sa(dp1873
g1754
g1763
sg1755
I111
sg1756
I5
sg1757
I6
sg1758
I21
sg1759
I69
sa(dp1874
g1754
g1763
sg1755
I112
sg1756
I5
sg1757
I17
sg1758
I25
sg1759
I72
sa(dp1875
g1754
g1763
sg1755
I113
sg1756
I4
sg1757
I19
sg1758
I29
sg1759
I63
sa(dp1876
g1754
g1763
sg1755
I114
sg1756
I4
sg1757
I3
sg1758
I35
sg1759
I63
sa(dp1877
g1754
g1766
sg1755
I115
sg1756
I3
sg1757
I3
sg1758
I39
sg1759
I28
sa(dp1878
g1754
g1763
sg1755
I116
sg1756
I3
sg1757
I10
sg1758
I43
sg1759
I46
sa(dp1879
g1754
g1766
sg1755
I117
sg1756
I2
sg1757
I37
sg1758
I43
sg1759
I22
sa(dp1880
g1754
g1763
sg1755
I118
sg1756
I1
sg1757
I6
sg1758
I43
sg1759
I11
sa(dp1881
g1754
g1761
sg1755
I119
sg1756
I2
sg1757
I34
sg1758
I43
sg1759
I48
sa(dp1882
g1754
g1766
sg1755
I120
sg1756
I1
sg1757
I29
sg1758
I49
sg1759
I11
sa(dp1883
g1754
g1761
sg1755
I121
sg1756
I2
sg1757
I37
sg1758
I49
sg1759
I57
sa(dp1884
g1754
g1766
sg1755
I122
sg1756
I1
sg1757
I27
sg1758
I43
sg1759
I11
sa(dp1885
g1754
g1761
sg1755
I123
sg1756
I2
sg1757
I33
sg1758
I43
sg1759
I18
sa(dp1886
g1754
g1763
sg1755
I124
sg1756
I1
sg1757
I42
sg1758
I43
sg1759
I11
sa(dp1887
g1754
g1761
sg1755
I125
sg1756
I2
sg1757
I42
sg1758
I43
sg1759
I18
sa(dp1888
g1754
g1763
sg1755
I126
sg1756
I1
sg1757
I32
sg1758
I43
sg1759
I11
sa(dp1889
g1754
g1761
sg1755
I127
sg1756
I2
sg1757
I40
sg1758
I43
sg1759
I22
sa(dp1890
g1754
g1763
sg1755
I128
sg1756
I1
sg1757
I40
sg1758
I43
sg1759
I11
sa(dp1891
g1754
g1761
sg1755
I129
sg1756
I2
sg1757
I32
sg1758
I43
sg1759
I48
sa(dp1892
g1754
g1766
sg1755
I130
sg1756
I1
sg1757
I34
sg1758
I49
sg1759
I11
sa(dp1893
g1754
g1761
sg1755
I131
sg1756
I3
sg1757
I34
sg1758
I51
sg1759
I46
sa(dp1894
g1754
g1766
sg1755
I132
sg1756
I2
sg1757
I39
sg1758
I51
sg1759
I21
sa(dp1895
g1754
g1766
sg1755
I133
sg1756
I1
sg1757
I42
sg1758
I55
sg1759
I9
sa(dp1896
g1754
g1761
sg1755
I134
sg1756
I2
sg1757
I34
sg1758
I55
sg1759
I58
sa(dp1897
g1754
g1766
sg1755
I135
sg1756
I2
sg1757
I34
sg1758
I51
sg1759
I53
sa(dp1898
g1754
g1766
sg1755
I136
sg1756
I1
sg1757
I34
sg1758
I51
sg1759
I9
sa(dp1899
g1754
g1761
sg1755
I137
sg1756
I2
sg1757
I38
sg1758
I55
sg1759
I45
sa(dp1900
g1754
g1766
sg1755
I138
sg1756
I2
sg1757
I4
sg1758
I59
sg1759
I46
sa(dp1901
g1754
g1766
sg1755
I139
sg1756
I2
sg1757
I7
sg1758
I51
sg1759
I38
sa(dp1902
g1754
g1766
sg1755
I140
sg1756
I2
sg1757
I15
sg1758
I55
sg1759
I40
sa(dp1903
g1754
g1766
sg1755
I141
sg1756
I2
sg1757
I29
sg1758
I57
sg1759
I39
sa(dp1904
g1754
g1766
sg1755
I142
sg1756
I1
sg1757
I27
sg1758
I57
sg1759
I13
sa(dp1905
g1754
g1761
sg1755
I143
sg1756
I2
sg1757
I19
sg1758
I53
sg1759
I52
sa(dp1906
g1754
g1766
sg1755
I144
sg1756
I1
sg1757
I13
sg1758
I49
sg1759
I9
sa(dp1907
g1754
g1761
sg1755
I145
sg1756
I2
sg1757
I6
sg1758
I53
sg1759
I71
sa(dp1908
g1754
g1766
sg1755
I146
sg1756
I2
sg1757
I37
sg1758
I51
sg1759
I60
sa(dp1909
g1754
g1766
sg1755
I147
sg1756
I1
sg1757
I10
sg1758
I53
sg1759
I18
sa(dp1910
g1754
g1766
sg1755
I148
sg1756
I0
sg1757
I39
sg1758
I57
sg1759
I0
satRp1911
(dp1912
g168
I01
sg169
(lp1913
g1755
ag1758
ag1756
ag1759
ag1757
ag1754
asg171
Nsg172
I0
sg173
g174
(g13
tRp1914
sbsS'max_archive_size'
p1915
NsS'solution_found_flag'
p1916
I01
sS'time_taken'
p1917
F2.9522697925567627
sS'benchmark_name'
p1918
S'M_A4'
p1919
sa(dp1920
S'tree_str'
p1921
S'a4(a4(a4(a4(ARG0,ARG2),a4(a4(ARG0,a4(ARG0,ARG2)),a4(ARG1,a4(ARG1,ARG0)))),a4(a4(a4(a4(ARG1,ARG1),a4(ARG0,ARG0)),ARG0),a4(a4(ARG0,ARG2),a4(ARG0,a4(ARG2,ARG1))))),a4(a4(a4(a4(a4(ARG2,ARG1),a4(ARG0,ARG0)),a4(ARG2,a4(ARG2,a4(a4(ARG0,a4(ARG2,ARG0)),a4(ARG1,ARG0))))),ARG1),ARG1))'
p1922
sS'tree_len'
p1923
I61
sS'archive_size'
p1924
I130
sS'number_of_operators'
p1925
I30
sS'alg_name'
p1926
S'small-LTI'
p1927
sS'archive_tree_deapth'
p1928
I2
sS'logbook'
p1929
g12
(g13
g14
(lp1930
(dp1931
S'status'
p1932
NsS'iteration'
p1933
I0
sS'count_wrongs'
p1934
I6
sS'picked_node'
p1935
NsS'len_master_tree'
p1936
I1
sS'total_wrongs'
p1937
I6
sa(dp1938
g1932
S'worst'
p1939
sg1933
I1
sg1934
I7
sg1935
I0
sg1936
I5
sg1937
I30
sa(dp1940
g1932
S'better'
p1941
sg1933
I2
sg1934
I5
sg1935
I4
sg1936
I9
sg1937
I16
sa(dp1942
g1932
g1939
sg1933
I3
sg1934
I5
sg1935
I7
sg1936
I13
sg1937
I32
sa(dp1943
g1932
g1941
sg1933
I4
sg1934
I5
sg1935
I8
sg1936
I9
sg1937
I16
sa(dp1944
g1932
g1939
sg1933
I5
sg1934
I5
sg1935
I8
sg1936
I13
sg1937
I32
sa(dp1945
g1932
g1941
sg1933
I6
sg1934
I5
sg1935
I6
sg1936
I9
sg1937
I16
sa(dp1946
g1932
g1939
sg1933
I7
sg1934
I5
sg1935
I7
sg1936
I13
sg1937
I32
sa(dp1947
g1932
g1941
sg1933
I8
sg1934
I5
sg1935
I10
sg1936
I13
sg1937
I21
sa(dp1948
g1932
g1939
sg1933
I9
sg1934
I5
sg1935
I10
sg1936
I13
sg1937
I32
sa(dp1949
g1932
g1941
sg1933
I10
sg1934
I5
sg1935
I8
sg1936
I13
sg1937
I20
sa(dp1950
g1932
g1939
sg1933
I11
sg1934
I5
sg1935
I8
sg1936
I13
sg1937
I32
sa(dp1951
g1932
g1941
sg1933
I12
sg1934
I5
sg1935
I10
sg1936
I13
sg1937
I22
sa(dp1952
g1932
g1939
sg1933
I13
sg1934
I5
sg1935
I10
sg1936
I13
sg1937
I32
sa(dp1953
g1932
g1941
sg1933
I14
sg1934
I5
sg1935
I8
sg1936
I13
sg1937
I21
sa(dp1954
g1932
g1939
sg1933
I15
sg1934
I5
sg1935
I11
sg1936
I13
sg1937
I32
sa(dp1955
g1932
g1941
sg1933
I16
sg1934
I5
sg1935
I8
sg1936
I13
sg1937
I22
sa(dp1956
g1932
g1939
sg1933
I17
sg1934
I6
sg1935
I5
sg1936
I17
sg1937
I36
sa(dp1957
g1932
g1941
sg1933
I18
sg1934
I5
sg1935
I12
sg1936
I13
sg1937
I19
sa(dp1958
g1932
g1939
sg1933
I19
sg1934
I6
sg1935
I7
sg1936
I13
sg1937
I32
sa(dp1959
g1932
S'perfect'
p1960
sg1933
I20
sg1934
I5
sg1935
I7
sg1936
I13
sg1937
I21
sa(dp1961
g1932
g1939
sg1933
I21
sg1934
I5
sg1935
I10
sg1936
I13
sg1937
I32
sa(dp1962
g1932
g1941
sg1933
I22
sg1934
I5
sg1935
I5
sg1936
I9
sg1937
I16
sa(dp1963
g1932
g1939
sg1933
I23
sg1934
I6
sg1935
I8
sg1936
I13
sg1937
I28
sa(dp1964
g1932
g1960
sg1933
I24
sg1934
I5
sg1935
I5
sg1936
I17
sg1937
I20
sa(dp1965
g1932
g1939
sg1933
I25
sg1934
I6
sg1935
I7
sg1936
I13
sg1937
I25
sa(dp1966
g1932
g1941
sg1933
I26
sg1934
I5
sg1935
I12
sg1936
I17
sg1937
I20
sa(dp1967
g1932
g1939
sg1933
I27
sg1934
I6
sg1935
I12
sg1936
I13
sg1937
I25
sa(dp1968
g1932
g1941
sg1933
I28
sg1934
I5
sg1935
I12
sg1936
I17
sg1937
I18
sa(dp1969
g1932
g1939
sg1933
I29
sg1934
I5
sg1935
I6
sg1936
I17
sg1937
I36
sa(dp1970
g1932
g1960
sg1933
I30
sg1934
I4
sg1935
I13
sg1936
I17
sg1937
I9
sa(dp1971
g1932
g1939
sg1933
I31
sg1934
I4
sg1935
I3
sg1936
I21
sg1937
I51
sa(dp1972
g1932
g1941
sg1933
I32
sg1934
I4
sg1935
I16
sg1936
I17
sg1937
I9
sa(dp1973
g1932
g1939
sg1933
I33
sg1934
I4
sg1935
I16
sg1936
I21
sg1937
I51
sa(dp1974
g1932
g1941
sg1933
I34
sg1934
I4
sg1935
I4
sg1936
I21
sg1937
I41
sa(dp1975
g1932
g1941
sg1933
I35
sg1934
I5
sg1935
I10
sg1936
I25
sg1937
I56
sa(dp1976
g1932
g1960
sg1933
I36
sg1934
I4
sg1935
I5
sg1936
I29
sg1937
I35
sa(dp1977
g1932
g1941
sg1933
I37
sg1934
I3
sg1935
I1
sg1936
I33
sg1937
I34
sa(dp1978
g1932
g1939
sg1933
I38
sg1934
I4
sg1935
I9
sg1936
I37
sg1937
I61
sa(dp1979
g1932
g1960
sg1933
I39
sg1934
I4
sg1935
I3
sg1936
I35
sg1937
I53
sa(dp1980
g1932
g1939
sg1933
I40
sg1934
I5
sg1935
I19
sg1936
I39
sg1937
I90
sa(dp1981
g1932
g1960
sg1933
I41
sg1934
I5
sg1935
I9
sg1936
I43
sg1937
I89
sa(dp1982
g1932
g1960
sg1933
I42
sg1934
I5
sg1935
I29
sg1936
I47
sg1937
I88
sa(dp1983
g1932
g1960
sg1933
I43
sg1934
I4
sg1935
I31
sg1936
I51
sg1937
I54
sa(dp1984
g1932
g1939
sg1933
I44
sg1934
I5
sg1935
I31
sg1936
I47
sg1937
I74
sa(dp1985
g1932
g1960
sg1933
I45
sg1934
I4
sg1935
I26
sg1936
I39
sg1937
I53
sa(dp1986
g1932
g1939
sg1933
I46
sg1934
I5
sg1935
I31
sg1936
I43
sg1937
I89
sa(dp1987
g1932
g1960
sg1933
I47
sg1934
I4
sg1935
I37
sg1936
I47
sg1937
I54
sa(dp1988
g1932
g1939
sg1933
I48
sg1934
I5
sg1935
I37
sg1936
I43
sg1937
I75
sa(dp1989
g1932
g1960
sg1933
I49
sg1934
I4
sg1935
I31
sg1936
I39
sg1937
I53
sa(dp1990
g1932
g1939
sg1933
I50
sg1934
I5
sg1935
I13
sg1936
I43
sg1937
I79
sa(dp1991
g1932
g1941
sg1933
I51
sg1934
I4
sg1935
I30
sg1936
I47
sg1937
I59
sa(dp1992
g1932
g1939
sg1933
I52
sg1934
I5
sg1935
I42
sg1936
I43
sg1937
I79
sa(dp1993
g1932
g1941
sg1933
I53
sg1934
I4
sg1935
I42
sg1936
I47
sg1937
I59
sa(dp1994
g1932
g1939
sg1933
I54
sg1934
I4
sg1935
I39
sg1936
I47
sg1937
I85
sa(dp1995
g1932
g1960
sg1933
I55
sg1934
I3
sg1935
I46
sg1936
I51
sg1937
I40
sa(dp1996
g1932
g1939
sg1933
I56
sg1934
I4
sg1935
I39
sg1936
I47
sg1937
I60
sa(dp1997
g1932
g1941
sg1933
I57
sg1934
I3
sg1935
I21
sg1936
I51
sg1937
I43
sa(dp1998
g1932
g1939
sg1933
I58
sg1934
I4
sg1935
I20
sg1936
I43
sg1937
I52
sa(dp1999
g1932
g1941
sg1933
I59
sg1934
I3
sg1935
I41
sg1936
I47
sg1937
I36
sa(dp2000
g1932
g1939
sg1933
I60
sg1934
I4
sg1935
I32
sg1936
I43
sg1937
I71
sa(dp2001
g1932
g1960
sg1933
I61
sg1934
I3
sg1935
I6
sg1936
I39
sg1937
I39
sa(dp2002
g1932
g1939
sg1933
I62
sg1934
I4
sg1935
I22
sg1936
I35
sg1937
I55
sa(dp2003
g1932
g1941
sg1933
I63
sg1934
I3
sg1935
I34
sg1936
I39
sg1937
I39
sa(dp2004
g1932
g1939
sg1933
I64
sg1934
I4
sg1935
I34
sg1936
I35
sg1937
I55
sa(dp2005
g1932
g1941
sg1933
I65
sg1934
I2
sg1935
I6
sg1936
I31
sg1937
I28
sa(dp2006
g1932
g1941
sg1933
I66
sg1934
I2
sg1935
I29
sg1936
I35
sg1937
I23
sa(dp2007
g1932
g1939
sg1933
I67
sg1934
I2
sg1935
I26
sg1936
I31
sg1937
I28
sa(dp2008
g1932
g1939
sg1933
I68
sg1934
I4
sg1935
I27
sg1936
I35
sg1937
I69
sa(dp2009
g1932
g1960
sg1933
I69
sg1934
I3
sg1935
I25
sg1936
I39
sg1937
I52
sa(dp2010
g1932
g1960
sg1933
I70
sg1934
I2
sg1935
I30
sg1936
I43
sg1937
I28
sa(dp2011
g1932
g1939
sg1933
I71
sg1934
I3
sg1935
I25
sg1936
I35
sg1937
I60
sa(dp2012
g1932
g1960
sg1933
I72
sg1934
I2
sg1935
I25
sg1936
I31
sg1937
I28
sa(dp2013
g1932
g1941
sg1933
I73
sg1934
I2
sg1935
I28
sg1936
I35
sg1937
I23
sa(dp2014
g1932
g1939
sg1933
I74
sg1934
I2
sg1935
I30
sg1936
I31
sg1937
I28
sa(dp2015
g1932
g1941
sg1933
I75
sg1934
I2
sg1935
I30
sg1936
I35
sg1937
I23
sa(dp2016
g1932
g1939
sg1933
I76
sg1934
I2
sg1935
I27
sg1936
I31
sg1937
I28
sa(dp2017
g1932
g1939
sg1933
I77
sg1934
I3
sg1935
I26
sg1936
I35
sg1937
I49
sa(dp2018
g1932
g1960
sg1933
I78
sg1934
I2
sg1935
I26
sg1936
I39
sg1937
I32
sa(dp2019
g1932
g1941
sg1933
I79
sg1934
I2
sg1935
I27
sg1936
I43
sg1937
I23
sa(dp2020
g1932
g1939
sg1933
I80
sg1934
I2
sg1935
I26
sg1936
I39
sg1937
I32
sa(dp2021
g1932
g1941
sg1933
I81
sg1934
I2
sg1935
I37
sg1936
I43
sg1937
I23
sa(dp2022
g1932
g1939
sg1933
I82
sg1934
I2
sg1935
I38
sg1936
I39
sg1937
I32
sa(dp2023
g1932
g1941
sg1933
I83
sg1934
I2
sg1935
I38
sg1936
I43
sg1937
I23
sa(dp2024
g1932
g1939
sg1933
I84
sg1934
I2
sg1935
I36
sg1936
I39
sg1937
I32
sa(dp2025
g1932
g1939
sg1933
I85
sg1934
I3
sg1935
I26
sg1936
I35
sg1937
I60
sa(dp2026
g1932
g1960
sg1933
I86
sg1934
I2
sg1935
I26
sg1936
I31
sg1937
I28
sa(dp2027
g1932
g1939
sg1933
I87
sg1934
I4
sg1935
I29
sg1936
I35
sg1937
I69
sa(dp2028
g1932
g1960
sg1933
I88
sg1934
I3
sg1935
I29
sg1936
I39
sg1937
I52
sa(dp2029
g1932
g1960
sg1933
I89
sg1934
I2
sg1935
I33
sg1936
I43
sg1937
I28
sa(dp2030
g1932
g1939
sg1933
I90
sg1934
I3
sg1935
I25
sg1936
I37
sg1937
I49
sa(dp2031
g1932
g1941
sg1933
I91
sg1934
I3
sg1935
I31
sg1936
I39
sg1937
I54
sa(dp2032
g1932
g1960
sg1933
I92
sg1934
I2
sg1935
I18
sg1936
I39
sg1937
I28
sa(dp2033
g1932
g1939
sg1933
I93
sg1934
I3
sg1935
I6
sg1936
I35
sg1937
I45
sa(dp2034
g1932
g1941
sg1933
I94
sg1934
I4
sg1935
I15
sg1936
I37
sg1937
I82
sa(dp2035
g1932
g1960
sg1933
I95
sg1934
I3
sg1935
I7
sg1936
I39
sg1937
I43
sa(dp2036
g1932
g1939
sg1933
I96
sg1934
I3
sg1935
I6
sg1936
I33
sg1937
I56
sa(dp2037
g1932
g1960
sg1933
I97
sg1934
I3
sg1935
I29
sg1936
I37
sg1937
I55
sa(dp2038
g1932
g1941
sg1933
I98
sg1934
I2
sg1935
I29
sg1936
I37
sg1937
I26
sa(dp2039
g1932
g1939
sg1933
I99
sg1934
I3
sg1935
I14
sg1936
I37
sg1937
I52
sa(dp2040
g1932
g1941
sg1933
I100
sg1934
I2
sg1935
I36
sg1936
I37
sg1937
I26
sa(dp2041
g1932
g1939
sg1933
I101
sg1934
I3
sg1935
I31
sg1936
I37
sg1937
I55
sa(dp2042
g1932
g1941
sg1933
I102
sg1934
I2
sg1935
I34
sg1936
I37
sg1937
I26
sa(dp2043
g1932
g1939
sg1933
I103
sg1934
I4
sg1935
I13
sg1936
I37
sg1937
I73
sa(dp2044
g1932
g1960
sg1933
I104
sg1934
I2
sg1935
I33
sg1936
I41
sg1937
I10
sa(dp2045
g1932
g1939
sg1933
I105
sg1934
I3
sg1935
I13
sg1936
I41
sg1937
I39
sa(dp2046
g1932
g1941
sg1933
I106
sg1934
I3
sg1935
I37
sg1936
I45
sg1937
I61
sa(dp2047
g1932
g1960
sg1933
I107
sg1934
I1
sg1935
I30
sg1936
I49
sg1937
I5
sa(dp2048
g1932
g1939
sg1933
I108
sg1934
I2
sg1935
I38
sg1936
I53
sg1937
I26
sa(dp2049
g1932
g1941
sg1933
I109
sg1934
I1
sg1935
I48
sg1936
I49
sg1937
I5
sa(dp2050
g1932
g1939
sg1933
I110
sg1934
I2
sg1935
I48
sg1936
I53
sg1937
I26
sa(dp2051
g1932
g1941
sg1933
I111
sg1934
I1
sg1935
I36
sg1936
I49
sg1937
I5
sa(dp2052
g1932
g1939
sg1933
I112
sg1934
I3
sg1935
I35
sg1936
I45
sg1937
I26
sa(dp2053
g1932
g1960
sg1933
I113
sg1934
I1
sg1935
I41
sg1936
I49
sg1937
I5
sa(dp2054
g1932
g1939
sg1933
I114
sg1934
I2
sg1935
I43
sg1936
I53
sg1937
I26
sa(dp2055
g1932
g1941
sg1933
I115
sg1934
I1
sg1935
I41
sg1936
I49
sg1937
I5
sa(dp2056
g1932
g1939
sg1933
I116
sg1934
I3
sg1935
I40
sg1936
I45
sg1937
I26
sa(dp2057
g1932
g1941
sg1933
I117
sg1934
I3
sg1935
I43
sg1936
I49
sg1937
I33
sa(dp2058
g1932
g1941
sg1933
I118
sg1934
I2
sg1935
I45
sg1936
I53
sg1937
I18
sa(dp2059
g1932
g1939
sg1933
I119
sg1934
I3
sg1935
I44
sg1936
I49
sg1937
I33
sa(dp2060
g1932
g1939
sg1933
I120
sg1934
I3
sg1935
I2
sg1936
I33
sg1937
I36
sa(dp2061
g1932
g1960
sg1933
I121
sg1934
I1
sg1935
I22
sg1936
I37
sg1937
I17
sa(dp2062
g1932
g1939
sg1933
I122
sg1934
I2
sg1935
I30
sg1936
I41
sg1937
I40
sa(dp2063
g1932
g1960
sg1933
I123
sg1934
I2
sg1935
I30
sg1936
I45
sg1937
I27
sa(dp2064
g1932
g1939
sg1933
I124
sg1934
I3
sg1935
I35
sg1936
I41
sg1937
I69
sa(dp2065
g1932
g1941
sg1933
I125
sg1934
I1
sg1935
I29
sg1936
I37
sg1937
I17
sa(dp2066
g1932
g1939
sg1933
I126
sg1934
I2
sg1935
I4
sg1936
I41
sg1937
I38
sa(dp2067
g1932
g1941
sg1933
I127
sg1934
I1
sg1935
I3
sg1936
I37
sg1937
I17
sa(dp2068
g1932
g1939
sg1933
I128
sg1934
I2
sg1935
I20
sg1936
I41
sg1937
I37
sa(dp2069
g1932
g1941
sg1933
I129
sg1934
I1
sg1935
I19
sg1936
I33
sg1937
I13
sa(dp2070
g1932
g1939
sg1933
I130
sg1934
I2
sg1935
I32
sg1936
I37
sg1937
I29
sa(dp2071
g1932
g1941
sg1933
I131
sg1934
I1
sg1935
I30
sg1936
I33
sg1937
I13
sa(dp2072
g1932
g1939
sg1933
I132
sg1934
I3
sg1935
I26
sg1936
I37
sg1937
I50
sa(dp2073
g1932
g1960
sg1933
I133
sg1934
I1
sg1935
I25
sg1936
I41
sg1937
I5
sa(dp2074
g1932
g1939
sg1933
I134
sg1934
I3
sg1935
I18
sg1936
I37
sg1937
I28
sa(dp2075
g1932
g1960
sg1933
I135
sg1934
I3
sg1935
I23
sg1936
I39
sg1937
I24
sa(dp2076
g1932
g1960
sg1933
I136
sg1934
I1
sg1935
I32
sg1936
I43
sg1937
I5
sa(dp2077
g1932
g1939
sg1933
I137
sg1934
I3
sg1935
I31
sg1936
I39
sg1937
I24
sa(dp2078
g1932
g1960
sg1933
I138
sg1934
I1
sg1935
I35
sg1936
I43
sg1937
I5
sa(dp2079
g1932
g1939
sg1933
I139
sg1934
I2
sg1935
I37
sg1936
I47
sg1937
I24
sa(dp2080
g1932
g1960
sg1933
I140
sg1934
I1
sg1935
I27
sg1936
I51
sg1937
I9
sa(dp2081
g1932
g1939
sg1933
I141
sg1934
I2
sg1935
I33
sg1936
I43
sg1937
I11
sa(dp2082
g1932
g1941
sg1933
I142
sg1934
I2
sg1935
I41
sg1936
I47
sg1937
I14
sa(dp2083
g1932
g1939
sg1933
I143
sg1934
I2
sg1935
I42
sg1936
I47
sg1937
I18
sa(dp2084
g1932
g1941
sg1933
I144
sg1934
I2
sg1935
I42
sg1936
I47
sg1937
I14
sa(dp2085
g1932
g1939
sg1933
I145
sg1934
I2
sg1935
I42
sg1936
I47
sg1937
I18
sa(dp2086
g1932
g1941
sg1933
I146
sg1934
I2
sg1935
I45
sg1936
I51
sg1937
I18
sa(dp2087
g1932
g1939
sg1933
I147
sg1934
I2
sg1935
I44
sg1936
I47
sg1937
I18
sa(dp2088
g1932
g1939
sg1933
I148
sg1934
I3
sg1935
I38
sg1936
I43
sg1937
I38
sa(dp2089
g1932
g1960
sg1933
I149
sg1934
I2
sg1935
I37
sg1936
I49
sg1937
I10
sa(dp2090
g1932
g1939
sg1933
I150
sg1934
I3
sg1935
I37
sg1936
I49
sg1937
I49
sa(dp2091
g1932
g1960
sg1933
I151
sg1934
I2
sg1935
I33
sg1936
I43
sg1937
I11
sa(dp2092
g1932
g1941
sg1933
I152
sg1934
I2
sg1935
I36
sg1936
I47
sg1937
I14
sa(dp2093
g1932
g1939
sg1933
I153
sg1934
I3
sg1935
I46
sg1936
I51
sg1937
I53
sa(dp2094
g1932
g1960
sg1933
I154
sg1934
I2
sg1935
I37
sg1936
I47
sg1937
I18
sa(dp2095
g1932
g1939
sg1933
I155
sg1934
I3
sg1935
I41
sg1936
I43
sg1937
I31
sa(dp2096
g1932
g1960
sg1933
I156
sg1934
I2
sg1935
I29
sg1936
I47
sg1937
I14
sa(dp2097
g1932
g1939
sg1933
I157
sg1934
I2
sg1935
I36
sg1936
I43
sg1937
I11
sa(dp2098
g1932
g1939
sg1933
I158
sg1934
I3
sg1935
I33
sg1936
I43
sg1937
I69
sa(dp2099
g1932
g1960
sg1933
I159
sg1934
I2
sg1935
I9
sg1936
I39
sg1937
I30
sa(dp2100
g1932
g1960
sg1933
I160
sg1934
I2
sg1935
I13
sg1936
I39
sg1937
I23
sa(dp2101
g1932
g1960
sg1933
I161
sg1934
I2
sg1935
I20
sg1936
I41
sg1937
I16
sa(dp2102
g1932
g1939
sg1933
I162
sg1934
I3
sg1935
I21
sg1936
I41
sg1937
I46
sa(dp2103
g1932
g1960
sg1933
I163
sg1934
I2
sg1935
I29
sg1936
I41
sg1937
I11
sa(dp2104
g1932
g1941
sg1933
I164
sg1934
I2
sg1935
I20
sg1936
I45
sg1937
I14
sa(dp2105
g1932
g1939
sg1933
I165
sg1934
I2
sg1935
I40
sg1936
I41
sg1937
I11
sa(dp2106
g1932
g1941
sg1933
I166
sg1934
I2
sg1935
I40
sg1936
I45
sg1937
I14
sa(dp2107
g1932
g1939
sg1933
I167
sg1934
I2
sg1935
I40
sg1936
I45
sg1937
I18
sa(dp2108
g1932
g1939
sg1933
I168
sg1934
I3
sg1935
I44
sg1936
I49
sg1937
I62
sa(dp2109
g1932
g1960
sg1933
I169
sg1934
I2
sg1935
I39
sg1936
I53
sg1937
I22
sa(dp2110
g1932
g1960
sg1933
I170
sg1934
I1
sg1935
I44
sg1936
I57
sg1937
I9
sa(dp2111
g1932
g1939
sg1933
I171
sg1934
I3
sg1935
I39
sg1936
I49
sg1937
I62
sa(dp2112
g1932
g1960
sg1933
I172
sg1934
I2
sg1935
I25
sg1936
I45
sg1937
I14
sa(dp2113
g1932
g1939
sg1933
I173
sg1934
I3
sg1935
I32
sg1936
I45
sg1937
I45
sa(dp2114
g1932
g1960
sg1933
I174
sg1934
I2
sg1935
I40
sg1936
I45
sg1937
I24
sa(dp2115
g1932
g1939
sg1933
I175
sg1934
I3
sg1935
I43
sg1936
I45
sg1937
I53
sa(dp2116
g1932
g1960
sg1933
I176
sg1934
I2
sg1935
I37
sg1936
I45
sg1937
I14
sa(dp2117
g1932
g1939
sg1933
I177
sg1934
I2
sg1935
I32
sg1936
I45
sg1937
I18
sa(dp2118
g1932
g1939
sg1933
I178
sg1934
I3
sg1935
I44
sg1936
I49
sg1937
I63
sa(dp2119
g1932
g1960
sg1933
I179
sg1934
I2
sg1935
I26
sg1936
I47
sg1937
I22
sa(dp2120
g1932
g1939
sg1933
I180
sg1934
I3
sg1935
I41
sg1936
I43
sg1937
I39
sa(dp2121
g1932
g1960
sg1933
I181
sg1934
I2
sg1935
I14
sg1936
I43
sg1937
I18
sa(dp2122
g1932
g1941
sg1933
I182
sg1934
I2
sg1935
I31
sg1936
I43
sg1937
I14
sa(dp2123
g1932
g1939
sg1933
I183
sg1934
I2
sg1935
I38
sg1936
I43
sg1937
I18
sa(dp2124
g1932
g1939
sg1933
I184
sg1934
I3
sg1935
I23
sg1936
I43
sg1937
I52
sa(dp2125
g1932
g1960
sg1933
I185
sg1934
I2
sg1935
I24
sg1936
I43
sg1937
I24
sa(dp2126
g1932
g1939
sg1933
I186
sg1934
I3
sg1935
I39
sg1936
I43
sg1937
I55
sa(dp2127
g1932
g1960
sg1933
I187
sg1934
I2
sg1935
I23
sg1936
I43
sg1937
I18
sa(dp2128
g1932
g1941
sg1933
I188
sg1934
I2
sg1935
I33
sg1936
I47
sg1937
I18
sa(dp2129
g1932
g1939
sg1933
I189
sg1934
I2
sg1935
I32
sg1936
I43
sg1937
I18
sa(dp2130
g1932
g1939
sg1933
I190
sg1934
I3
sg1935
I42
sg1936
I47
sg1937
I62
sa(dp2131
g1932
g1960
sg1933
I191
sg1934
I2
sg1935
I36
sg1936
I51
sg1937
I22
sa(dp2132
g1932
g1939
sg1933
I192
sg1934
I2
sg1935
I43
sg1936
I51
sg1937
I27
sa(dp2133
g1932
g1941
sg1933
I193
sg1934
I2
sg1935
I50
sg1936
I51
sg1937
I22
sa(dp2134
g1932
g1939
sg1933
I194
sg1934
I3
sg1935
I41
sg1936
I51
sg1937
I41
sa(dp2135
g1932
g1941
sg1933
I195
sg1934
I2
sg1935
I46
sg1936
I51
sg1937
I22
sa(dp2136
g1932
g1960
sg1933
I196
sg1934
I1
sg1935
I47
sg1936
I55
sg1937
I9
sa(dp2137
g1932
g1939
sg1933
I197
sg1934
I3
sg1935
I16
sg1936
I55
sg1937
I68
sa(dp2138
g1932
g1960
sg1933
I198
sg1934
I2
sg1935
I33
sg1936
I53
sg1937
I30
sa(dp2139
g1932
g1960
sg1933
I199
sg1934
I1
sg1935
I40
sg1936
I57
sg1937
I8
sa(dp2140
g1932
g1939
sg1933
I200
sg1934
I2
sg1935
I30
sg1936
I61
sg1937
I63
sa(dp2141
g1932
g1960
sg1933
I201
sg1934
I1
sg1935
I41
sg1936
I63
sg1937
I12
sa(dp2142
g1932
g1960
sg1933
I202
sg1934
I1
sg1935
I55
sg1936
I63
sg1937
I21
sa(dp2143
g1932
g1960
sg1933
I203
sg1934
I1
sg1935
I55
sg1936
I65
sg1937
I19
sa(dp2144
g1932
g1939
sg1933
I204
sg1934
I2
sg1935
I35
sg1936
I53
sg1937
I29
sa(dp2145
g1932
g1941
sg1933
I205
sg1934
I1
sg1935
I48
sg1936
I57
sg1937
I20
sa(dp2146
g1932
g1939
sg1933
I206
sg1934
I2
sg1935
I47
sg1936
I53
sg1937
I49
sa(dp2147
g1932
g1960
sg1933
I207
sg1934
I1
sg1935
I36
sg1936
I53
sg1937
I17
sa(dp2148
g1932
g1939
sg1933
I208
sg1934
I2
sg1935
I36
sg1936
I53
sg1937
I31
sa(dp2149
g1932
g1941
sg1933
I209
sg1934
I1
sg1935
I48
sg1936
I53
sg1937
I17
sa(dp2150
g1932
g1939
sg1933
I210
sg1934
I2
sg1935
I48
sg1936
I53
sg1937
I31
sa(dp2151
g1932
g1941
sg1933
I211
sg1934
I1
sg1935
I52
sg1936
I57
sg1937
I21
sa(dp2152
g1932
g1960
sg1933
I212
sg1934
I0
sg1935
I53
sg1936
I61
sg1937
I0
satRp2153
(dp2154
g168
I01
sg169
(lp2155
g1933
ag1936
ag1934
ag1937
ag1935
ag1932
asg171
Nsg172
I0
sg173
g174
(g13
tRp2156
sbsS'max_archive_size'
p2157
NsS'solution_found_flag'
p2158
I01
sS'time_taken'
p2159
F5.3821341991424561
sS'benchmark_name'
p2160
S'M_A4'
p2161
sa(dp2162
S'tree_str'
p2163
S'a4(a4(a4(ARG1,a4(a4(a4(ARG1,ARG0),ARG1),a4(a4(ARG1,ARG0),ARG2))),ARG2),a4(a4(a4(a4(ARG1,a4(ARG2,ARG0)),a4(ARG0,ARG0)),ARG1),a4(a4(ARG2,a4(ARG1,a4(a4(ARG0,ARG2),ARG0))),ARG0)))'
p2164
sS'tree_len'
p2165
I39
sS'archive_size'
p2166
I130
sS'number_of_operators'
p2167
I19
sS'alg_name'
p2168
S'small-LTI'
p2169
sS'archive_tree_deapth'
p2170
I2
sS'logbook'
p2171
g12
(g13
g14
(lp2172
(dp2173
S'status'
p2174
NsS'iteration'
p2175
I0
sS'count_wrongs'
p2176
I6
sS'picked_node'
p2177
NsS'len_master_tree'
p2178
I1
sS'total_wrongs'
p2179
I6
sa(dp2180
g2174
S'worst'
p2181
sg2175
I1
sg2176
I7
sg2177
I0
sg2178
I5
sg2179
I26
sa(dp2182
g2174
S'better'
p2183
sg2175
I2
sg2176
I6
sg2177
I4
sg2178
I9
sg2179
I28
sa(dp2184
g2174
S'perfect'
p2185
sg2175
I3
sg2176
I6
sg2177
I5
sg2178
I13
sg2179
I21
sa(dp2186
g2174
g2183
sg2175
I4
sg2176
I5
sg2177
I1
sg2178
I17
sg2179
I31
sa(dp2187
g2174
g2183
sg2175
I5
sg2176
I4
sg2177
I13
sg2178
I21
sg2179
I26
sa(dp2188
g2174
g2181
sg2175
I6
sg2176
I5
sg2177
I16
sg2178
I17
sg2179
I31
sa(dp2189
g2174
g2183
sg2175
I7
sg2176
I4
sg2177
I16
sg2178
I21
sg2179
I26
sa(dp2190
g2174
g2181
sg2175
I8
sg2176
I6
sg2177
I3
sg2178
I17
sg2179
I36
sa(dp2191
g2174
g2183
sg2175
I9
sg2176
I6
sg2177
I16
sg2178
I21
sg2179
I39
sa(dp2192
g2174
g2185
sg2175
I10
sg2176
I5
sg2177
I17
sg2178
I25
sg2179
I27
sa(dp2193
g2174
g2181
sg2175
I11
sg2176
I6
sg2177
I14
sg2178
I17
sg2179
I36
sa(dp2194
g2174
g2183
sg2175
I12
sg2176
I6
sg2177
I16
sg2178
I23
sg2179
I50
sa(dp2195
g2174
g2185
sg2175
I13
sg2176
I5
sg2177
I20
sg2178
I25
sg2179
I27
sa(dp2196
g2174
g2181
sg2175
I14
sg2176
I6
sg2177
I12
sg2178
I17
sg2179
I36
sa(dp2197
g2174
g2183
sg2175
I15
sg2176
I6
sg2177
I16
sg2178
I23
sg2179
I44
sa(dp2198
g2174
g2185
sg2175
I16
sg2176
I5
sg2177
I17
sg2178
I25
sg2179
I27
sa(dp2199
g2174
g2181
sg2175
I17
sg2176
I4
sg2177
I12
sg2178
I17
sg2179
I33
sa(dp2200
g2174
g2181
sg2175
I18
sg2176
I5
sg2177
I7
sg2178
I13
sg2179
I38
sa(dp2201
g2174
g2183
sg2175
I19
sg2176
I4
sg2177
I12
sg2178
I17
sg2179
I33
sa(dp2202
g2174
g2181
sg2175
I20
sg2176
I5
sg2177
I12
sg2178
I13
sg2179
I38
sa(dp2203
g2174
g2183
sg2175
I21
sg2176
I4
sg2177
I6
sg2178
I17
sg2179
I41
sa(dp2204
g2174
g2181
sg2175
I22
sg2176
I6
sg2177
I7
sg2178
I21
sg2179
I61
sa(dp2205
g2174
g2183
sg2175
I23
sg2176
I4
sg2177
I16
sg2178
I17
sg2179
I41
sa(dp2206
g2174
g2181
sg2175
I24
sg2176
I6
sg2177
I16
sg2178
I21
sg2179
I61
sa(dp2207
g2174
g2185
sg2175
I25
sg2176
I4
sg2177
I17
sg2178
I27
sg2179
I34
sa(dp2208
g2174
g2181
sg2175
I26
sg2176
I4
sg2177
I6
sg2178
I17
sg2179
I41
sa(dp2209
g2174
g2181
sg2175
I27
sg2176
I6
sg2177
I13
sg2178
I21
sg2179
I67
sa(dp2210
g2174
g2185
sg2175
I28
sg2176
I4
sg2177
I20
sg2178
I25
sg2179
I34
sa(dp2211
g2174
g2181
sg2175
I29
sg2176
I4
sg2177
I12
sg2178
I17
sg2179
I41
sa(dp2212
g2174
g2185
sg2175
I30
sg2176
I4
sg2177
I13
sg2178
I21
sg2179
I34
sa(dp2213
g2174
g2181
sg2175
I31
sg2176
I5
sg2177
I12
sg2178
I19
sg2179
I54
sa(dp2214
g2174
g2185
sg2175
I32
sg2176
I4
sg2177
I13
sg2178
I21
sg2179
I34
sa(dp2215
g2174
g2181
sg2175
I33
sg2176
I4
sg2177
I12
sg2178
I19
sg2179
I46
sa(dp2216
g2174
g2185
sg2175
I34
sg2176
I4
sg2177
I13
sg2178
I21
sg2179
I34
sa(dp2217
g2174
g2181
sg2175
I35
sg2176
I5
sg2177
I12
sg2178
I19
sg2179
I55
sa(dp2218
g2174
g2185
sg2175
I36
sg2176
I4
sg2177
I14
sg2178
I25
sg2179
I34
sa(dp2219
g2174
g2181
sg2175
I37
sg2176
I5
sg2177
I12
sg2178
I19
sg2179
I54
sa(dp2220
g2174
g2183
sg2175
I38
sg2176
I4
sg2177
I13
sg2178
I17
sg2179
I41
sa(dp2221
g2174
g2185
sg2175
I39
sg2176
I4
sg2177
I16
sg2178
I21
sg2179
I34
sa(dp2222
g2174
g2181
sg2175
I40
sg2176
I4
sg2177
I12
sg2178
I19
sg2179
I46
sa(dp2223
g2174
g2185
sg2175
I41
sg2176
I4
sg2177
I15
sg2178
I21
sg2179
I34
sa(dp2224
g2174
g2181
sg2175
I42
sg2176
I4
sg2177
I12
sg2178
I19
sg2179
I46
sa(dp2225
g2174
g2185
sg2175
I43
sg2176
I4
sg2177
I15
sg2178
I21
sg2179
I34
sa(dp2226
g2174
g2181
sg2175
I44
sg2176
I5
sg2177
I15
sg2178
I23
sg2179
I62
sa(dp2227
g2174
g2183
sg2175
I45
sg2176
I4
sg2177
I18
sg2178
I21
sg2179
I34
sa(dp2228
g2174
g2181
sg2175
I46
sg2176
I5
sg2177
I18
sg2178
I21
sg2179
I49
sa(dp2229
g2174
g2183
sg2175
I47
sg2176
I4
sg2177
I19
sg2178
I21
sg2179
I34
sa(dp2230
g2174
g2181
sg2175
I48
sg2176
I5
sg2177
I20
sg2178
I21
sg2179
I49
sa(dp2231
g2174
g2183
sg2175
I49
sg2176
I4
sg2177
I20
sg2178
I21
sg2179
I34
sa(dp2232
g2174
g2181
sg2175
I50
sg2176
I5
sg2177
I18
sg2178
I23
sg2179
I62
sa(dp2233
g2174
g2183
sg2175
I51
sg2176
I5
sg2177
I18
sg2178
I23
sg2179
I51
sa(dp2234
g2174
g2183
sg2175
I52
sg2176
I3
sg2177
I10
sg2178
I29
sg2179
I22
sa(dp2235
g2174
g2185
sg2175
I53
sg2176
I2
sg2177
I10
sg2178
I33
sg2179
I10
sa(dp2236
g2174
g2181
sg2175
I54
sg2176
I3
sg2177
I8
sg2178
I37
sg2179
I37
sa(dp2237
g2174
g2185
sg2175
I55
sg2176
I3
sg2177
I27
sg2178
I37
sg2179
I24
sa(dp2238
g2174
g2181
sg2175
I56
sg2176
I4
sg2177
I7
sg2178
I21
sg2179
I41
sa(dp2239
g2174
g2183
sg2175
I57
sg2176
I3
sg2177
I6
sg2178
I25
sg2179
I28
sa(dp2240
g2174
g2183
sg2175
I58
sg2176
I3
sg2177
I19
sg2178
I29
sg2179
I31
sa(dp2241
g2174
g2181
sg2175
I59
sg2176
I3
sg2177
I24
sg2178
I25
sg2179
I28
sa(dp2242
g2174
g2183
sg2175
I60
sg2176
I3
sg2177
I24
sg2178
I29
sg2179
I31
sa(dp2243
g2174
g2181
sg2175
I61
sg2176
I4
sg2177
I6
sg2178
I25
sg2179
I46
sa(dp2244
g2174
g2183
sg2175
I62
sg2176
I5
sg2177
I19
sg2178
I27
sg2179
I59
sa(dp2245
g2174
g2183
sg2175
I63
sg2176
I2
sg2177
I19
sg2178
I29
sg2179
I21
sa(dp2246
g2174
g2185
sg2175
I64
sg2176
I2
sg2177
I19
sg2178
I25
sg2179
I11
sa(dp2247
g2174
g2181
sg2175
I65
sg2176
I3
sg2177
I8
sg2178
I21
sg2179
I25
sa(dp2248
g2174
g2185
sg2175
I66
sg2176
I3
sg2177
I18
sg2178
I25
sg2179
I24
sa(dp2249
g2174
g2183
sg2175
I67
sg2176
I2
sg2177
I7
sg2178
I29
sg2179
I16
sa(dp2250
g2174
g2185
sg2175
I68
sg2176
I1
sg2177
I7
sg2178
I29
sg2179
I3
sa(dp2251
g2174
g2181
sg2175
I69
sg2176
I3
sg2177
I2
sg2178
I33
sg2179
I43
sa(dp2252
g2174
g2185
sg2175
I70
sg2176
I3
sg2177
I13
sg2178
I33
sg2179
I21
sa(dp2253
g2174
g2183
sg2175
I71
sg2176
I2
sg2177
I25
sg2178
I37
sg2179
I55
sa(dp2254
g2174
g2185
sg2175
I72
sg2176
I2
sg2177
I18
sg2178
I37
sg2179
I51
sa(dp2255
g2174
g2185
sg2175
I73
sg2176
I0
sg2177
I29
sg2178
I39
sg2179
I0
satRp2256
(dp2257
g168
I01
sg169
(lp2258
g2175
ag2178
ag2176
ag2179
ag2177
ag2174
asg171
Nsg172
I0
sg173
g174
(g13
tRp2259
sbsS'max_archive_size'
p2260
NsS'solution_found_flag'
p2261
I01
sS'time_taken'
p2262
F2.2914421558380127
sS'benchmark_name'
p2263
S'M_A4'
p2264
sa(dp2265
S'tree_str'
p2266
S'a4(a4(a4(a4(a4(ARG0,a4(ARG0,a4(ARG0,ARG2))),a4(a4(a4(ARG0,ARG1),a4(a4(ARG0,ARG1),a4(ARG0,a4(ARG0,ARG1)))),a4(a4(ARG1,a4(ARG2,ARG0)),ARG1))),a4(ARG2,a4(ARG2,ARG0))),ARG0),a4(a4(ARG0,a4(ARG0,a4(ARG0,a4(ARG1,a4(ARG0,a4(ARG1,ARG2)))))),a4(ARG1,a4(ARG1,ARG0))))'
p2267
sS'tree_len'
p2268
I57
sS'archive_size'
p2269
I130
sS'number_of_operators'
p2270
I28
sS'alg_name'
p2271
S'small-LTI'
p2272
sS'archive_tree_deapth'
p2273
I2
sS'logbook'
p2274
g12
(g13
g14
(lp2275
(dp2276
S'status'
p2277
NsS'iteration'
p2278
I0
sS'count_wrongs'
p2279
I6
sS'picked_node'
p2280
NsS'len_master_tree'
p2281
I1
sS'total_wrongs'
p2282
I6
sa(dp2283
g2277
S'worst'
p2284
sg2278
I1
sg2279
I7
sg2280
I0
sg2281
I5
sg2282
I26
sa(dp2285
g2277
S'better'
p2286
sg2278
I2
sg2279
I6
sg2280
I4
sg2281
I9
sg2282
I28
sa(dp2287
g2277
S'perfect'
p2288
sg2278
I3
sg2279
I6
sg2280
I5
sg2281
I13
sg2282
I21
sa(dp2289
g2277
g2286
sg2278
I4
sg2279
I5
sg2280
I1
sg2281
I17
sg2282
I31
sa(dp2290
g2277
g2286
sg2278
I5
sg2279
I4
sg2280
I13
sg2281
I21
sg2282
I26
sa(dp2291
g2277
g2284
sg2278
I6
sg2279
I6
sg2280
I3
sg2281
I17
sg2282
I36
sa(dp2292
g2277
g2286
sg2278
I7
sg2279
I6
sg2280
I16
sg2281
I21
sg2282
I39
sa(dp2293
g2277
g2288
sg2278
I8
sg2279
I5
sg2280
I17
sg2281
I25
sg2282
I27
sa(dp2294
g2277
g2284
sg2278
I9
sg2279
I6
sg2280
I12
sg2281
I17
sg2282
I36
sa(dp2295
g2277
g2286
sg2278
I10
sg2279
I6
sg2280
I16
sg2281
I23
sg2282
I42
sa(dp2296
g2277
g2284
sg2278
I11
sg2279
I6
sg2280
I16
sg2281
I17
sg2282
I36
sa(dp2297
g2277
g2286
sg2278
I12
sg2279
I6
sg2280
I16
sg2281
I23
sg2282
I42
sa(dp2298
g2277
g2284
sg2278
I13
sg2279
I7
sg2280
I7
sg2281
I19
sg2282
I47
sa(dp2299
g2277
g2286
sg2278
I14
sg2279
I6
sg2280
I18
sg2281
I23
sg2282
I42
sa(dp2300
g2277
g2284
sg2278
I15
sg2279
I6
sg2280
I11
sg2281
I17
sg2282
I36
sa(dp2301
g2277
g2286
sg2278
I16
sg2279
I6
sg2280
I16
sg2281
I23
sg2282
I44
sa(dp2302
g2277
g2288
sg2278
I17
sg2279
I5
sg2280
I20
sg2281
I25
sg2282
I27
sa(dp2303
g2277
g2284
sg2278
I18
sg2279
I6
sg2280
I9
sg2281
I17
sg2282
I36
sa(dp2304
g2277
g2286
sg2278
I19
sg2279
I6
sg2280
I16
sg2281
I23
sg2282
I42
sa(dp2305
g2277
g2284
sg2278
I20
sg2279
I7
sg2280
I9
sg2281
I19
sg2282
I47
sa(dp2306
g2277
g2286
sg2278
I21
sg2279
I5
sg2280
I5
sg2281
I25
sg2282
I75
sa(dp2307
g2277
g2288
sg2278
I22
sg2279
I5
sg2280
I13
sg2281
I27
sg2282
I72
sa(dp2308
g2277
g2288
sg2278
I23
sg2279
I4
sg2280
I13
sg2281
I29
sg2282
I32
sa(dp2309
g2277
g2286
sg2278
I24
sg2279
I2
sg2280
I16
sg2281
I33
sg2282
I21
sa(dp2310
g2277
g2288
sg2278
I25
sg2279
I2
sg2280
I16
sg2281
I37
sg2282
I10
sa(dp2311
g2277
g2284
sg2278
I26
sg2279
I3
sg2280
I6
sg2281
I29
sg2282
I41
sa(dp2312
g2277
g2286
sg2278
I27
sg2279
I4
sg2280
I28
sg2281
I31
sg2282
I69
sa(dp2313
g2277
g2288
sg2278
I28
sg2279
I2
sg2280
I19
sg2281
I33
sg2282
I12
sa(dp2314
g2277
g2284
sg2278
I29
sg2279
I3
sg2280
I19
sg2281
I29
sg2282
I24
sa(dp2315
g2277
g2286
sg2278
I30
sg2279
I2
sg2280
I24
sg2281
I29
sg2282
I10
sa(dp2316
g2277
g2284
sg2278
I31
sg2279
I3
sg2280
I24
sg2281
I29
sg2282
I24
sa(dp2317
g2277
g2284
sg2278
I32
sg2279
I4
sg2280
I25
sg2281
I29
sg2282
I42
sa(dp2318
g2277
g2286
sg2278
I33
sg2279
I2
sg2280
I27
sg2281
I29
sg2282
I10
sa(dp2319
g2277
g2284
sg2278
I34
sg2279
I3
sg2280
I24
sg2281
I29
sg2282
I31
sa(dp2320
g2277
g2288
sg2278
I35
sg2279
I2
sg2280
I16
sg2281
I33
sg2282
I10
sa(dp2321
g2277
g2284
sg2278
I36
sg2279
I3
sg2280
I23
sg2281
I33
sg2282
I42
sa(dp2322
g2277
g2288
sg2278
I37
sg2279
I2
sg2280
I14
sg2281
I29
sg2282
I10
sa(dp2323
g2277
g2284
sg2278
I38
sg2279
I3
sg2280
I21
sg2281
I29
sg2282
I31
sa(dp2324
g2277
g2288
sg2278
I39
sg2279
I2
sg2280
I13
sg2281
I33
sg2282
I10
sa(dp2325
g2277
g2284
sg2278
I40
sg2279
I3
sg2280
I23
sg2281
I33
sg2282
I35
sa(dp2326
g2277
g2288
sg2278
I41
sg2279
I2
sg2280
I24
sg2281
I33
sg2282
I10
sa(dp2327
g2277
g2288
sg2278
I42
sg2279
I1
sg2280
I30
sg2281
I37
sg2282
I3
sa(dp2328
g2277
g2284
sg2278
I43
sg2279
I4
sg2280
I1
sg2281
I33
sg2282
I52
sa(dp2329
g2277
g2286
sg2278
I44
sg2279
I5
sg2280
I29
sg2281
I35
sg2282
I55
sa(dp2330
g2277
g2286
sg2278
I45
sg2279
I2
sg2280
I29
sg2281
I37
sg2282
I33
sa(dp2331
g2277
g2288
sg2278
I46
sg2279
I2
sg2280
I25
sg2281
I39
sg2282
I23
sa(dp2332
g2277
g2288
sg2278
I47
sg2279
I2
sg2280
I9
sg2281
I43
sg2282
I22
sa(dp2333
g2277
g2288
sg2278
I48
sg2279
I1
sg2280
I3
sg2281
I47
sg2282
I7
sa(dp2334
g2277
g2284
sg2278
I49
sg2279
I2
sg2280
I33
sg2281
I51
sg2282
I54
sa(dp2335
g2277
g2288
sg2278
I50
sg2279
I2
sg2280
I35
sg2281
I53
sg2282
I51
sa(dp2336
g2277
g2288
sg2278
I51
sg2279
I0
sg2280
I49
sg2281
I57
sg2282
I0
satRp2337
(dp2338
g168
I01
sg169
(lp2339
g2278
ag2281
ag2279
ag2282
ag2280
ag2277
asg171
Nsg172
I0
sg173
g174
(g13
tRp2340
sbsS'max_archive_size'
p2341
NsS'solution_found_flag'
p2342
I01
sS'time_taken'
p2343
F1.8069632053375244
sS'benchmark_name'
p2344
S'M_A4'
p2345
sa(dp2346
S'tree_str'
p2347
S'a4(a4(a4(a4(a4(a4(ARG1,ARG1),ARG1),ARG0),a4(a4(ARG2,ARG2),ARG1)),a4(a4(a4(ARG2,ARG0),a4(ARG0,ARG0)),a4(a4(ARG0,a4(a4(ARG1,ARG1),ARG1)),a4(a4(ARG0,ARG2),a4(ARG1,ARG0))))),a4(a4(ARG2,a4(ARG0,a4(ARG1,ARG0))),a4(ARG0,a4(ARG1,a4(ARG0,a4(ARG1,ARG2))))))'
p2348
sS'tree_len'
p2349
I55
sS'archive_size'
p2350
I130
sS'number_of_operators'
p2351
I27
sS'alg_name'
p2352
S'small-LTI'
p2353
sS'archive_tree_deapth'
p2354
I2
sS'logbook'
p2355
g12
(g13
g14
(lp2356
(dp2357
S'status'
p2358
NsS'iteration'
p2359
I0
sS'count_wrongs'
p2360
I6
sS'picked_node'
p2361
NsS'len_master_tree'
p2362
I1
sS'total_wrongs'
p2363
I6
sa(dp2364
g2358
S'worst'
p2365
sg2359
I1
sg2360
I7
sg2361
I0
sg2362
I5
sg2363
I32
sa(dp2366
g2358
S'better'
p2367
sg2359
I2
sg2360
I8
sg2361
I4
sg2362
I9
sg2363
I37
sa(dp2368
g2358
g2367
sg2359
I3
sg2360
I5
sg2361
I1
sg2362
I9
sg2363
I16
sa(dp2369
g2358
g2365
sg2359
I4
sg2360
I6
sg2361
I7
sg2362
I13
sg2363
I28
sa(dp2370
g2358
S'perfect'
p2371
sg2359
I5
sg2360
I5
sg2361
I4
sg2362
I17
sg2363
I20
sa(dp2372
g2358
g2365
sg2359
I6
sg2360
I6
sg2361
I4
sg2362
I13
sg2363
I25
sa(dp2373
g2358
g2371
sg2359
I7
sg2360
I5
sg2361
I5
sg2362
I9
sg2363
I16
sa(dp2374
g2358
g2365
sg2359
I8
sg2360
I6
sg2361
I7
sg2362
I13
sg2363
I26
sa(dp2375
g2358
g2371
sg2359
I9
sg2360
I5
sg2361
I7
sg2362
I17
sg2363
I18
sa(dp2376
g2358
g2365
sg2359
I10
sg2360
I6
sg2361
I5
sg2362
I13
sg2363
I25
sa(dp2377
g2358
g2367
sg2359
I11
sg2360
I5
sg2361
I3
sg2362
I9
sg2363
I16
sa(dp2378
g2358
g2365
sg2359
I12
sg2360
I6
sg2361
I8
sg2362
I13
sg2363
I26
sa(dp2379
g2358
g2371
sg2359
I13
sg2360
I5
sg2361
I5
sg2362
I17
sg2363
I18
sa(dp2380
g2358
g2365
sg2359
I14
sg2360
I6
sg2361
I7
sg2362
I13
sg2363
I25
sa(dp2381
g2358
g2371
sg2359
I15
sg2360
I5
sg2361
I7
sg2362
I9
sg2363
I16
sa(dp2382
g2358
g2365
sg2359
I16
sg2360
I5
sg2361
I6
sg2362
I13
sg2363
I32
sa(dp2383
g2358
g2367
sg2359
I17
sg2360
I5
sg2361
I8
sg2362
I9
sg2363
I16
sa(dp2384
g2358
g2365
sg2359
I18
sg2360
I6
sg2361
I6
sg2362
I13
sg2363
I26
sa(dp2385
g2358
g2371
sg2359
I19
sg2360
I5
sg2361
I6
sg2362
I17
sg2363
I18
sa(dp2386
g2358
g2365
sg2359
I20
sg2360
I5
sg2361
I6
sg2362
I17
sg2363
I36
sa(dp2387
g2358
g2371
sg2359
I21
sg2360
I4
sg2361
I9
sg2362
I17
sg2363
I9
sa(dp2388
g2358
g2365
sg2359
I22
sg2360
I4
sg2361
I2
sg2362
I21
sg2363
I51
sa(dp2389
g2358
g2367
sg2359
I23
sg2360
I4
sg2361
I16
sg2362
I17
sg2363
I9
sa(dp2390
g2358
g2365
sg2359
I24
sg2360
I4
sg2361
I16
sg2362
I21
sg2363
I51
sa(dp2391
g2358
g2367
sg2359
I25
sg2360
I4
sg2361
I4
sg2362
I21
sg2363
I41
sa(dp2392
g2358
g2367
sg2359
I26
sg2360
I5
sg2361
I10
sg2362
I25
sg2363
I56
sa(dp2393
g2358
g2371
sg2359
I27
sg2360
I4
sg2361
I7
sg2362
I29
sg2363
I35
sa(dp2394
g2358
g2367
sg2359
I28
sg2360
I3
sg2361
I2
sg2362
I33
sg2363
I34
sa(dp2395
g2358
g2365
sg2359
I29
sg2360
I4
sg2361
I29
sg2362
I37
sg2363
I62
sa(dp2396
g2358
g2371
sg2359
I30
sg2360
I3
sg2361
I17
sg2362
I41
sg2363
I35
sa(dp2397
g2358
g2365
sg2359
I31
sg2360
I4
sg2361
I31
sg2362
I37
sg2363
I50
sa(dp2398
g2358
g2371
sg2359
I32
sg2360
I3
sg2361
I15
sg2362
I33
sg2363
I34
sa(dp2399
g2358
g2365
sg2359
I33
sg2360
I4
sg2361
I16
sg2362
I37
sg2363
I52
sa(dp2400
g2358
g2367
sg2359
I34
sg2360
I3
sg2361
I32
sg2362
I33
sg2363
I34
sa(dp2401
g2358
g2365
sg2359
I35
sg2360
I4
sg2361
I32
sg2362
I37
sg2363
I52
sa(dp2402
g2358
g2367
sg2359
I36
sg2360
I3
sg2361
I33
sg2362
I41
sg2363
I38
sa(dp2403
g2358
g2371
sg2359
I37
sg2360
I2
sg2361
I38
sg2362
I45
sg2363
I19
sa(dp2404
g2358
g2365
sg2359
I38
sg2360
I3
sg2361
I15
sg2362
I33
sg2363
I34
sa(dp2405
g2358
g2365
sg2359
I39
sg2360
I4
sg2361
I24
sg2362
I37
sg2363
I62
sa(dp2406
g2358
g2371
sg2359
I40
sg2360
I4
sg2361
I14
sg2362
I41
sg2363
I61
sa(dp2407
g2358
g2371
sg2359
I41
sg2360
I3
sg2361
I25
sg2362
I45
sg2363
I35
sa(dp2408
g2358
g2365
sg2359
I42
sg2360
I4
sg2361
I30
sg2362
I41
sg2363
I49
sa(dp2409
g2358
g2371
sg2359
I43
sg2360
I3
sg2361
I11
sg2362
I33
sg2363
I34
sa(dp2410
g2358
g2365
sg2359
I44
sg2360
I4
sg2361
I21
sg2362
I37
sg2363
I52
sa(dp2411
g2358
g2367
sg2359
I45
sg2360
I3
sg2361
I20
sg2362
I33
sg2363
I34
sa(dp2412
g2358
g2365
sg2359
I46
sg2360
I4
sg2361
I9
sg2362
I37
sg2363
I64
sa(dp2413
g2358
g2371
sg2359
I47
sg2360
I4
sg2361
I3
sg2362
I35
sg2363
I53
sa(dp2414
g2358
g2367
sg2359
I48
sg2360
I4
sg2361
I4
sg2362
I31
sg2363
I49
sa(dp2415
g2358
g2367
sg2359
I49
sg2360
I3
sg2361
I29
sg2362
I35
sg2363
I38
sa(dp2416
g2358
g2365
sg2359
I50
sg2360
I4
sg2361
I30
sg2362
I31
sg2363
I49
sa(dp2417
g2358
g2367
sg2359
I51
sg2360
I3
sg2361
I30
sg2362
I35
sg2363
I38
sa(dp2418
g2358
g2365
sg2359
I52
sg2360
I4
sg2361
I28
sg2362
I31
sg2363
I49
sa(dp2419
g2358
g2367
sg2359
I53
sg2360
I3
sg2361
I29
sg2362
I35
sg2363
I38
sa(dp2420
g2358
g2365
sg2359
I54
sg2360
I3
sg2361
I9
sg2362
I33
sg2363
I60
sa(dp2421
g2358
g2367
sg2359
I55
sg2360
I3
sg2361
I17
sg2362
I35
sg2363
I59
sa(dp2422
g2358
g2371
sg2359
I56
sg2360
I3
sg2361
I34
sg2362
I39
sg2363
I38
sa(dp2423
g2358
g2371
sg2359
I57
sg2360
I2
sg2361
I28
sg2362
I41
sg2363
I10
sa(dp2424
g2358
g2365
sg2359
I58
sg2360
I3
sg2361
I5
sg2362
I41
sg2363
I50
sa(dp2425
g2358
g2371
sg2359
I59
sg2360
I2
sg2361
I28
sg2362
I37
sg2363
I10
sa(dp2426
g2358
g2365
sg2359
I60
sg2360
I3
sg2361
I31
sg2362
I37
sg2363
I42
sa(dp2427
g2358
g2371
sg2359
I61
sg2360
I2
sg2361
I32
sg2362
I37
sg2363
I10
sa(dp2428
g2358
g2365
sg2359
I62
sg2360
I3
sg2361
I4
sg2362
I37
sg2363
I46
sa(dp2429
g2358
g2371
sg2359
I63
sg2360
I2
sg2361
I10
sg2362
I37
sg2363
I10
sa(dp2430
g2358
g2365
sg2359
I64
sg2360
I3
sg2361
I29
sg2362
I37
sg2363
I42
sa(dp2431
g2358
g2371
sg2359
I65
sg2360
I2
sg2361
I31
sg2362
I37
sg2363
I10
sa(dp2432
g2358
g2365
sg2359
I66
sg2360
I3
sg2361
I31
sg2362
I37
sg2363
I46
sa(dp2433
g2358
g2371
sg2359
I67
sg2360
I2
sg2361
I29
sg2362
I37
sg2363
I10
sa(dp2434
g2358
g2365
sg2359
I68
sg2360
I3
sg2361
I27
sg2362
I37
sg2363
I42
sa(dp2435
g2358
g2371
sg2359
I69
sg2360
I2
sg2361
I27
sg2362
I37
sg2363
I10
sa(dp2436
g2358
g2365
sg2359
I70
sg2360
I3
sg2361
I29
sg2362
I37
sg2363
I46
sa(dp2437
g2358
g2371
sg2359
I71
sg2360
I2
sg2361
I29
sg2362
I39
sg2363
I10
sa(dp2438
g2358
g2365
sg2359
I72
sg2360
I3
sg2361
I27
sg2362
I39
sg2363
I24
sa(dp2439
g2358
g2367
sg2359
I73
sg2360
I2
sg2361
I34
sg2362
I39
sg2363
I10
sa(dp2440
g2358
g2365
sg2359
I74
sg2360
I3
sg2361
I34
sg2362
I39
sg2363
I41
sa(dp2441
g2358
g2371
sg2359
I75
sg2360
I2
sg2361
I27
sg2362
I37
sg2363
I10
sa(dp2442
g2358
g2365
sg2359
I76
sg2360
I3
sg2361
I27
sg2362
I37
sg2363
I47
sa(dp2443
g2358
g2371
sg2359
I77
sg2360
I2
sg2361
I4
sg2362
I37
sg2363
I11
sa(dp2444
g2358
g2367
sg2359
I78
sg2360
I2
sg2361
I30
sg2362
I41
sg2363
I14
sa(dp2445
g2358
g2365
sg2359
I79
sg2360
I2
sg2361
I36
sg2362
I37
sg2363
I11
sa(dp2446
g2358
g2367
sg2359
I80
sg2360
I2
sg2361
I36
sg2362
I41
sg2363
I14
sa(dp2447
g2358
g2365
sg2359
I81
sg2360
I2
sg2361
I36
sg2362
I41
sg2363
I18
sa(dp2448
g2358
g2367
sg2359
I82
sg2360
I2
sg2361
I39
sg2362
I45
sg2363
I18
sa(dp2449
g2358
g2365
sg2359
I83
sg2360
I2
sg2361
I36
sg2362
I41
sg2363
I18
sa(dp2450
g2358
g2365
sg2359
I84
sg2360
I3
sg2361
I28
sg2362
I41
sg2363
I55
sa(dp2451
g2358
g2371
sg2359
I85
sg2360
I3
sg2361
I24
sg2362
I41
sg2363
I52
sa(dp2452
g2358
g2367
sg2359
I86
sg2360
I2
sg2361
I37
sg2362
I41
sg2363
I18
sa(dp2453
g2358
g2367
sg2359
I87
sg2360
I2
sg2361
I32
sg2362
I41
sg2363
I14
sa(dp2454
g2358
g2365
sg2359
I88
sg2360
I3
sg2361
I35
sg2362
I41
sg2363
I52
sa(dp2455
g2358
g2367
sg2359
I89
sg2360
I2
sg2361
I40
sg2362
I41
sg2363
I14
sa(dp2456
g2358
g2365
sg2359
I90
sg2360
I2
sg2361
I35
sg2362
I41
sg2363
I18
sa(dp2457
g2358
g2365
sg2359
I91
sg2360
I3
sg2361
I40
sg2362
I45
sg2363
I59
sa(dp2458
g2358
g2371
sg2359
I92
sg2360
I2
sg2361
I22
sg2362
I45
sg2363
I22
sa(dp2459
g2358
g2367
sg2359
I93
sg2360
I2
sg2361
I34
sg2362
I49
sg2363
I22
sa(dp2460
g2358
g2365
sg2359
I94
sg2360
I3
sg2361
I31
sg2362
I41
sg2363
I42
sa(dp2461
g2358
g2371
sg2359
I95
sg2360
I2
sg2361
I31
sg2362
I41
sg2363
I14
sa(dp2462
g2358
g2365
sg2359
I96
sg2360
I2
sg2361
I31
sg2362
I41
sg2363
I18
sa(dp2463
g2358
g2365
sg2359
I97
sg2360
I3
sg2361
I22
sg2362
I37
sg2363
I40
sa(dp2464
g2358
g2367
sg2359
I98
sg2360
I2
sg2361
I33
sg2362
I37
sg2363
I11
sa(dp2465
g2358
g2365
sg2359
I99
sg2360
I3
sg2361
I32
sg2362
I37
sg2363
I47
sa(dp2466
g2358
g2371
sg2359
I100
sg2360
I2
sg2361
I27
sg2362
I37
sg2363
I10
sa(dp2467
g2358
g2365
sg2359
I101
sg2360
I3
sg2361
I27
sg2362
I37
sg2363
I46
sa(dp2468
g2358
g2371
sg2359
I102
sg2360
I2
sg2361
I27
sg2362
I35
sg2363
I10
sa(dp2469
g2358
g2365
sg2359
I103
sg2360
I3
sg2361
I30
sg2362
I39
sg2363
I43
sa(dp2470
g2358
g2371
sg2359
I104
sg2360
I3
sg2361
I33
sg2362
I39
sg2363
I36
sa(dp2471
g2358
g2371
sg2359
I105
sg2360
I2
sg2361
I17
sg2362
I43
sg2363
I18
sa(dp2472
g2358
g2365
sg2359
I106
sg2360
I3
sg2361
I26
sg2362
I39
sg2363
I47
sa(dp2473
g2358
g2371
sg2359
I107
sg2360
I2
sg2361
I15
sg2362
I35
sg2363
I10
sa(dp2474
g2358
g2365
sg2359
I108
sg2360
I3
sg2361
I23
sg2362
I35
sg2363
I40
sa(dp2475
g2358
g2371
sg2359
I109
sg2360
I2
sg2361
I20
sg2362
I37
sg2363
I10
sa(dp2476
g2358
g2365
sg2359
I110
sg2360
I3
sg2361
I31
sg2362
I41
sg2363
I77
sa(dp2477
g2358
g2371
sg2359
I111
sg2360
I1
sg2361
I31
sg2362
I41
sg2363
I9
sa(dp2478
g2358
g2365
sg2359
I112
sg2360
I2
sg2361
I33
sg2362
I41
sg2363
I49
sa(dp2479
g2358
g2371
sg2359
I113
sg2360
I2
sg2361
I34
sg2362
I45
sg2363
I44
sa(dp2480
g2358
g2371
sg2359
I114
sg2360
I1
sg2361
I7
sg2362
I49
sg2363
I9
sa(dp2481
g2358
g2371
sg2359
I115
sg2360
I1
sg2361
I38
sg2362
I49
sg2363
I8
sa(dp2482
g2358
g2365
sg2359
I116
sg2360
I2
sg2361
I36
sg2362
I49
sg2363
I55
sa(dp2483
g2358
g2371
sg2359
I117
sg2360
I1
sg2361
I36
sg2362
I45
sg2363
I9
sa(dp2484
g2358
g2365
sg2359
I118
sg2360
I2
sg2361
I41
sg2362
I45
sg2363
I48
sa(dp2485
g2358
g2371
sg2359
I119
sg2360
I1
sg2361
I35
sg2362
I49
sg2363
I9
sa(dp2486
g2358
g2371
sg2359
I120
sg2360
I1
sg2361
I43
sg2362
I49
sg2363
I8
sa(dp2487
g2358
g2365
sg2359
I121
sg2360
I2
sg2361
I30
sg2362
I49
sg2363
I54
sa(dp2488
g2358
g2371
sg2359
I122
sg2360
I1
sg2361
I39
sg2362
I45
sg2363
I9
sa(dp2489
g2358
g2365
sg2359
I123
sg2360
I2
sg2361
I42
sg2362
I45
sg2363
I48
sa(dp2490
g2358
g2371
sg2359
I124
sg2360
I1
sg2361
I22
sg2362
I49
sg2363
I9
sa(dp2491
g2358
g2371
sg2359
I125
sg2360
I1
sg2361
I41
sg2362
I49
sg2363
I8
sa(dp2492
g2358
g2365
sg2359
I126
sg2360
I2
sg2361
I38
sg2362
I49
sg2363
I53
sa(dp2493
g2358
g2371
sg2359
I127
sg2360
I1
sg2361
I20
sg2362
I45
sg2363
I9
sa(dp2494
g2358
g2365
sg2359
I128
sg2360
I2
sg2361
I39
sg2362
I45
sg2363
I47
sa(dp2495
g2358
g2371
sg2359
I129
sg2360
I1
sg2361
I27
sg2362
I41
sg2363
I8
sa(dp2496
g2358
g2365
sg2359
I130
sg2360
I2
sg2361
I37
sg2362
I41
sg2363
I47
sa(dp2497
g2358
g2371
sg2359
I131
sg2360
I1
sg2361
I37
sg2362
I45
sg2363
I9
sa(dp2498
g2358
g2365
sg2359
I132
sg2360
I2
sg2361
I37
sg2362
I45
sg2363
I47
sa(dp2499
g2358
g2371
sg2359
I133
sg2360
I1
sg2361
I41
sg2362
I49
sg2363
I8
sa(dp2500
g2358
g2365
sg2359
I134
sg2360
I2
sg2361
I41
sg2362
I49
sg2363
I54
sa(dp2501
g2358
g2371
sg2359
I135
sg2360
I1
sg2361
I36
sg2362
I53
sg2363
I9
sa(dp2502
g2358
g2365
sg2359
I136
sg2360
I2
sg2361
I45
sg2362
I53
sg2363
I60
sa(dp2503
g2358
g2371
sg2359
I137
sg2360
I1
sg2361
I34
sg2362
I49
sg2363
I9
sa(dp2504
g2358
g2371
sg2359
I138
sg2360
I1
sg2361
I45
sg2362
I49
sg2363
I8
sa(dp2505
g2358
g2365
sg2359
I139
sg2360
I2
sg2361
I43
sg2362
I49
sg2363
I54
sa(dp2506
g2358
g2371
sg2359
I140
sg2360
I1
sg2361
I34
sg2362
I45
sg2363
I9
sa(dp2507
g2358
g2365
sg2359
I141
sg2360
I2
sg2361
I37
sg2362
I45
sg2363
I48
sa(dp2508
g2358
g2371
sg2359
I142
sg2360
I1
sg2361
I36
sg2362
I49
sg2363
I9
sa(dp2509
g2358
g2371
sg2359
I143
sg2360
I1
sg2361
I43
sg2362
I53
sg2363
I8
sa(dp2510
g2358
g2365
sg2359
I144
sg2360
I2
sg2361
I32
sg2362
I49
sg2363
I53
sa(dp2511
g2358
g2371
sg2359
I145
sg2360
I1
sg2361
I39
sg2362
I45
sg2363
I9
sa(dp2512
g2358
g2365
sg2359
I146
sg2360
I2
sg2361
I41
sg2362
I45
sg2363
I47
sa(dp2513
g2358
g2371
sg2359
I147
sg2360
I1
sg2361
I34
sg2362
I41
sg2363
I8
sa(dp2514
g2358
g2365
sg2359
I148
sg2360
I2
sg2361
I34
sg2362
I41
sg2363
I47
sa(dp2515
g2358
g2371
sg2359
I149
sg2360
I1
sg2361
I35
sg2362
I45
sg2363
I9
sa(dp2516
g2358
g2365
sg2359
I150
sg2360
I2
sg2361
I35
sg2362
I45
sg2363
I48
sa(dp2517
g2358
g2371
sg2359
I151
sg2360
I1
sg2361
I35
sg2362
I41
sg2363
I9
sa(dp2518
g2358
g2371
sg2359
I152
sg2360
I1
sg2361
I39
sg2362
I45
sg2363
I8
sa(dp2519
g2358
g2365
sg2359
I153
sg2360
I2
sg2361
I35
sg2362
I41
sg2363
I47
sa(dp2520
g2358
g2371
sg2359
I154
sg2360
I1
sg2361
I34
sg2362
I45
sg2363
I9
sa(dp2521
g2358
g2365
sg2359
I155
sg2360
I2
sg2361
I35
sg2362
I45
sg2363
I52
sa(dp2522
g2358
g2371
sg2359
I156
sg2360
I1
sg2361
I19
sg2362
I41
sg2363
I8
sa(dp2523
g2358
g2365
sg2359
I157
sg2360
I2
sg2361
I31
sg2362
I41
sg2363
I47
sa(dp2524
g2358
g2371
sg2359
I158
sg2360
I1
sg2361
I28
sg2362
I45
sg2363
I9
sa(dp2525
g2358
g2365
sg2359
I159
sg2360
I2
sg2361
I38
sg2362
I45
sg2363
I48
sa(dp2526
g2358
g2371
sg2359
I160
sg2360
I1
sg2361
I40
sg2362
I49
sg2363
I9
sa(dp2527
g2358
g2371
sg2359
I161
sg2360
I1
sg2361
I38
sg2362
I53
sg2363
I8
sa(dp2528
g2358
g2365
sg2359
I162
sg2360
I2
sg2361
I28
sg2362
I49
sg2363
I55
sa(dp2529
g2358
g2371
sg2359
I163
sg2360
I1
sg2361
I41
sg2362
I49
sg2363
I9
sa(dp2530
g2358
g2365
sg2359
I164
sg2360
I2
sg2361
I43
sg2362
I49
sg2363
I51
sa(dp2531
g2358
g2371
sg2359
I165
sg2360
I1
sg2361
I39
sg2362
I49
sg2363
I9
sa(dp2532
g2358
g2371
sg2359
I166
sg2360
I1
sg2361
I43
sg2362
I53
sg2363
I8
sa(dp2533
g2358
g2365
sg2359
I167
sg2360
I2
sg2361
I39
sg2362
I49
sg2363
I55
sa(dp2534
g2358
g2371
sg2359
I168
sg2360
I1
sg2361
I39
sg2362
I49
sg2363
I9
sa(dp2535
g2358
g2365
sg2359
I169
sg2360
I2
sg2361
I39
sg2362
I49
sg2363
I50
sa(dp2536
g2358
g2371
sg2359
I170
sg2360
I1
sg2361
I39
sg2362
I49
sg2363
I8
sa(dp2537
g2358
g2365
sg2359
I171
sg2360
I2
sg2361
I20
sg2362
I53
sg2363
I43
sa(dp2538
g2358
g2371
sg2359
I172
sg2360
I1
sg2361
I34
sg2362
I51
sg2363
I9
sa(dp2539
g2358
g2371
sg2359
I173
sg2360
I0
sg2361
I43
sg2362
I55
sg2363
I0
satRp2540
(dp2541
g168
I01
sg169
(lp2542
g2359
ag2362
ag2360
ag2363
ag2361
ag2358
asg171
Nsg172
I0
sg173
g174
(g13
tRp2543
sbsS'max_archive_size'
p2544
NsS'solution_found_flag'
p2545
I01
sS'time_taken'
p2546
F3.8247489929199219
sS'benchmark_name'
p2547
S'M_A4'
p2548
sa(dp2549
S'tree_str'
p2550
S'a4(a4(a4(ARG2,a4(ARG1,a4(ARG1,a4(ARG2,ARG0)))),a4(a4(a4(a4(a4(ARG0,ARG2),a4(ARG0,ARG1)),ARG1),ARG1),a4(a4(a4(ARG1,ARG1),ARG1),ARG2))),a4(a4(a4(a4(ARG0,ARG1),ARG0),a4(a4(ARG2,ARG1),ARG1)),a4(ARG1,a4(ARG2,a4(a4(ARG2,ARG1),ARG1)))))'
p2551
sS'tree_len'
p2552
I51
sS'archive_size'
p2553
I130
sS'number_of_operators'
p2554
I25
sS'alg_name'
p2555
S'small-LTI'
p2556
sS'archive_tree_deapth'
p2557
I2
sS'logbook'
p2558
g12
(g13
g14
(lp2559
(dp2560
S'status'
p2561
NsS'iteration'
p2562
I0
sS'count_wrongs'
p2563
I6
sS'picked_node'
p2564
NsS'len_master_tree'
p2565
I1
sS'total_wrongs'
p2566
I6
sa(dp2567
g2561
S'worst'
p2568
sg2562
I1
sg2563
I7
sg2564
I0
sg2565
I5
sg2566
I32
sa(dp2569
g2561
S'better'
p2570
sg2562
I2
sg2563
I7
sg2564
I4
sg2565
I9
sg2566
I34
sa(dp2571
g2561
g2570
sg2562
I3
sg2563
I8
sg2564
I1
sg2565
I9
sg2566
I45
sa(dp2572
g2561
g2570
sg2562
I4
sg2563
I5
sg2564
I3
sg2565
I9
sg2566
I16
sa(dp2573
g2561
g2568
sg2562
I5
sg2563
I5
sg2564
I7
sg2565
I13
sg2566
I32
sa(dp2574
g2561
g2570
sg2562
I6
sg2563
I5
sg2564
I4
sg2565
I9
sg2566
I16
sa(dp2575
g2561
g2568
sg2562
I7
sg2563
I6
sg2564
I8
sg2565
I13
sg2566
I28
sa(dp2576
g2561
S'perfect'
p2577
sg2562
I8
sg2563
I5
sg2564
I5
sg2565
I17
sg2566
I20
sa(dp2578
g2561
g2568
sg2562
I9
sg2563
I6
sg2564
I7
sg2565
I13
sg2566
I25
sa(dp2579
g2561
g2577
sg2562
I10
sg2563
I5
sg2564
I7
sg2565
I9
sg2566
I16
sa(dp2580
g2561
g2568
sg2562
I11
sg2563
I5
sg2564
I6
sg2565
I13
sg2566
I32
sa(dp2581
g2561
g2570
sg2562
I12
sg2563
I5
sg2564
I5
sg2565
I9
sg2566
I16
sa(dp2582
g2561
g2568
sg2562
I13
sg2563
I5
sg2564
I7
sg2565
I13
sg2566
I32
sa(dp2583
g2561
g2570
sg2562
I14
sg2563
I5
sg2564
I8
sg2565
I9
sg2566
I16
sa(dp2584
g2561
g2568
sg2562
I15
sg2563
I5
sg2564
I8
sg2565
I13
sg2566
I32
sa(dp2585
g2561
g2570
sg2562
I16
sg2563
I5
sg2564
I6
sg2565
I9
sg2566
I16
sa(dp2586
g2561
g2568
sg2562
I17
sg2563
I6
sg2564
I8
sg2565
I13
sg2566
I26
sa(dp2587
g2561
g2570
sg2562
I18
sg2563
I5
sg2564
I8
sg2565
I9
sg2566
I16
sa(dp2588
g2561
g2568
sg2562
I19
sg2563
I6
sg2564
I4
sg2565
I9
sg2566
I33
sa(dp2589
g2561
g2570
sg2562
I20
sg2563
I5
sg2564
I7
sg2565
I13
sg2566
I19
sa(dp2590
g2561
g2568
sg2562
I21
sg2563
I6
sg2564
I8
sg2565
I13
sg2566
I32
sa(dp2591
g2561
g2577
sg2562
I22
sg2563
I5
sg2564
I5
sg2565
I13
sg2566
I21
sa(dp2592
g2561
g2568
sg2562
I23
sg2563
I5
sg2564
I9
sg2565
I13
sg2566
I32
sa(dp2593
g2561
g2570
sg2562
I24
sg2563
I5
sg2564
I7
sg2565
I13
sg2566
I21
sa(dp2594
g2561
g2568
sg2562
I25
sg2563
I5
sg2564
I10
sg2565
I13
sg2566
I32
sa(dp2595
g2561
g2570
sg2562
I26
sg2563
I5
sg2564
I8
sg2565
I13
sg2566
I20
sa(dp2596
g2561
g2568
sg2562
I27
sg2563
I5
sg2564
I8
sg2565
I13
sg2566
I32
sa(dp2597
g2561
g2570
sg2562
I28
sg2563
I5
sg2564
I8
sg2565
I13
sg2566
I22
sa(dp2598
g2561
g2568
sg2562
I29
sg2563
I5
sg2564
I10
sg2565
I13
sg2566
I32
sa(dp2599
g2561
g2570
sg2562
I30
sg2563
I5
sg2564
I8
sg2565
I13
sg2566
I21
sa(dp2600
g2561
g2568
sg2562
I31
sg2563
I6
sg2564
I9
sg2565
I17
sg2566
I34
sa(dp2601
g2561
g2570
sg2562
I32
sg2563
I5
sg2564
I12
sg2565
I13
sg2566
I21
sa(dp2602
g2561
g2568
sg2562
I33
sg2563
I5
sg2564
I10
sg2565
I13
sg2566
I32
sa(dp2603
g2561
g2570
sg2562
I34
sg2563
I5
sg2564
I12
sg2565
I13
sg2566
I21
sa(dp2604
g2561
g2568
sg2562
I35
sg2563
I5
sg2564
I12
sg2565
I17
sg2566
I40
sa(dp2605
g2561
g2570
sg2562
I36
sg2563
I5
sg2564
I9
sg2565
I13
sg2566
I20
sa(dp2606
g2561
g2568
sg2562
I37
sg2563
I6
sg2564
I12
sg2565
I17
sg2566
I33
sa(dp2607
g2561
g2577
sg2562
I38
sg2563
I5
sg2564
I7
sg2565
I21
sg2566
I22
sa(dp2608
g2561
g2568
sg2562
I39
sg2563
I6
sg2564
I9
sg2565
I17
sg2566
I34
sa(dp2609
g2561
g2577
sg2562
I40
sg2563
I5
sg2564
I9
sg2565
I13
sg2566
I21
sa(dp2610
g2561
g2568
sg2562
I41
sg2563
I5
sg2564
I10
sg2565
I17
sg2566
I40
sa(dp2611
g2561
g2570
sg2562
I42
sg2563
I5
sg2564
I7
sg2565
I13
sg2566
I20
sa(dp2612
g2561
g2568
sg2562
I43
sg2563
I6
sg2564
I6
sg2565
I17
sg2566
I30
sa(dp2613
g2561
g2577
sg2562
I44
sg2563
I5
sg2564
I6
sg2565
I21
sg2566
I22
sa(dp2614
g2561
g2568
sg2562
I45
sg2563
I6
sg2564
I11
sg2565
I17
sg2566
I33
sa(dp2615
g2561
g2577
sg2562
I46
sg2563
I5
sg2564
I11
sg2565
I13
sg2566
I20
sa(dp2616
g2561
g2568
sg2562
I47
sg2563
I5
sg2564
I6
sg2565
I13
sg2566
I32
sa(dp2617
g2561
g2570
sg2562
I48
sg2563
I5
sg2564
I8
sg2565
I13
sg2566
I20
sa(dp2618
g2561
g2568
sg2562
I49
sg2563
I6
sg2564
I9
sg2565
I17
sg2566
I35
sa(dp2619
g2561
g2570
sg2562
I50
sg2563
I5
sg2564
I11
sg2565
I21
sg2566
I23
sa(dp2620
g2561
g2568
sg2562
I51
sg2563
I6
sg2564
I16
sg2565
I17
sg2566
I35
sa(dp2621
g2561
g2570
sg2562
I52
sg2563
I5
sg2564
I11
sg2565
I13
sg2566
I20
sa(dp2622
g2561
g2568
sg2562
I53
sg2563
I6
sg2564
I12
sg2565
I17
sg2566
I36
sa(dp2623
g2561
g2577
sg2562
I54
sg2563
I5
sg2564
I15
sg2565
I21
sg2566
I21
sa(dp2624
g2561
g2577
sg2562
I55
sg2563
I4
sg2564
I11
sg2565
I25
sg2566
I9
sa(dp2625
g2561
g2568
sg2562
I56
sg2563
I4
sg2564
I2
sg2565
I29
sg2566
I65
sa(dp2626
g2561
g2570
sg2562
I57
sg2563
I4
sg2564
I24
sg2565
I25
sg2566
I9
sa(dp2627
g2561
g2568
sg2562
I58
sg2563
I4
sg2564
I24
sg2565
I29
sg2566
I65
sa(dp2628
g2561
g2570
sg2562
I59
sg2563
I5
sg2564
I10
sg2565
I27
sg2566
I51
sa(dp2629
g2561
g2577
sg2562
I60
sg2563
I4
sg2564
I21
sg2565
I29
sg2566
I25
sa(dp2630
g2561
g2568
sg2562
I61
sg2563
I6
sg2564
I1
sg2565
I9
sg2566
I37
sa(dp2631
g2561
g2570
sg2562
I62
sg2563
I6
sg2564
I8
sg2565
I13
sg2566
I42
sa(dp2632
g2561
g2570
sg2562
I63
sg2563
I6
sg2564
I5
sg2565
I17
sg2566
I37
sa(dp2633
g2561
g2577
sg2562
I64
sg2563
I6
sg2564
I16
sg2565
I17
sg2566
I36
sa(dp2634
g2561
g2570
sg2562
I65
sg2563
I6
sg2564
I1
sg2565
I21
sg2566
I41
sa(dp2635
g2561
g2570
sg2562
I66
sg2563
I4
sg2564
I19
sg2565
I25
sg2566
I32
sa(dp2636
g2561
g2577
sg2562
I67
sg2563
I4
sg2564
I24
sg2565
I29
sg2566
I31
sa(dp2637
g2561
g2568
sg2562
I68
sg2563
I5
sg2564
I20
sg2565
I25
sg2566
I56
sa(dp2638
g2561
g2570
sg2562
I69
sg2563
I4
sg2564
I22
sg2565
I25
sg2566
I32
sa(dp2639
g2561
g2568
sg2562
I70
sg2563
I5
sg2564
I11
sg2565
I25
sg2566
I55
sa(dp2640
g2561
g2570
sg2562
I71
sg2563
I5
sg2564
I14
sg2565
I25
sg2566
I64
sa(dp2641
g2561
g2577
sg2562
I72
sg2563
I5
sg2564
I18
sg2565
I29
sg2566
I63
sa(dp2642
g2561
g2570
sg2562
I73
sg2563
I5
sg2564
I22
sg2565
I29
sg2566
I62
sa(dp2643
g2561
g2577
sg2562
I74
sg2563
I5
sg2564
I21
sg2565
I33
sg2566
I55
sa(dp2644
g2561
g2570
sg2562
I75
sg2563
I4
sg2564
I18
sg2565
I29
sg2566
I43
sa(dp2645
g2561
g2577
sg2562
I76
sg2563
I4
sg2564
I28
sg2565
I29
sg2566
I42
sa(dp2646
g2561
g2577
sg2562
I77
sg2563
I4
sg2564
I10
sg2565
I33
sg2566
I41
sa(dp2647
g2561
g2568
sg2562
I78
sg2563
I5
sg2564
I25
sg2565
I33
sg2566
I73
sa(dp2648
g2561
g2570
sg2562
I79
sg2563
I4
sg2564
I23
sg2565
I33
sg2566
I41
sa(dp2649
g2561
g2568
sg2562
I80
sg2563
I5
sg2564
I30
sg2565
I33
sg2566
I73
sa(dp2650
g2561
g2570
sg2562
I81
sg2563
I4
sg2564
I31
sg2565
I33
sg2566
I42
sa(dp2651
g2561
g2577
sg2562
I82
sg2563
I4
sg2564
I31
sg2565
I33
sg2566
I41
sa(dp2652
g2561
g2568
sg2562
I83
sg2563
I5
sg2564
I16
sg2565
I33
sg2566
I68
sa(dp2653
g2561
g2577
sg2562
I84
sg2563
I3
sg2564
I19
sg2565
I33
sg2566
I23
sa(dp2654
g2561
g2568
sg2562
I85
sg2563
I4
sg2564
I24
sg2565
I33
sg2566
I43
sa(dp2655
g2561
g2570
sg2562
I86
sg2563
I3
sg2564
I28
sg2565
I33
sg2566
I23
sa(dp2656
g2561
g2568
sg2562
I87
sg2563
I4
sg2564
I28
sg2565
I33
sg2566
I43
sa(dp2657
g2561
g2570
sg2562
I88
sg2563
I3
sg2564
I28
sg2565
I33
sg2566
I24
sa(dp2658
g2561
g2577
sg2562
I89
sg2563
I3
sg2564
I32
sg2565
I33
sg2566
I23
sa(dp2659
g2561
g2568
sg2562
I90
sg2563
I4
sg2564
I28
sg2565
I33
sg2566
I55
sa(dp2660
g2561
g2577
sg2562
I91
sg2563
I3
sg2564
I20
sg2565
I37
sg2566
I22
sa(dp2661
g2561
g2568
sg2562
I92
sg2563
I3
sg2564
I6
sg2565
I25
sg2566
I22
sa(dp2662
g2561
g2568
sg2562
I93
sg2563
I5
sg2564
I21
sg2565
I25
sg2566
I51
sa(dp2663
g2561
g2577
sg2562
I94
sg2563
I4
sg2564
I14
sg2565
I29
sg2566
I26
sa(dp2664
g2561
g2568
sg2562
I95
sg2563
I4
sg2564
I21
sg2565
I29
sg2566
I50
sa(dp2665
g2561
g2577
sg2562
I96
sg2563
I3
sg2564
I21
sg2565
I25
sg2566
I22
sa(dp2666
g2561
g2568
sg2562
I97
sg2563
I5
sg2564
I21
sg2565
I25
sg2566
I51
sa(dp2667
g2561
g2577
sg2562
I98
sg2563
I4
sg2564
I21
sg2565
I29
sg2566
I26
sa(dp2668
g2561
g2568
sg2562
I99
sg2563
I4
sg2564
I18
sg2565
I29
sg2566
I50
sa(dp2669
g2561
g2577
sg2562
I100
sg2563
I3
sg2564
I13
sg2565
I25
sg2566
I22
sa(dp2670
g2561
g2568
sg2562
I101
sg2563
I5
sg2564
I15
sg2565
I25
sg2566
I51
sa(dp2671
g2561
g2577
sg2562
I102
sg2563
I4
sg2564
I16
sg2565
I29
sg2566
I26
sa(dp2672
g2561
g2568
sg2562
I103
sg2563
I4
sg2564
I19
sg2565
I29
sg2566
I50
sa(dp2673
g2561
g2577
sg2562
I104
sg2563
I3
sg2564
I19
sg2565
I25
sg2566
I22
sa(dp2674
g2561
g2568
sg2562
I105
sg2563
I5
sg2564
I19
sg2565
I25
sg2566
I51
sa(dp2675
g2561
g2577
sg2562
I106
sg2563
I3
sg2564
I21
sg2565
I29
sg2566
I15
sa(dp2676
g2561
g2568
sg2562
I107
sg2563
I4
sg2564
I3
sg2565
I33
sg2566
I49
sa(dp2677
g2561
g2577
sg2562
I108
sg2563
I2
sg2564
I19
sg2565
I29
sg2566
I8
sa(dp2678
g2561
g2568
sg2562
I109
sg2563
I3
sg2564
I13
sg2565
I33
sg2566
I24
sa(dp2679
g2561
g2577
sg2562
I110
sg2563
I2
sg2564
I19
sg2565
I37
sg2566
I12
sa(dp2680
g2561
g2568
sg2562
I111
sg2563
I3
sg2564
I3
sg2565
I33
sg2566
I22
sa(dp2681
g2561
g2577
sg2562
I112
sg2563
I2
sg2564
I16
sg2565
I29
sg2566
I8
sa(dp2682
g2561
g2568
sg2562
I113
sg2563
I3
sg2564
I23
sg2565
I33
sg2566
I24
sa(dp2683
g2561
g2577
sg2562
I114
sg2563
I2
sg2564
I27
sg2565
I37
sg2566
I12
sa(dp2684
g2561
g2568
sg2562
I115
sg2563
I3
sg2564
I21
sg2565
I33
sg2566
I22
sa(dp2685
g2561
g2577
sg2562
I116
sg2563
I2
sg2564
I21
sg2565
I29
sg2566
I8
sa(dp2686
g2561
g2568
sg2562
I117
sg2563
I4
sg2564
I1
sg2565
I21
sg2566
I26
sa(dp2687
g2561
g2568
sg2562
I118
sg2563
I7
sg2564
I17
sg2565
I23
sg2566
I63
sa(dp2688
g2561
g2570
sg2562
I119
sg2563
I4
sg2564
I20
sg2565
I21
sg2566
I26
sa(dp2689
g2561
g2568
sg2562
I120
sg2563
I7
sg2564
I20
sg2565
I23
sg2566
I63
sa(dp2690
g2561
g2570
sg2562
I121
sg2563
I4
sg2564
I22
sg2565
I25
sg2566
I34
sa(dp2691
g2561
g2568
sg2562
I122
sg2563
I7
sg2564
I20
sg2565
I23
sg2566
I65
sa(dp2692
g2561
g2570
sg2562
I123
sg2563
I3
sg2564
I17
sg2565
I25
sg2566
I19
sa(dp2693
g2561
g2570
sg2562
I124
sg2563
I3
sg2564
I24
sg2565
I29
sg2566
I22
sa(dp2694
g2561
g2568
sg2562
I125
sg2563
I3
sg2564
I15
sg2565
I25
sg2566
I28
sa(dp2695
g2561
g2570
sg2562
I126
sg2563
I3
sg2564
I24
sg2565
I29
sg2566
I22
sa(dp2696
g2561
g2568
sg2562
I127
sg2563
I3
sg2564
I19
sg2565
I25
sg2566
I19
sa(dp2697
g2561
g2568
sg2562
I128
sg2563
I3
sg2564
I19
sg2565
I21
sg2566
I24
sa(dp2698
g2561
g2570
sg2562
I129
sg2563
I3
sg2564
I20
sg2565
I25
sg2566
I19
sa(dp2699
g2561
g2570
sg2562
I130
sg2563
I3
sg2564
I19
sg2565
I29
sg2566
I22
sa(dp2700
g2561
g2568
sg2562
I131
sg2563
I3
sg2564
I24
sg2565
I25
sg2566
I19
sa(dp2701
g2561
g2568
sg2562
I132
sg2563
I4
sg2564
I20
sg2565
I29
sg2566
I38
sa(dp2702
g2561
g2577
sg2562
I133
sg2563
I4
sg2564
I21
sg2565
I33
sg2566
I35
sa(dp2703
g2561
g2577
sg2562
I134
sg2563
I2
sg2564
I26
sg2565
I39
sg2566
I10
sa(dp2704
g2561
g2568
sg2562
I135
sg2563
I3
sg2564
I22
sg2565
I43
sg2566
I50
sa(dp2705
g2561
g2577
sg2562
I136
sg2563
I2
sg2564
I13
sg2565
I47
sg2566
I14
sa(dp2706
g2561
g2577
sg2562
I137
sg2563
I1
sg2564
I17
sg2565
I51
sg2566
I3
sa(dp2707
g2561
g2568
sg2562
I138
sg2563
I3
sg2564
I1
sg2565
I41
sg2566
I32
sa(dp2708
g2561
g2570
sg2562
I139
sg2563
I3
sg2564
I40
sg2565
I45
sg2566
I24
sa(dp2709
g2561
g2577
sg2562
I140
sg2563
I2
sg2564
I36
sg2565
I51
sg2566
I17
sa(dp2710
g2561
g2568
sg2562
I141
sg2563
I3
sg2564
I40
sg2565
I51
sg2566
I59
sa(dp2711
g2561
g2577
sg2562
I142
sg2563
I2
sg2564
I24
sg2565
I51
sg2566
I17
sa(dp2712
g2561
g2568
sg2562
I143
sg2563
I3
sg2564
I45
sg2565
I51
sg2566
I56
sa(dp2713
g2561
g2577
sg2562
I144
sg2563
I2
sg2564
I27
sg2565
I51
sg2566
I17
sa(dp2714
g2561
g2568
sg2562
I145
sg2563
I3
sg2564
I49
sg2565
I51
sg2566
I55
sa(dp2715
g2561
g2577
sg2562
I146
sg2563
I2
sg2564
I26
sg2565
I51
sg2566
I17
sa(dp2716
g2561
g2568
sg2562
I147
sg2563
I3
sg2564
I47
sg2565
I51
sg2566
I56
sa(dp2717
g2561
g2577
sg2562
I148
sg2563
I2
sg2564
I24
sg2565
I51
sg2566
I17
sa(dp2718
g2561
g2568
sg2562
I149
sg2563
I3
sg2564
I45
sg2565
I51
sg2566
I55
sa(dp2719
g2561
g2577
sg2562
I150
sg2563
I2
sg2564
I48
sg2565
I51
sg2566
I17
sa(dp2720
g2561
g2568
sg2562
I151
sg2563
I3
sg2564
I49
sg2565
I51
sg2566
I56
sa(dp2721
g2561
g2577
sg2562
I152
sg2563
I2
sg2564
I45
sg2565
I51
sg2566
I17
sa(dp2722
g2561
g2568
sg2562
I153
sg2563
I2
sg2564
I45
sg2565
I55
sg2566
I33
sa(dp2723
g2561
g2577
sg2562
I154
sg2563
I1
sg2564
I25
sg2565
I51
sg2566
I13
sa(dp2724
g2561
g2568
sg2562
I155
sg2563
I3
sg2564
I41
sg2565
I47
sg2566
I28
sa(dp2725
g2561
g2577
sg2562
I156
sg2563
I2
sg2564
I42
sg2565
I51
sg2566
I17
sa(dp2726
g2561
g2577
sg2562
I157
sg2563
I1
sg2564
I45
sg2565
I55
sg2566
I8
sa(dp2727
g2561
g2568
sg2562
I158
sg2563
I2
sg2564
I27
sg2565
I47
sg2566
I10
sa(dp2728
g2561
g2568
sg2562
I159
sg2563
I3
sg2564
I24
sg2565
I41
sg2566
I32
sa(dp2729
g2561
g2570
sg2562
I160
sg2563
I2
sg2564
I39
sg2565
I45
sg2566
I21
sa(dp2730
g2561
g2570
sg2562
I161
sg2563
I2
sg2564
I35
sg2565
I47
sg2566
I26
sa(dp2731
g2561
g2568
sg2562
I162
sg2563
I2
sg2564
I2
sg2565
I39
sg2566
I35
sa(dp2732
g2561
g2570
sg2562
I163
sg2563
I3
sg2564
I38
sg2565
I43
sg2566
I62
sa(dp2733
g2561
g2577
sg2562
I164
sg2563
I1
sg2564
I31
sg2565
I45
sg2566
I9
sa(dp2734
g2561
g2568
sg2562
I165
sg2563
I2
sg2564
I23
sg2565
I47
sg2566
I46
sa(dp2735
g2561
g2570
sg2562
I166
sg2563
I1
sg2564
I44
sg2565
I45
sg2566
I9
sa(dp2736
g2561
g2568
sg2562
I167
sg2563
I2
sg2564
I44
sg2565
I47
sg2566
I46
sa(dp2737
g2561
g2570
sg2562
I168
sg2563
I2
sg2564
I46
sg2565
I49
sg2566
I28
sa(dp2738
g2561
g2577
sg2562
I169
sg2563
I1
sg2564
I47
sg2565
I55
sg2566
I15
sa(dp2739
g2561
g2568
sg2562
I170
sg2563
I2
sg2564
I44
sg2565
I49
sg2566
I52
sa(dp2740
g2561
g2577
sg2562
I171
sg2563
I0
sg2564
I41
sg2565
I51
sg2566
I0
satRp2741
(dp2742
g168
I01
sg169
(lp2743
g2562
ag2565
ag2563
ag2566
ag2564
ag2561
asg171
Nsg172
I0
sg173
g174
(g13
tRp2744
sbsS'max_archive_size'
p2745
NsS'solution_found_flag'
p2746
I01
sS'time_taken'
p2747
F4.083827018737793
sS'benchmark_name'
p2748
S'M_A4'
p2749
sa(dp2750
S'tree_str'
p2751
S'a4(a4(a4(a4(a4(ARG0,ARG2),a4(ARG0,a4(a4(a4(ARG0,ARG1),ARG1),a4(ARG0,a4(ARG0,ARG2))))),a4(ARG2,a4(a4(a4(ARG1,ARG1),ARG0),ARG2))),a4(ARG0,a4(ARG0,ARG0))),a4(a4(ARG1,a4(a4(a4(ARG1,ARG2),ARG0),a4(a4(ARG1,ARG2),ARG1))),ARG0))'
p2752
sS'tree_len'
p2753
I49
sS'archive_size'
p2754
I130
sS'number_of_operators'
p2755
I24
sS'alg_name'
p2756
S'small-LTI'
p2757
sS'archive_tree_deapth'
p2758
I2
sS'logbook'
p2759
g12
(g13
g14
(lp2760
(dp2761
S'status'
p2762
NsS'iteration'
p2763
I0
sS'count_wrongs'
p2764
I6
sS'picked_node'
p2765
NsS'len_master_tree'
p2766
I1
sS'total_wrongs'
p2767
I6
sa(dp2768
g2762
S'worst'
p2769
sg2763
I1
sg2764
I7
sg2765
I0
sg2766
I5
sg2767
I30
sa(dp2770
g2762
S'better'
p2771
sg2763
I2
sg2764
I5
sg2765
I4
sg2766
I9
sg2767
I16
sa(dp2772
g2762
g2769
sg2763
I3
sg2764
I6
sg2765
I8
sg2766
I13
sg2767
I26
sa(dp2773
g2762
S'perfect'
p2774
sg2763
I4
sg2764
I5
sg2765
I5
sg2766
I17
sg2767
I18
sa(dp2775
g2762
g2769
sg2763
I5
sg2764
I6
sg2765
I7
sg2766
I13
sg2767
I25
sa(dp2776
g2762
g2774
sg2763
I6
sg2764
I5
sg2765
I7
sg2766
I9
sg2767
I16
sa(dp2777
g2762
g2769
sg2763
I7
sg2764
I5
sg2765
I6
sg2766
I13
sg2767
I32
sa(dp2778
g2762
g2771
sg2763
I8
sg2764
I5
sg2765
I5
sg2766
I9
sg2767
I16
sa(dp2779
g2762
g2769
sg2763
I9
sg2764
I6
sg2765
I8
sg2766
I13
sg2767
I28
sa(dp2780
g2762
g2771
sg2763
I10
sg2764
I5
sg2765
I8
sg2766
I9
sg2767
I16
sa(dp2781
g2762
g2769
sg2763
I11
sg2764
I5
sg2765
I7
sg2766
I13
sg2767
I32
sa(dp2782
g2762
g2771
sg2763
I12
sg2764
I5
sg2765
I6
sg2766
I9
sg2767
I16
sa(dp2783
g2762
g2769
sg2763
I13
sg2764
I5
sg2765
I7
sg2766
I13
sg2767
I32
sa(dp2784
g2762
g2771
sg2763
I14
sg2764
I5
sg2765
I8
sg2766
I9
sg2767
I16
sa(dp2785
g2762
g2769
sg2763
I15
sg2764
I5
sg2765
I8
sg2766
I13
sg2767
I32
sa(dp2786
g2762
g2771
sg2763
I16
sg2764
I5
sg2765
I8
sg2766
I13
sg2767
I22
sa(dp2787
g2762
g2769
sg2763
I17
sg2764
I5
sg2765
I10
sg2766
I13
sg2767
I32
sa(dp2788
g2762
g2771
sg2763
I18
sg2764
I5
sg2765
I10
sg2766
I13
sg2767
I21
sa(dp2789
g2762
g2769
sg2763
I19
sg2764
I5
sg2765
I8
sg2766
I13
sg2767
I32
sa(dp2790
g2762
g2771
sg2763
I20
sg2764
I5
sg2765
I8
sg2766
I13
sg2767
I20
sa(dp2791
g2762
g2769
sg2763
I21
sg2764
I5
sg2765
I10
sg2766
I13
sg2767
I32
sa(dp2792
g2762
g2771
sg2763
I22
sg2764
I5
sg2765
I10
sg2766
I13
sg2767
I20
sa(dp2793
g2762
g2769
sg2763
I23
sg2764
I6
sg2765
I9
sg2766
I17
sg2767
I35
sa(dp2794
g2762
g2771
sg2763
I24
sg2764
I5
sg2765
I8
sg2766
I13
sg2767
I20
sa(dp2795
g2762
g2769
sg2763
I25
sg2764
I6
sg2765
I7
sg2766
I17
sg2767
I30
sa(dp2796
g2762
g2771
sg2763
I26
sg2764
I5
sg2765
I12
sg2766
I13
sg2767
I20
sa(dp2797
g2762
g2769
sg2763
I27
sg2764
I6
sg2765
I11
sg2766
I17
sg2767
I35
sa(dp2798
g2762
g2771
sg2763
I28
sg2764
I5
sg2765
I7
sg2766
I13
sg2767
I20
sa(dp2799
g2762
g2769
sg2763
I29
sg2764
I6
sg2765
I9
sg2766
I17
sg2767
I36
sa(dp2800
g2762
g2774
sg2763
I30
sg2764
I5
sg2765
I5
sg2766
I21
sg2767
I24
sa(dp2801
g2762
g2774
sg2763
I31
sg2764
I4
sg2765
I12
sg2766
I25
sg2767
I9
sa(dp2802
g2762
g2769
sg2763
I32
sg2764
I4
sg2765
I3
sg2766
I29
sg2767
I61
sa(dp2803
g2762
g2774
sg2763
I33
sg2764
I4
sg2765
I16
sg2766
I33
sg2767
I25
sa(dp2804
g2762
g2769
sg2763
I34
sg2764
I6
sg2765
I2
sg2766
I9
sg2767
I37
sa(dp2805
g2762
g2771
sg2763
I35
sg2764
I6
sg2765
I8
sg2766
I13
sg2767
I42
sa(dp2806
g2762
g2771
sg2763
I36
sg2764
I6
sg2765
I5
sg2766
I17
sg2767
I36
sa(dp2807
g2762
g2771
sg2763
I37
sg2764
I6
sg2765
I1
sg2766
I21
sg2767
I41
sa(dp2808
g2762
g2771
sg2763
I38
sg2764
I4
sg2765
I19
sg2766
I25
sg2767
I32
sa(dp2809
g2762
g2774
sg2763
I39
sg2764
I4
sg2765
I24
sg2766
I29
sg2767
I31
sa(dp2810
g2762
g2769
sg2763
I40
sg2764
I5
sg2765
I22
sg2766
I25
sg2767
I56
sa(dp2811
g2762
g2771
sg2763
I41
sg2764
I3
sg2765
I13
sg2766
I25
sg2767
I30
sa(dp2812
g2762
g2769
sg2763
I42
sg2764
I5
sg2765
I23
sg2766
I25
sg2767
I57
sa(dp2813
g2762
g2771
sg2763
I43
sg2764
I3
sg2765
I22
sg2766
I25
sg2767
I30
sa(dp2814
g2762
g2769
sg2763
I44
sg2764
I5
sg2765
I19
sg2766
I25
sg2767
I56
sa(dp2815
g2762
g2771
sg2763
I45
sg2764
I4
sg2765
I11
sg2766
I25
sg2767
I33
sa(dp2816
g2762
g2774
sg2763
I46
sg2764
I4
sg2765
I24
sg2766
I25
sg2767
I32
sa(dp2817
g2762
g2774
sg2763
I47
sg2764
I4
sg2765
I19
sg2766
I29
sg2767
I31
sa(dp2818
g2762
g2769
sg2763
I48
sg2764
I5
sg2765
I15
sg2766
I25
sg2767
I56
sa(dp2819
g2762
g2771
sg2763
I49
sg2764
I3
sg2765
I15
sg2766
I25
sg2767
I30
sa(dp2820
g2762
g2769
sg2763
I50
sg2764
I5
sg2765
I22
sg2766
I25
sg2767
I57
sa(dp2821
g2762
g2771
sg2763
I51
sg2764
I4
sg2765
I15
sg2766
I25
sg2767
I33
sa(dp2822
g2762
g2774
sg2763
I52
sg2764
I4
sg2765
I19
sg2766
I25
sg2767
I32
sa(dp2823
g2762
g2774
sg2763
I53
sg2764
I4
sg2765
I23
sg2766
I29
sg2767
I31
sa(dp2824
g2762
g2769
sg2763
I54
sg2764
I5
sg2765
I21
sg2766
I25
sg2767
I56
sa(dp2825
g2762
g2771
sg2763
I55
sg2764
I4
sg2765
I23
sg2766
I25
sg2767
I32
sa(dp2826
g2762
g2769
sg2763
I56
sg2764
I5
sg2765
I17
sg2766
I25
sg2767
I56
sa(dp2827
g2762
g2771
sg2763
I57
sg2764
I3
sg2765
I21
sg2766
I25
sg2767
I30
sa(dp2828
g2762
g2769
sg2763
I58
sg2764
I5
sg2765
I21
sg2766
I25
sg2767
I56
sa(dp2829
g2762
g2771
sg2763
I59
sg2764
I4
sg2765
I21
sg2766
I25
sg2767
I32
sa(dp2830
g2762
g2774
sg2763
I60
sg2764
I4
sg2765
I20
sg2766
I29
sg2767
I31
sa(dp2831
g2762
g2769
sg2763
I61
sg2764
I5
sg2765
I17
sg2766
I25
sg2767
I56
sa(dp2832
g2762
g2771
sg2763
I62
sg2764
I4
sg2765
I20
sg2766
I25
sg2767
I32
sa(dp2833
g2762
g2769
sg2763
I63
sg2764
I5
sg2765
I20
sg2766
I25
sg2767
I56
sa(dp2834
g2762
g2771
sg2763
I64
sg2764
I4
sg2765
I22
sg2766
I25
sg2767
I32
sa(dp2835
g2762
g2769
sg2763
I65
sg2764
I6
sg2765
I24
sg2766
I25
sg2767
I71
sa(dp2836
g2762
g2774
sg2763
I66
sg2764
I6
sg2765
I8
sg2766
I25
sg2767
I61
sa(dp2837
g2762
g2774
sg2763
I67
sg2764
I6
sg2765
I18
sg2766
I29
sg2767
I53
sa(dp2838
g2762
g2774
sg2763
I68
sg2764
I4
sg2765
I21
sg2766
I29
sg2767
I31
sa(dp2839
g2762
g2769
sg2763
I69
sg2764
I5
sg2765
I18
sg2766
I29
sg2767
I65
sa(dp2840
g2762
g2771
sg2763
I70
sg2764
I4
sg2765
I17
sg2766
I25
sg2767
I32
sa(dp2841
g2762
g2769
sg2763
I71
sg2764
I5
sg2765
I12
sg2766
I25
sg2767
I55
sa(dp2842
g2762
g2774
sg2763
I72
sg2764
I5
sg2765
I23
sg2766
I29
sg2767
I52
sa(dp2843
g2762
g2771
sg2763
I73
sg2764
I4
sg2765
I20
sg2766
I25
sg2767
I33
sa(dp2844
g2762
g2774
sg2763
I74
sg2764
I4
sg2765
I24
sg2766
I25
sg2767
I32
sa(dp2845
g2762
g2769
sg2763
I75
sg2764
I5
sg2765
I18
sg2766
I25
sg2767
I56
sa(dp2846
g2762
g2771
sg2763
I76
sg2764
I3
sg2765
I19
sg2766
I25
sg2767
I30
sa(dp2847
g2762
g2769
sg2763
I77
sg2764
I5
sg2765
I20
sg2766
I25
sg2767
I56
sa(dp2848
g2762
g2771
sg2763
I78
sg2764
I3
sg2765
I20
sg2766
I25
sg2767
I30
sa(dp2849
g2762
g2769
sg2763
I79
sg2764
I4
sg2765
I10
sg2766
I25
sg2767
I53
sa(dp2850
g2762
g2771
sg2763
I80
sg2764
I4
sg2765
I16
sg2766
I31
sg2767
I46
sa(dp2851
g2762
g2774
sg2763
I81
sg2764
I3
sg2765
I14
sg2766
I35
sg2767
I18
sa(dp2852
g2762
g2769
sg2763
I82
sg2764
I4
sg2765
I16
sg2766
I33
sg2767
I51
sa(dp2853
g2762
g2774
sg2763
I83
sg2764
I4
sg2765
I14
sg2766
I29
sg2767
I42
sa(dp2854
g2762
g2774
sg2763
I84
sg2764
I3
sg2765
I18
sg2766
I33
sg2767
I18
sa(dp2855
g2762
g2774
sg2763
I85
sg2764
I2
sg2765
I21
sg2766
I37
sg2767
I11
sa(dp2856
g2762
g2769
sg2763
I86
sg2764
I2
sg2765
I2
sg2766
I21
sg2767
I30
sa(dp2857
g2762
g2774
sg2763
I87
sg2764
I2
sg2765
I16
sg2766
I25
sg2767
I21
sa(dp2858
g2762
g2771
sg2763
I88
sg2764
I2
sg2765
I3
sg2766
I29
sg2767
I24
sa(dp2859
g2762
g2769
sg2763
I89
sg2764
I2
sg2765
I24
sg2766
I29
sg2767
I28
sa(dp2860
g2762
g2771
sg2763
I90
sg2764
I2
sg2765
I24
sg2766
I29
sg2767
I24
sa(dp2861
g2762
g2769
sg2763
I91
sg2764
I4
sg2765
I7
sg2766
I29
sg2767
I49
sa(dp2862
g2762
g2774
sg2763
I92
sg2764
I2
sg2765
I27
sg2766
I33
sg2767
I21
sa(dp2863
g2762
g2769
sg2763
I93
sg2764
I2
sg2765
I21
sg2766
I29
sg2767
I18
sa(dp2864
g2762
g2771
sg2763
I94
sg2764
I2
sg2765
I28
sg2766
I33
sg2767
I21
sa(dp2865
g2762
g2769
sg2763
I95
sg2764
I2
sg2765
I28
sg2766
I29
sg2767
I18
sa(dp2866
g2762
g2769
sg2763
I96
sg2764
I3
sg2765
I15
sg2766
I33
sg2767
I34
sa(dp2867
g2762
g2771
sg2763
I97
sg2764
I3
sg2765
I32
sg2766
I39
sg2767
I34
sa(dp2868
g2762
g2774
sg2763
I98
sg2764
I2
sg2765
I33
sg2766
I41
sg2767
I11
sa(dp2869
g2762
g2769
sg2763
I99
sg2764
I2
sg2765
I28
sg2766
I29
sg2767
I18
sa(dp2870
g2762
g2771
sg2763
I100
sg2764
I2
sg2765
I27
sg2766
I33
sg2767
I21
sa(dp2871
g2762
g2769
sg2763
I101
sg2764
I2
sg2765
I28
sg2766
I33
sg2767
I25
sa(dp2872
g2762
g2771
sg2763
I102
sg2764
I2
sg2765
I31
sg2766
I37
sg2767
I25
sa(dp2873
g2762
g2769
sg2763
I103
sg2764
I2
sg2765
I32
sg2766
I33
sg2767
I25
sa(dp2874
g2762
g2771
sg2763
I104
sg2764
I2
sg2765
I32
sg2766
I37
sg2767
I25
sa(dp2875
g2762
g2769
sg2763
I105
sg2764
I2
sg2765
I30
sg2766
I33
sg2767
I25
sa(dp2876
g2762
g2769
sg2763
I106
sg2764
I3
sg2765
I32
sg2766
I37
sg2767
I43
sa(dp2877
g2762
g2771
sg2763
I107
sg2764
I2
sg2765
I32
sg2766
I33
sg2767
I25
sa(dp2878
g2762
g2769
sg2763
I108
sg2764
I3
sg2765
I32
sg2766
I37
sg2767
I43
sa(dp2879
g2762
g2771
sg2763
I109
sg2764
I2
sg2765
I28
sg2766
I33
sg2767
I25
sa(dp2880
g2762
g2769
sg2763
I110
sg2764
I3
sg2765
I27
sg2766
I37
sg2767
I45
sa(dp2881
g2762
g2771
sg2763
I111
sg2764
I3
sg2765
I36
sg2766
I43
sg2767
I37
sa(dp2882
g2762
g2774
sg2763
I112
sg2764
I2
sg2765
I42
sg2766
I47
sg2767
I15
sa(dp2883
g2762
g2769
sg2763
I113
sg2764
I2
sg2765
I31
sg2766
I51
sg2767
I41
sa(dp2884
g2762
g2774
sg2763
I114
sg2764
I1
sg2765
I39
sg2766
I49
sg2767
I13
sa(dp2885
g2762
g2769
sg2763
I115
sg2764
I3
sg2765
I27
sg2766
I41
sg2767
I29
sa(dp2886
g2762
g2774
sg2763
I116
sg2764
I2
sg2765
I37
sg2766
I43
sg2767
I11
sa(dp2887
g2762
g2769
sg2763
I117
sg2764
I2
sg2765
I27
sg2766
I29
sg2767
I18
sa(dp2888
g2762
g2769
sg2763
I118
sg2764
I3
sg2765
I28
sg2766
I33
sg2767
I34
sa(dp2889
g2762
g2771
sg2763
I119
sg2764
I3
sg2765
I32
sg2766
I39
sg2767
I34
sa(dp2890
g2762
g2774
sg2763
I120
sg2764
I2
sg2765
I35
sg2766
I43
sg2767
I11
sa(dp2891
g2762
g2769
sg2763
I121
sg2764
I3
sg2765
I4
sg2766
I47
sg2767
I32
sa(dp2892
g2762
g2774
sg2763
I122
sg2764
I3
sg2765
I20
sg2766
I51
sg2767
I25
sa(dp2893
g2762
g2771
sg2763
I123
sg2764
I2
sg2765
I3
sg2766
I39
sg2767
I11
sa(dp2894
g2762
g2769
sg2763
I124
sg2764
I2
sg2765
I19
sg2766
I25
sg2767
I21
sa(dp2895
g2762
g2771
sg2763
I125
sg2764
I2
sg2765
I18
sg2766
I29
sg2767
I24
sa(dp2896
g2762
g2769
sg2763
I126
sg2764
I4
sg2765
I20
sg2766
I29
sg2767
I49
sa(dp2897
g2762
g2774
sg2763
I127
sg2764
I2
sg2765
I27
sg2766
I33
sg2767
I21
sa(dp2898
g2762
g2769
sg2763
I128
sg2764
I2
sg2765
I21
sg2766
I33
sg2767
I25
sa(dp2899
g2762
g2769
sg2763
I129
sg2764
I4
sg2765
I32
sg2766
I33
sg2767
I67
sa(dp2900
g2762
g2774
sg2763
I130
sg2764
I2
sg2765
I23
sg2766
I33
sg2767
I25
sa(dp2901
g2762
g2771
sg2763
I131
sg2764
I2
sg2765
I26
sg2766
I37
sg2767
I25
sa(dp2902
g2762
g2769
sg2763
I132
sg2764
I2
sg2765
I25
sg2766
I33
sg2767
I25
sa(dp2903
g2762
g2769
sg2763
I133
sg2764
I4
sg2765
I23
sg2766
I33
sg2767
I66
sa(dp2904
g2762
g2774
sg2763
I134
sg2764
I2
sg2765
I22
sg2766
I33
sg2767
I21
sa(dp2905
g2762
g2769
sg2763
I135
sg2764
I2
sg2765
I27
sg2766
I33
sg2767
I25
sa(dp2906
g2762
g2769
sg2763
I136
sg2764
I4
sg2765
I29
sg2766
I37
sg2767
I67
sa(dp2907
g2762
g2774
sg2763
I137
sg2764
I4
sg2765
I26
sg2766
I37
sg2767
I60
sa(dp2908
g2762
g2771
sg2763
I138
sg2764
I2
sg2765
I20
sg2766
I41
sg2767
I42
sa(dp2909
g2762
g2774
sg2763
I139
sg2764
I2
sg2765
I25
sg2766
I41
sg2767
I35
sa(dp2910
g2762
g2771
sg2763
I140
sg2764
I2
sg2765
I33
sg2766
I47
sg2767
I29
sa(dp2911
g2762
g2774
sg2763
I141
sg2764
I1
sg2765
I32
sg2766
I51
sg2767
I3
sa(dp2912
g2762
g2769
sg2763
I142
sg2764
I4
sg2765
I3
sg2766
I43
sg2767
I66
sa(dp2913
g2762
g2771
sg2763
I143
sg2764
I5
sg2765
I39
sg2766
I45
sg2767
I73
sa(dp2914
g2762
g2771
sg2763
I144
sg2764
I2
sg2765
I41
sg2766
I47
sg2767
I49
sa(dp2915
g2762
g2774
sg2763
I145
sg2764
I1
sg2765
I24
sg2766
I45
sg2767
I12
sa(dp2916
g2762
g2774
sg2763
I146
sg2764
I1
sg2765
I39
sg2766
I49
sg2767
I11
sa(dp2917
g2762
g2769
sg2763
I147
sg2764
I2
sg2765
I30
sg2766
I45
sg2767
I30
sa(dp2918
g2762
g2771
sg2763
I148
sg2764
I1
sg2765
I33
sg2766
I49
sg2767
I19
sa(dp2919
g2762
g2774
sg2763
I149
sg2764
I0
sg2765
I38
sg2766
I49
sg2767
I0
satRp2920
(dp2921
g168
I01
sg169
(lp2922
g2763
ag2766
ag2764
ag2767
ag2765
ag2762
asg171
Nsg172
I0
sg173
g174
(g13
tRp2923
sbsS'max_archive_size'
p2924
NsS'solution_found_flag'
p2925
I01
sS'time_taken'
p2926
F3.8282430171966553
sS'benchmark_name'
p2927
S'M_A4'
p2928
sa.