(lp1
(dp2
S'tree_str'
p3
S'b1(b1(b1(b1(ARG0,b1(b1(b1(ARG0,b1(b1(ARG1,b1(b1(b1(ARG0,ARG2),ARG2),b1(b1(ARG2,ARG2),ARG2))),b1(ARG0,ARG1))),ARG2),ARG1)),b1(ARG0,b1(b1(ARG1,b1(ARG0,ARG1)),b1(ARG0,ARG1)))),b1(b1(b1(b1(b1(ARG0,b1(ARG0,ARG1)),b1(b1(b1(ARG0,ARG1),ARG1),ARG1)),b1(b1(b1(b1(ARG2,ARG2),b1(b1(ARG2,ARG0),b1(ARG2,b1(b1(ARG0,ARG2),b1(ARG1,b1(ARG1,ARG1)))))),b1(ARG0,ARG1)),b1(b1(b1(b1(b1(ARG0,ARG2),ARG1),ARG1),b1(b1(b1(b1(ARG2,b1(ARG2,ARG2)),b1(b1(ARG0,ARG1),ARG1)),ARG0),b1(b1(b1(ARG1,b1(ARG2,ARG1)),b1(b1(ARG1,ARG1),b1(ARG0,ARG2))),b1(ARG0,b1(ARG1,ARG1))))),ARG2))),b1(b1(ARG1,b1(ARG2,ARG0)),b1(ARG2,ARG0))),ARG2)),b1(b1(b1(ARG0,b1(ARG1,ARG0)),b1(b1(b1(ARG1,b1(ARG2,ARG0)),b1(ARG2,ARG0)),ARG0)),b1(b1(ARG2,b1(b1(b1(ARG0,b1(b1(b1(ARG0,ARG2),b1(ARG1,b1(ARG0,ARG2))),b1(ARG1,ARG2))),b1(b1(b1(b1(ARG1,ARG2),b1(ARG1,ARG2)),b1(b1(ARG0,b1(ARG2,b1(ARG2,b1(ARG1,ARG0)))),b1(ARG1,ARG0))),b1(b1(ARG1,b1(ARG1,ARG1)),b1(ARG1,ARG0)))),ARG2)),b1(ARG0,ARG2))))'
p4
sS'tree_len'
p5
I205
sS'archive_size'
p6
I21549
sS'number_of_operators'
p7
I102
sS'alg_name'
p8
S'small-LTI'
p9
sS'archive_tree_deapth'
p10
I3
sS'logbook'
p11
ccopy_reg
_reconstructor
p12
(ctreeimprove.utilities
Logbook
p13
c__builtin__
list
p14
(lp15
(dp16
S'status'
p17
NsS'iteration'
p18
I0
sS'count_wrongs'
p19
I10
sS'picked_node'
p20
NsS'len_master_tree'
p21
I9
sS'total_wrongs'
p22
I84
sa(dp23
g17
S'better'
p24
sg18
I1
sg19
I11
sg20
I7
sg21
I13
sg22
I101
sa(dp25
g17
g24
sg18
I2
sg19
I10
sg20
I11
sg21
I17
sg22
I104
sa(dp26
g17
g24
sg18
I3
sg19
I9
sg20
I11
sg21
I25
sg22
I136
sa(dp27
g17
g24
sg18
I4
sg19
I11
sg20
I21
sg21
I33
sg22
I158
sa(dp28
g17
S'perfect'
p29
sg18
I5
sg19
I9
sg20
I27
sg21
I45
sg22
I98
sa(dp30
g17
g24
sg18
I6
sg19
I9
sg20
I18
sg21
I49
sg22
I115
sa(dp31
g17
g29
sg18
I7
sg19
I8
sg20
I31
sg21
I53
sg22
I78
sa(dp32
g17
g24
sg18
I8
sg19
I5
sg20
I3
sg21
I61
sg22
I150
sa(dp33
g17
g29
sg18
I9
sg19
I5
sg20
I23
sg21
I53
sg22
I112
sa(dp34
g17
g24
sg18
I10
sg19
I6
sg20
I27
sg21
I63
sg22
I127
sa(dp35
g17
g29
sg18
I11
sg19
I6
sg20
I39
sg21
I63
sg22
I119
sa(dp36
g17
g29
sg18
I12
sg19
I6
sg20
I42
sg21
I67
sg22
I114
sa(dp37
g17
g29
sg18
I13
sg19
I5
sg20
I25
sg21
I75
sg22
I75
sa(dp38
g17
g24
sg18
I14
sg19
I6
sg20
I35
sg21
I81
sg22
I284
sa(dp39
g17
g29
sg18
I15
sg19
I6
sg20
I36
sg21
I85
sg22
I208
sa(dp40
g17
g29
sg18
I16
sg19
I6
sg20
I38
sg21
I89
sg22
I199
sa(dp41
g17
g29
sg18
I17
sg19
I5
sg20
I52
sg21
I95
sg22
I111
sa(dp42
g17
g29
sg18
I18
sg19
I5
sg20
I38
sg21
I95
sg22
I60
sa(dp43
g17
g24
sg18
I19
sg19
I5
sg20
I49
sg21
I103
sg22
I65
sa(dp44
g17
g29
sg18
I20
sg19
I4
sg20
I98
sg21
I111
sg22
I37
sa(dp45
g17
S'worst'
p46
sg18
I21
sg19
I5
sg20
I47
sg21
I95
sg22
I60
sa(dp47
g17
g24
sg18
I22
sg19
I5
sg20
I94
sg21
I103
sg22
I67
sa(dp48
g17
g29
sg18
I23
sg19
I4
sg20
I102
sg21
I111
sg22
I37
sa(dp49
g17
g46
sg18
I24
sg19
I5
sg20
I44
sg21
I95
sg22
I60
sa(dp50
g17
g24
sg18
I25
sg19
I5
sg20
I91
sg21
I103
sg22
I65
sa(dp51
g17
g29
sg18
I26
sg19
I4
sg20
I96
sg21
I111
sg22
I37
sa(dp52
g17
g46
sg18
I27
sg19
I5
sg20
I86
sg21
I95
sg22
I60
sa(dp53
g17
g24
sg18
I28
sg19
I5
sg20
I91
sg21
I103
sg22
I65
sa(dp54
g17
g29
sg18
I29
sg19
I4
sg20
I96
sg21
I107
sg22
I37
sa(dp55
g17
g46
sg18
I30
sg19
I5
sg20
I89
sg21
I95
sg22
I60
sa(dp56
g17
g24
sg18
I31
sg19
I5
sg20
I94
sg21
I103
sg22
I65
sa(dp57
g17
g29
sg18
I32
sg19
I4
sg20
I97
sg21
I111
sg22
I37
sa(dp58
g17
g46
sg18
I33
sg19
I5
sg20
I92
sg21
I95
sg22
I60
sa(dp59
g17
g24
sg18
I34
sg19
I5
sg20
I94
sg21
I103
sg22
I65
sa(dp60
g17
g29
sg18
I35
sg19
I4
sg20
I100
sg21
I107
sg22
I37
sa(dp61
g17
g46
sg18
I36
sg19
I5
sg20
I88
sg21
I95
sg22
I60
sa(dp62
g17
g24
sg18
I37
sg19
I5
sg20
I91
sg21
I103
sg22
I67
sa(dp63
g17
g29
sg18
I38
sg19
I4
sg20
I102
sg21
I111
sg22
I37
sa(dp64
g17
g46
sg18
I39
sg19
I5
sg20
I89
sg21
I99
sg22
I65
sa(dp65
g17
g29
sg18
I40
sg19
I5
sg20
I98
sg21
I107
sg22
I64
sa(dp66
g17
g24
sg18
I41
sg19
I5
sg20
I93
sg21
I115
sg22
I89
sa(dp67
g17
g29
sg18
I42
sg19
I3
sg20
I97
sg21
I117
sg22
I21
sa(dp68
g17
g46
sg18
I43
sg19
I4
sg20
I2
sg21
I121
sg22
I143
sa(dp69
g17
g29
sg18
I44
sg19
I4
sg20
I37
sg21
I115
sg22
I75
sa(dp70
g17
g29
sg18
I45
sg19
I3
sg20
I88
sg21
I127
sg22
I38
sa(dp71
g17
g29
sg18
I46
sg19
I2
sg20
I75
sg21
I135
sg22
I18
sa(dp72
g17
g46
sg18
I47
sg19
I3
sg20
I99
sg21
I131
sg22
I59
sa(dp73
g17
g29
sg18
I48
sg19
I3
sg20
I107
sg21
I135
sg22
I58
sa(dp74
g17
g29
sg18
I49
sg19
I3
sg20
I100
sg21
I137
sg22
I21
sa(dp75
g17
g24
sg18
I50
sg19
I2
sg20
I124
sg21
I141
sg22
I18
sa(dp76
g17
g46
sg18
I51
sg19
I3
sg20
I136
sg21
I137
sg22
I21
sa(dp77
g17
g24
sg18
I52
sg19
I2
sg20
I136
sg21
I141
sg22
I18
sa(dp78
g17
g46
sg18
I53
sg19
I3
sg20
I138
sg21
I145
sg22
I151
sa(dp79
g17
g29
sg18
I54
sg19
I3
sg20
I99
sg21
I139
sg22
I86
sa(dp80
g17
g29
sg18
I55
sg19
I3
sg20
I113
sg21
I143
sg22
I104
sa(dp81
g17
g29
sg18
I56
sg19
I3
sg20
I25
sg21
I147
sg22
I94
sa(dp82
g17
g29
sg18
I57
sg19
I3
sg20
I47
sg21
I149
sg22
I39
sa(dp83
g17
g24
sg18
I58
sg19
I3
sg20
I112
sg21
I149
sg22
I73
sa(dp84
g17
g29
sg18
I59
sg19
I2
sg20
I121
sg21
I145
sg22
I22
sa(dp85
g17
g46
sg18
I60
sg19
I3
sg20
I108
sg21
I137
sg22
I59
sa(dp86
g17
g29
sg18
I61
sg19
I3
sg20
I113
sg21
I141
sg22
I21
sa(dp87
g17
g24
sg18
I62
sg19
I2
sg20
I135
sg21
I145
sg22
I18
sa(dp88
g17
g46
sg18
I63
sg19
I3
sg20
I140
sg21
I141
sg22
I21
sa(dp89
g17
g24
sg18
I64
sg19
I2
sg20
I140
sg21
I145
sg22
I18
sa(dp90
g17
g46
sg18
I65
sg19
I3
sg20
I142
sg21
I149
sg22
I142
sa(dp91
g17
g29
sg18
I66
sg19
I3
sg20
I21
sg21
I131
sg22
I86
sa(dp92
g17
g29
sg18
I67
sg19
I3
sg20
I48
sg21
I135
sg22
I93
sa(dp93
g17
g29
sg18
I68
sg19
I3
sg20
I31
sg21
I135
sg22
I39
sa(dp94
g17
g24
sg18
I69
sg19
I3
sg20
I101
sg21
I135
sg22
I72
sa(dp95
g17
g29
sg18
I70
sg19
I2
sg20
I112
sg21
I131
sg22
I22
sa(dp96
g17
g46
sg18
I71
sg19
I3
sg20
I97
sg21
I123
sg22
I45
sa(dp97
g17
g29
sg18
I72
sg19
I3
sg20
I101
sg21
I131
sg22
I21
sa(dp98
g17
g24
sg18
I73
sg19
I2
sg20
I121
sg21
I135
sg22
I18
sa(dp99
g17
g46
sg18
I74
sg19
I3
sg20
I130
sg21
I131
sg22
I21
sa(dp100
g17
g24
sg18
I75
sg19
I2
sg20
I130
sg21
I135
sg22
I18
sa(dp101
g17
g46
sg18
I76
sg19
I3
sg20
I132
sg21
I139
sg22
I133
sa(dp102
g17
g29
sg18
I77
sg19
I3
sg20
I107
sg21
I139
sg22
I86
sa(dp103
g17
g29
sg18
I78
sg19
I3
sg20
I107
sg21
I143
sg22
I98
sa(dp104
g17
g29
sg18
I79
sg19
I3
sg20
I78
sg21
I143
sg22
I39
sa(dp105
g17
g24
sg18
I80
sg19
I3
sg20
I113
sg21
I143
sg22
I72
sa(dp106
g17
g29
sg18
I81
sg19
I2
sg20
I126
sg21
I139
sg22
I22
sa(dp107
g17
g46
sg18
I82
sg19
I3
sg20
I109
sg21
I131
sg22
I21
sa(dp108
g17
g46
sg18
I83
sg19
I4
sg20
I7
sg21
I139
sg22
I159
sa(dp109
g17
g29
sg18
I84
sg19
I4
sg20
I58
sg21
I135
sg22
I141
sa(dp110
g17
g29
sg18
I85
sg19
I4
sg20
I86
sg21
I135
sg22
I125
sa(dp111
g17
g29
sg18
I86
sg19
I4
sg20
I64
sg21
I137
sg22
I86
sa(dp112
g17
g29
sg18
I87
sg19
I3
sg20
I43
sg21
I129
sg22
I28
sa(dp113
g17
g29
sg18
I88
sg19
I3
sg20
I96
sg21
I133
sg22
I51
sa(dp114
g17
g29
sg18
I89
sg19
I2
sg20
I35
sg21
I133
sg22
I12
sa(dp115
g17
g46
sg18
I90
sg19
I3
sg20
I79
sg21
I141
sg22
I230
sa(dp116
g17
g29
sg18
I91
sg19
I3
sg20
I40
sg21
I145
sg22
I141
sa(dp117
g17
g29
sg18
I92
sg19
I2
sg20
I8
sg21
I149
sg22
I20
sa(dp118
g17
g46
sg18
I93
sg19
I3
sg20
I122
sg21
I149
sg22
I40
sa(dp119
g17
g24
sg18
I94
sg19
I2
sg20
I140
sg21
I149
sg22
I20
sa(dp120
g17
g46
sg18
I95
sg19
I3
sg20
I140
sg21
I149
sg22
I145
sa(dp121
g17
g29
sg18
I96
sg19
I2
sg20
I107
sg21
I149
sg22
I20
sa(dp122
g17
g29
sg18
I97
sg19
I1
sg20
I127
sg21
I157
sg22
I5
sa(dp123
g17
g46
sg18
I98
sg19
I2
sg20
I3
sg21
I165
sg22
I104
sa(dp124
g17
g29
sg18
I99
sg19
I1
sg20
I117
sg21
I169
sg22
I13
sa(dp125
g17
g46
sg18
I100
sg19
I2
sg20
I163
sg21
I177
sg22
I193
sa(dp126
g17
g29
sg18
I101
sg19
I2
sg20
I60
sg21
I177
sg22
I107
sa(dp127
g17
g29
sg18
I102
sg19
I2
sg20
I125
sg21
I179
sg22
I120
sa(dp128
g17
g29
sg18
I103
sg19
I1
sg20
I163
sg21
I179
sg22
I21
sa(dp129
g17
g46
sg18
I104
sg19
I2
sg20
I141
sg21
I163
sg22
I152
sa(dp130
g17
g29
sg18
I105
sg19
I1
sg20
I33
sg21
I159
sg22
I5
sa(dp131
g17
g46
sg18
I106
sg19
I2
sg20
I149
sg21
I167
sg22
I159
sa(dp132
g17
g29
sg18
I107
sg19
I2
sg20
I67
sg21
I171
sg22
I74
sa(dp133
g17
g29
sg18
I108
sg19
I2
sg20
I155
sg21
I175
sg22
I73
sa(dp134
g17
g29
sg18
I109
sg19
I2
sg20
I152
sg21
I175
sg22
I65
sa(dp135
g17
g29
sg18
I110
sg19
I2
sg20
I138
sg21
I179
sg22
I138
sa(dp136
g17
g29
sg18
I111
sg19
I2
sg20
I50
sg21
I183
sg22
I66
sa(dp137
g17
g29
sg18
I112
sg19
I2
sg20
I61
sg21
I179
sg22
I26
sa(dp138
g17
g46
sg18
I113
sg19
I3
sg20
I149
sg21
I183
sg22
I282
sa(dp139
g17
g29
sg18
I114
sg19
I3
sg20
I159
sg21
I183
sg22
I234
sa(dp140
g17
g29
sg18
I115
sg19
I3
sg20
I49
sg21
I185
sg22
I164
sa(dp141
g17
g29
sg18
I116
sg19
I3
sg20
I165
sg21
I185
sg22
I149
sa(dp142
g17
g29
sg18
I117
sg19
I2
sg20
I29
sg21
I185
sg22
I33
sa(dp143
g17
g46
sg18
I118
sg19
I3
sg20
I67
sg21
I181
sg22
I121
sa(dp144
g17
g29
sg18
I119
sg19
I3
sg20
I162
sg21
I183
sg22
I76
sa(dp145
g17
g29
sg18
I120
sg19
I3
sg20
I49
sg21
I187
sg22
I107
sa(dp146
g17
g29
sg18
I121
sg19
I2
sg20
I171
sg21
I185
sg22
I32
sa(dp147
g17
g46
sg18
I122
sg19
I3
sg20
I46
sg21
I181
sg22
I121
sa(dp148
g17
g29
sg18
I123
sg19
I3
sg20
I165
sg21
I183
sg22
I76
sa(dp149
g17
g29
sg18
I124
sg19
I3
sg20
I171
sg21
I187
sg22
I107
sa(dp150
g17
g29
sg18
I125
sg19
I2
sg20
I171
sg21
I185
sg22
I32
sa(dp151
g17
g46
sg18
I126
sg19
I3
sg20
I169
sg21
I181
sg22
I121
sa(dp152
g17
g29
sg18
I127
sg19
I3
sg20
I169
sg21
I183
sg22
I76
sa(dp153
g17
g29
sg18
I128
sg19
I3
sg20
I171
sg21
I191
sg22
I107
sa(dp154
g17
g29
sg18
I129
sg19
I2
sg20
I171
sg21
I191
sg22
I32
sa(dp155
g17
g46
sg18
I130
sg19
I3
sg20
I165
sg21
I183
sg22
I128
sa(dp156
g17
g29
sg18
I131
sg19
I3
sg20
I165
sg21
I185
sg22
I76
sa(dp157
g17
g29
sg18
I132
sg19
I3
sg20
I171
sg21
I193
sg22
I109
sa(dp158
g17
g29
sg18
I133
sg19
I2
sg20
I171
sg21
I193
sg22
I32
sa(dp159
g17
g46
sg18
I134
sg19
I3
sg20
I140
sg21
I197
sg22
I223
sa(dp160
g17
g29
sg18
I135
sg19
I3
sg20
I185
sg21
I197
sg22
I194
sa(dp161
g17
g29
sg18
I136
sg19
I3
sg20
I105
sg21
I197
sg22
I146
sa(dp162
g17
g29
sg18
I137
sg19
I2
sg20
I172
sg21
I193
sg22
I36
sa(dp163
g17
g46
sg18
I138
sg19
I3
sg20
I155
sg21
I185
sg22
I129
sa(dp164
g17
g29
sg18
I139
sg19
I2
sg20
I182
sg21
I189
sg22
I36
sa(dp165
g17
g46
sg18
I140
sg19
I3
sg20
I115
sg21
I185
sg22
I207
sa(dp166
g17
g29
sg18
I141
sg19
I2
sg20
I151
sg21
I185
sg22
I32
sa(dp167
g17
g46
sg18
I142
sg19
I3
sg20
I158
sg21
I181
sg22
I121
sa(dp168
g17
g29
sg18
I143
sg19
I3
sg20
I151
sg21
I183
sg22
I76
sa(dp169
g17
g24
sg18
I144
sg19
I3
sg20
I166
sg21
I187
sg22
I108
sa(dp170
g17
g29
sg18
I145
sg19
I2
sg20
I171
sg21
I189
sg22
I33
sa(dp171
g17
g46
sg18
I146
sg19
I3
sg20
I171
sg21
I185
sg22
I125
sa(dp172
g17
g29
sg18
I147
sg19
I3
sg20
I171
sg21
I183
sg22
I76
sa(dp173
g17
g29
sg18
I148
sg19
I3
sg20
I168
sg21
I187
sg22
I107
sa(dp174
g17
g29
sg18
I149
sg19
I2
sg20
I171
sg21
I189
sg22
I32
sa(dp175
g17
g46
sg18
I150
sg19
I3
sg20
I166
sg21
I185
sg22
I125
sa(dp176
g17
g29
sg18
I151
sg19
I3
sg20
I169
sg21
I185
sg22
I76
sa(dp177
g17
g24
sg18
I152
sg19
I3
sg20
I157
sg21
I193
sg22
I123
sa(dp178
g17
g29
sg18
I153
sg19
I2
sg20
I173
sg21
I189
sg22
I40
sa(dp179
g17
g29
sg18
I154
sg19
I1
sg20
I179
sg21
I197
sg22
I15
sa(dp180
g17
g29
sg18
I155
sg19
I0
sg20
I112
sg21
I205
sg22
I0
satRp181
(dp182
S'log_header'
p183
I01
sS'header'
p184
(lp185
g18
ag21
ag19
ag22
ag20
ag17
asS'columns_len'
p186
NsS'buffindex'
p187
I0
sS'chapters'
p188
ccollections
defaultdict
p189
(g13
tRp190
sbsS'max_archive_size'
p191
NsS'solution_found_flag'
p192
I01
sS'time_taken'
p193
F2570.8460590839386
sS'benchmark_name'
p194
S'M_B'
p195
sa(dp196
S'tree_str'
p197
S'b1(b1(ARG0,b1(b1(b1(ARG0,b1(b1(b1(ARG1,ARG0),b1(ARG0,b1(ARG1,ARG1))),b1(ARG0,ARG2))),b1(b1(b1(b1(ARG1,b1(b1(ARG0,ARG2),b1(b1(ARG2,ARG0),b1(ARG0,ARG0)))),b1(ARG0,ARG2)),b1(ARG0,ARG2)),b1(ARG0,ARG2))),ARG2)),b1(b1(b1(ARG0,b1(ARG1,ARG2)),b1(ARG1,ARG2)),b1(b1(b1(b1(ARG2,b1(ARG0,ARG2)),b1(ARG0,ARG2)),b1(b1(b1(b1(b1(ARG0,ARG0),ARG2),ARG0),b1(ARG0,ARG1)),b1(b1(b1(ARG2,b1(ARG1,b1(ARG1,ARG1))),ARG2),ARG0))),b1(ARG0,ARG2))))'
p198
sS'tree_len'
p199
I93
sS'archive_size'
p200
I21549
sS'number_of_operators'
p201
I46
sS'alg_name'
p202
S'small-LTI'
p203
sS'archive_tree_deapth'
p204
I3
sS'logbook'
p205
g12
(g13
g14
(lp206
(dp207
S'status'
p208
NsS'iteration'
p209
I0
sS'count_wrongs'
p210
I10
sS'picked_node'
p211
NsS'len_master_tree'
p212
I9
sS'total_wrongs'
p213
I84
sa(dp214
g208
S'better'
p215
sg209
I1
sg210
I8
sg211
I7
sg212
I13
sg213
I83
sa(dp216
g208
g215
sg209
I2
sg210
I9
sg211
I12
sg212
I21
sg213
I116
sa(dp217
g208
g215
sg209
I3
sg210
I10
sg211
I18
sg212
I25
sg213
I111
sa(dp218
g208
g215
sg209
I4
sg210
I9
sg211
I22
sg212
I29
sg213
I91
sa(dp219
g208
S'perfect'
p220
sg209
I5
sg210
I9
sg211
I19
sg212
I37
sg213
I89
sa(dp221
g208
g220
sg209
I6
sg210
I9
sg211
I27
sg212
I45
sg213
I68
sa(dp222
g208
g215
sg209
I7
sg210
I8
sg211
I9
sg212
I53
sg213
I56
sa(dp223
g208
g215
sg209
I8
sg210
I6
sg211
I3
sg212
I61
sg213
I177
sa(dp224
g208
g220
sg209
I9
sg210
I6
sg211
I41
sg212
I65
sg213
I148
sa(dp225
g208
g220
sg209
I10
sg210
I6
sg211
I32
sg212
I65
sg213
I128
sa(dp226
g208
g215
sg209
I11
sg210
I6
sg211
I9
sg212
I69
sg213
I111
sa(dp227
g208
g215
sg209
I12
sg210
I6
sg211
I45
sg212
I77
sg213
I118
sa(dp228
g208
g220
sg209
I13
sg210
I5
sg211
I74
sg212
I85
sg213
I84
sa(dp229
g208
g215
sg209
I14
sg210
I4
sg211
I56
sg212
I93
sg213
I92
sa(dp230
g208
g215
sg209
I15
sg210
I3
sg211
I91
sg212
I103
sg213
I108
sa(dp231
g208
g220
sg209
I16
sg210
I3
sg211
I73
sg212
I105
sg213
I85
sa(dp232
g208
g220
sg209
I17
sg210
I3
sg211
I20
sg212
I101
sg213
I61
sa(dp233
g208
g220
sg209
I18
sg210
I3
sg211
I73
sg212
I105
sg213
I63
sa(dp234
g208
g220
sg209
I19
sg210
I2
sg211
I67
sg212
I109
sg213
I34
sa(dp235
g208
S'worst'
p236
sg209
I20
sg210
I3
sg211
I13
sg212
I89
sg213
I113
sa(dp237
g208
g220
sg209
I21
sg210
I2
sg211
I55
sg212
I89
sg213
I36
sa(dp238
g208
g220
sg209
I22
sg210
I2
sg211
I29
sg212
I93
sg213
I54
sa(dp239
g208
g220
sg209
I23
sg210
I1
sg211
I81
sg212
I95
sg213
I7
sa(dp240
g208
g236
sg209
I24
sg210
I3
sg211
I4
sg212
I103
sg213
I126
sa(dp241
g208
g220
sg209
I25
sg210
I3
sg211
I89
sg212
I107
sg213
I121
sa(dp242
g208
g220
sg209
I26
sg210
I3
sg211
I72
sg212
I111
sg213
I97
sa(dp243
g208
g220
sg209
I27
sg210
I3
sg211
I94
sg212
I119
sg213
I132
sa(dp244
g208
g220
sg209
I28
sg210
I3
sg211
I104
sg212
I119
sg213
I108
sa(dp245
g208
g220
sg209
I29
sg210
I3
sg211
I36
sg212
I123
sg213
I119
sa(dp246
g208
g220
sg209
I30
sg210
I3
sg211
I22
sg212
I127
sg213
I110
sa(dp247
g208
g220
sg209
I31
sg210
I3
sg211
I109
sg212
I131
sg213
I109
sa(dp248
g208
g220
sg209
I32
sg210
I3
sg211
I47
sg212
I135
sg213
I102
sa(dp249
g208
g220
sg209
I33
sg210
I2
sg211
I78
sg212
I145
sg213
I90
sa(dp250
g208
g220
sg209
I34
sg210
I1
sg211
I109
sg212
I145
sg213
I39
sa(dp251
g208
g220
sg209
I35
sg210
I1
sg211
I73
sg212
I151
sg213
I20
sa(dp252
g208
g236
sg209
I36
sg210
I2
sg211
I77
sg212
I131
sg213
I129
sa(dp253
g208
g220
sg209
I37
sg210
I1
sg211
I70
sg212
I115
sg213
I7
sa(dp254
g208
g236
sg209
I38
sg210
I3
sg211
I2
sg212
I123
sg213
I251
sa(dp255
g208
g220
sg209
I39
sg210
I2
sg211
I62
sg212
I111
sg213
I92
sa(dp256
g208
g220
sg209
I40
sg210
I2
sg211
I72
sg212
I113
sg213
I83
sa(dp257
g208
g220
sg209
I41
sg210
I2
sg211
I91
sg212
I113
sg213
I39
sa(dp258
g208
g236
sg209
I42
sg210
I3
sg211
I67
sg212
I109
sg213
I86
sa(dp259
g208
g220
sg209
I43
sg210
I2
sg211
I33
sg212
I105
sg213
I35
sa(dp260
g208
g236
sg209
I44
sg210
I2
sg211
I23
sg212
I113
sg213
I82
sa(dp261
g208
g220
sg209
I45
sg210
I2
sg211
I34
sg212
I101
sg213
I97
sa(dp262
g208
g220
sg209
I46
sg210
I1
sg211
I44
sg212
I93
sg213
I27
sa(dp263
g208
g236
sg209
I47
sg210
I2
sg211
I23
sg212
I83
sg213
I103
sa(dp264
g208
g220
sg209
I48
sg210
I1
sg211
I74
sg212
I89
sg213
I30
sa(dp265
g208
g220
sg209
I49
sg210
I0
sg211
I79
sg212
I93
sg213
I0
satRp266
(dp267
g183
I01
sg184
(lp268
g209
ag212
ag210
ag213
ag211
ag208
asg186
Nsg187
I0
sg188
g189
(g13
tRp269
sbsS'max_archive_size'
p270
NsS'solution_found_flag'
p271
I01
sS'time_taken'
p272
F973.18857312202454
sS'benchmark_name'
p273
S'M_B'
p274
sa(dp275
S'tree_str'
p276
S'b1(b1(ARG0,b1(b1(b1(ARG0,b1(b1(b1(b1(ARG2,b1(ARG1,ARG2)),b1(ARG1,ARG2)),b1(b1(b1(b1(b1(b1(ARG1,ARG1),b1(ARG1,ARG0)),b1(ARG1,ARG2)),ARG2),ARG2),b1(b1(ARG2,ARG2),b1(b1(ARG2,ARG1),ARG1)))),b1(ARG0,ARG2))),b1(b1(b1(b1(ARG1,b1(b1(b1(ARG0,ARG0),b1(ARG0,ARG1)),b1(ARG0,b1(ARG0,ARG0)))),b1(ARG0,ARG2)),b1(ARG0,ARG2)),b1(ARG0,ARG2))),ARG2)),b1(b1(b1(ARG0,ARG2),ARG2),b1(b1(ARG2,b1(ARG0,b1(b1(ARG1,b1(b1(b1(ARG0,ARG0),ARG1),b1(b1(b1(b1(ARG2,ARG0),b1(b1(ARG0,ARG2),ARG2)),b1(ARG1,ARG0)),b1(b1(b1(ARG0,b1(ARG0,ARG0)),ARG2),b1(ARG2,ARG2))))),b1(ARG2,ARG2)))),b1(ARG0,ARG2))))'
p277
sS'tree_len'
p278
I125
sS'archive_size'
p279
I21549
sS'number_of_operators'
p280
I62
sS'alg_name'
p281
S'small-LTI'
p282
sS'archive_tree_deapth'
p283
I3
sS'logbook'
p284
g12
(g13
g14
(lp285
(dp286
S'status'
p287
NsS'iteration'
p288
I0
sS'count_wrongs'
p289
I10
sS'picked_node'
p290
NsS'len_master_tree'
p291
I9
sS'total_wrongs'
p292
I84
sa(dp293
g287
S'better'
p294
sg288
I1
sg289
I8
sg290
I6
sg291
I13
sg292
I83
sa(dp295
g287
g294
sg288
I2
sg289
I9
sg290
I12
sg291
I21
sg292
I116
sa(dp296
g287
g294
sg288
I3
sg289
I10
sg290
I18
sg291
I25
sg292
I111
sa(dp297
g287
g294
sg288
I4
sg289
I9
sg290
I22
sg291
I29
sg292
I91
sa(dp298
g287
S'perfect'
p299
sg288
I5
sg289
I9
sg290
I19
sg291
I37
sg292
I89
sa(dp300
g287
g299
sg288
I6
sg289
I9
sg290
I27
sg291
I45
sg292
I68
sa(dp301
g287
g294
sg288
I7
sg289
I8
sg290
I9
sg291
I53
sg292
I56
sa(dp302
g287
g294
sg288
I8
sg289
I6
sg290
I3
sg291
I61
sg292
I177
sa(dp303
g287
g299
sg288
I9
sg289
I6
sg290
I40
sg291
I65
sg292
I148
sa(dp304
g287
g299
sg288
I10
sg289
I6
sg290
I32
sg291
I65
sg292
I128
sa(dp305
g287
g294
sg288
I11
sg289
I6
sg290
I9
sg291
I69
sg292
I111
sa(dp306
g287
g294
sg288
I12
sg289
I6
sg290
I43
sg291
I77
sg292
I118
sa(dp307
g287
g299
sg288
I13
sg289
I5
sg290
I74
sg291
I85
sg292
I84
sa(dp308
g287
g294
sg288
I14
sg289
I4
sg290
I54
sg291
I93
sg292
I160
sa(dp309
g287
g299
sg288
I15
sg289
I3
sg290
I54
sg291
I93
sg292
I72
sa(dp310
g287
g294
sg288
I16
sg289
I3
sg290
I83
sg291
I101
sg292
I114
sa(dp311
g287
g299
sg288
I17
sg289
I3
sg290
I66
sg291
I103
sg292
I85
sa(dp312
g287
g299
sg288
I18
sg289
I3
sg290
I32
sg291
I101
sg292
I61
sa(dp313
g287
g299
sg288
I19
sg289
I3
sg290
I67
sg291
I107
sg292
I120
sa(dp314
g287
g299
sg288
I20
sg289
I2
sg290
I20
sg291
I105
sg292
I34
sa(dp315
g287
g299
sg288
I21
sg289
I1
sg290
I14
sg291
I113
sg292
I7
sa(dp316
g287
S'worst'
p317
sg288
I22
sg289
I2
sg290
I4
sg291
I121
sg292
I103
sa(dp318
g287
g299
sg288
I23
sg289
I2
sg290
I72
sg291
I121
sg292
I97
sa(dp319
g287
g299
sg288
I24
sg289
I2
sg290
I43
sg291
I117
sg292
I38
sa(dp320
g287
g294
sg288
I25
sg289
I2
sg290
I2
sg291
I121
sg292
I139
sa(dp321
g287
g299
sg288
I26
sg289
I2
sg290
I90
sg291
I121
sg292
I68
sa(dp322
g287
g299
sg288
I27
sg289
I2
sg290
I68
sg291
I127
sg292
I67
sa(dp323
g287
g299
sg288
I28
sg289
I1
sg290
I72
sg291
I135
sg292
I22
sa(dp324
g287
g317
sg288
I29
sg289
I2
sg290
I88
sg291
I127
sg292
I165
sa(dp325
g287
g299
sg288
I30
sg289
I1
sg290
I75
sg291
I125
sg292
I61
sa(dp326
g287
g299
sg288
I31
sg289
I0
sg290
I60
sg291
I125
sg292
I0
satRp327
(dp328
g183
I01
sg184
(lp329
g288
ag291
ag289
ag292
ag290
ag287
asg186
Nsg187
I0
sg188
g189
(g13
tRp330
sbsS'max_archive_size'
p331
NsS'solution_found_flag'
p332
I01
sS'time_taken'
p333
F679.22216296195984
sS'benchmark_name'
p334
S'M_B'
p335
sa(dp336
S'tree_str'
p337
S'b1(b1(b1(b1(ARG0,b1(ARG1,b1(b1(ARG2,b1(ARG0,ARG1)),b1(ARG0,ARG0)))),b1(ARG1,ARG2)),b1(b1(b1(b1(b1(ARG0,ARG1),ARG1),b1(b1(ARG2,b1(b1(b1(b1(b1(ARG0,ARG2),b1(b1(b1(b1(ARG1,ARG2),ARG2),ARG1),ARG1)),ARG2),ARG2),b1(b1(ARG1,ARG2),b1(b1(b1(b1(ARG0,ARG2),b1(ARG1,ARG1)),ARG0),ARG1)))),b1(ARG0,b1(b1(ARG2,b1(ARG0,ARG2)),b1(ARG0,ARG2))))),ARG1),ARG2)),b1(ARG0,b1(b1(ARG2,b1(b1(b1(b1(b1(ARG0,ARG0),b1(b1(ARG1,ARG2),ARG2)),ARG0),b1(b1(ARG1,b1(b1(ARG0,ARG2),b1(b1(b1(ARG0,ARG2),ARG2),b1(ARG0,b1(ARG2,ARG2))))),ARG1)),b1(b1(ARG1,b1(b1(b1(ARG1,ARG1),b1(ARG2,ARG0)),b1(ARG2,ARG0))),b1(b1(b1(ARG1,ARG2),ARG2),ARG2)))),b1(ARG0,ARG2))))'
p338
sS'tree_len'
p339
I137
sS'archive_size'
p340
I21549
sS'number_of_operators'
p341
I68
sS'alg_name'
p342
S'small-LTI'
p343
sS'archive_tree_deapth'
p344
I3
sS'logbook'
p345
g12
(g13
g14
(lp346
(dp347
S'status'
p348
NsS'iteration'
p349
I0
sS'count_wrongs'
p350
I10
sS'picked_node'
p351
NsS'len_master_tree'
p352
I9
sS'total_wrongs'
p353
I84
sa(dp354
g348
S'better'
p355
sg349
I1
sg350
I8
sg351
I6
sg352
I13
sg353
I83
sa(dp356
g348
g355
sg349
I2
sg350
I9
sg351
I12
sg352
I21
sg353
I116
sa(dp357
g348
g355
sg349
I3
sg350
I10
sg351
I19
sg352
I25
sg353
I111
sa(dp358
g348
g355
sg349
I4
sg350
I9
sg351
I22
sg352
I29
sg353
I91
sa(dp359
g348
S'perfect'
p360
sg349
I5
sg350
I9
sg351
I19
sg352
I37
sg353
I89
sa(dp361
g348
g360
sg349
I6
sg350
I9
sg351
I23
sg352
I45
sg353
I68
sa(dp362
g348
g360
sg349
I7
sg350
I8
sg351
I15
sg352
I53
sg353
I52
sa(dp363
g348
g355
sg349
I8
sg350
I7
sg351
I5
sg352
I61
sg353
I64
sa(dp364
g348
g355
sg349
I9
sg350
I4
sg351
I3
sg352
I69
sg353
I113
sa(dp365
g348
g360
sg349
I10
sg350
I4
sg351
I9
sg352
I73
sg353
I70
sa(dp366
g348
g355
sg349
I11
sg350
I4
sg351
I66
sg352
I81
sg353
I131
sa(dp367
g348
g360
sg349
I12
sg350
I3
sg351
I28
sg352
I81
sg353
I53
sa(dp368
g348
S'worst'
p369
sg349
I13
sg350
I4
sg351
I59
sg352
I81
sg353
I73
sa(dp370
g348
g355
sg349
I14
sg350
I3
sg351
I72
sg352
I81
sg353
I53
sa(dp371
g348
g369
sg349
I15
sg350
I4
sg351
I72
sg352
I81
sg353
I73
sa(dp372
g348
g355
sg349
I16
sg350
I3
sg351
I79
sg352
I89
sg353
I54
sa(dp373
g348
g360
sg349
I17
sg350
I2
sg351
I77
sg352
I93
sg353
I26
sa(dp374
g348
g369
sg349
I18
sg350
I4
sg351
I41
sg352
I97
sg353
I195
sa(dp375
g348
g360
sg349
I19
sg350
I4
sg351
I56
sg352
I105
sg353
I146
sa(dp376
g348
g355
sg349
I20
sg350
I2
sg351
I89
sg352
I101
sg353
I26
sa(dp377
g348
g369
sg349
I21
sg350
I4
sg351
I85
sg352
I105
sg353
I146
sa(dp378
g348
g355
sg349
I22
sg350
I2
sg351
I100
sg352
I101
sg353
I26
sa(dp379
g348
g369
sg349
I23
sg350
I4
sg351
I100
sg352
I105
sg353
I146
sa(dp380
g348
g355
sg349
I24
sg350
I2
sg351
I96
sg352
I101
sg353
I26
sa(dp381
g348
g369
sg349
I25
sg350
I4
sg351
I97
sg352
I105
sg353
I146
sa(dp382
g348
g355
sg349
I26
sg350
I2
sg351
I37
sg352
I101
sg353
I26
sa(dp383
g348
g369
sg349
I27
sg350
I4
sg351
I96
sg352
I105
sg353
I146
sa(dp384
g348
g355
sg349
I28
sg350
I2
sg351
I92
sg352
I101
sg353
I26
sa(dp385
g348
g369
sg349
I29
sg350
I3
sg351
I44
sg352
I109
sg353
I137
sa(dp386
g348
g360
sg349
I30
sg350
I2
sg351
I49
sg352
I101
sg353
I33
sa(dp387
g348
g360
sg349
I31
sg350
I1
sg351
I87
sg352
I113
sg353
I16
sa(dp388
g348
g369
sg349
I32
sg350
I2
sg351
I70
sg352
I113
sg353
I78
sa(dp389
g348
g360
sg349
I33
sg350
I2
sg351
I82
sg352
I117
sg353
I77
sa(dp390
g348
g360
sg349
I34
sg350
I2
sg351
I82
sg352
I117
sg353
I60
sa(dp391
g348
g360
sg349
I35
sg350
I2
sg351
I22
sg352
I125
sg353
I56
sa(dp392
g348
g360
sg349
I36
sg350
I2
sg351
I95
sg352
I129
sg353
I31
sa(dp393
g348
g355
sg349
I37
sg350
I2
sg351
I104
sg352
I137
sg353
I87
sa(dp394
g348
g360
sg349
I38
sg350
I1
sg351
I63
sg352
I143
sg353
I23
sa(dp395
g348
g369
sg349
I39
sg350
I2
sg351
I95
sg352
I135
sg353
I148
sa(dp396
g348
g360
sg349
I40
sg350
I2
sg351
I83
sg352
I127
sg353
I122
sa(dp397
g348
g360
sg349
I41
sg350
I1
sg351
I83
sg352
I123
sg353
I48
sa(dp398
g348
g360
sg349
I42
sg350
I1
sg351
I99
sg352
I127
sg353
I52
sa(dp399
g348
g360
sg349
I43
sg350
I1
sg351
I72
sg352
I127
sg353
I16
sa(dp400
g348
g369
sg349
I44
sg350
I2
sg351
I97
sg352
I127
sg353
I70
sa(dp401
g348
g360
sg349
I45
sg350
I2
sg351
I72
sg352
I123
sg353
I55
sa(dp402
g348
g360
sg349
I46
sg350
I2
sg351
I68
sg352
I127
sg353
I54
sa(dp403
g348
g360
sg349
I47
sg350
I2
sg351
I94
sg352
I135
sg353
I31
sa(dp404
g348
g355
sg349
I48
sg350
I2
sg351
I109
sg352
I143
sg353
I213
sa(dp405
g348
g360
sg349
I49
sg350
I1
sg351
I82
sg352
I143
sg353
I122
sa(dp406
g348
g360
sg349
I50
sg350
I1
sg351
I112
sg352
I139
sg353
I76
sa(dp407
g348
g360
sg349
I51
sg350
I1
sg351
I101
sg352
I143
sg353
I65
sa(dp408
g348
g360
sg349
I52
sg350
I1
sg351
I71
sg352
I141
sg353
I61
sa(dp409
g348
g360
sg349
I53
sg350
I0
sg351
I71
sg352
I137
sg353
I0
satRp410
(dp411
g183
I01
sg184
(lp412
g349
ag352
ag350
ag353
ag351
ag348
asg186
Nsg187
I0
sg188
g189
(g13
tRp413
sbsS'max_archive_size'
p414
NsS'solution_found_flag'
p415
I01
sS'time_taken'
p416
F1037.0645442008972
sS'benchmark_name'
p417
S'M_B'
p418
sa(dp419
S'tree_str'
p420
S'b1(b1(b1(b1(ARG0,ARG0),ARG0),b1(b1(b1(b1(b1(ARG0,ARG2),ARG2),b1(b1(b1(b1(ARG2,b1(ARG0,b1(b1(ARG0,b1(ARG1,ARG1)),b1(b1(ARG0,ARG0),ARG0)))),b1(b1(b1(b1(ARG1,ARG2),ARG0),b1(b1(ARG2,b1(ARG1,ARG2)),b1(ARG2,b1(ARG2,ARG2)))),ARG2)),b1(ARG0,b1(b1(ARG0,b1(ARG0,ARG1)),b1(ARG0,ARG0)))),b1(b1(b1(ARG0,ARG2),ARG2),ARG2))),ARG1),ARG2)),b1(ARG0,b1(b1(b1(b1(ARG1,b1(ARG2,ARG2)),b1(ARG2,b1(b1(ARG1,b1(b1(ARG0,ARG2),ARG2)),b1(b1(ARG0,b1(b1(ARG2,ARG0),ARG0)),ARG1)))),b1(ARG2,b1(b1(b1(b1(ARG0,ARG1),ARG0),b1(b1(ARG0,ARG2),ARG2)),b1(b1(ARG1,ARG0),ARG2)))),b1(ARG2,ARG2))))'
p421
sS'tree_len'
p422
I123
sS'archive_size'
p423
I21549
sS'number_of_operators'
p424
I61
sS'alg_name'
p425
S'small-LTI'
p426
sS'archive_tree_deapth'
p427
I3
sS'logbook'
p428
g12
(g13
g14
(lp429
(dp430
S'status'
p431
NsS'iteration'
p432
I0
sS'count_wrongs'
p433
I10
sS'picked_node'
p434
NsS'len_master_tree'
p435
I9
sS'total_wrongs'
p436
I84
sa(dp437
g431
S'better'
p438
sg432
I1
sg433
I11
sg434
I7
sg435
I13
sg436
I101
sa(dp439
g431
g438
sg432
I2
sg433
I10
sg434
I11
sg435
I17
sg436
I104
sa(dp440
g431
g438
sg432
I3
sg433
I9
sg434
I11
sg435
I25
sg436
I136
sa(dp441
g431
g438
sg432
I4
sg433
I11
sg434
I21
sg435
I33
sg436
I158
sa(dp442
g431
S'perfect'
p443
sg432
I5
sg433
I9
sg434
I27
sg435
I45
sg436
I98
sa(dp444
g431
g438
sg432
I6
sg433
I9
sg434
I18
sg435
I49
sg436
I115
sa(dp445
g431
g443
sg432
I7
sg433
I8
sg434
I30
sg435
I53
sg436
I78
sa(dp446
g431
g438
sg432
I8
sg433
I6
sg434
I3
sg435
I61
sg436
I164
sa(dp447
g431
g443
sg432
I9
sg433
I5
sg434
I49
sg435
I61
sg436
I108
sa(dp448
g431
g443
sg432
I10
sg433
I4
sg434
I27
sg435
I71
sg436
I82
sa(dp449
g431
g443
sg432
I11
sg433
I4
sg434
I21
sg435
I83
sg436
I60
sa(dp450
g431
g438
sg432
I12
sg433
I3
sg434
I55
sg435
I91
sg436
I108
sa(dp451
g431
g443
sg432
I13
sg433
I3
sg434
I26
sg435
I83
sg436
I59
sa(dp452
g431
g443
sg432
I14
sg433
I1
sg434
I69
sg435
I91
sg436
I15
sa(dp453
g431
S'worst'
p454
sg432
I15
sg433
I2
sg434
I4
sg435
I95
sg436
I82
sa(dp455
g431
g443
sg432
I16
sg433
I2
sg434
I38
sg435
I93
sg436
I67
sa(dp456
g431
g443
sg432
I17
sg433
I2
sg434
I45
sg435
I97
sg436
I38
sa(dp457
g431
g438
sg432
I18
sg433
I1
sg434
I76
sg435
I93
sg436
I15
sa(dp458
g431
g454
sg432
I19
sg433
I2
sg434
I92
sg435
I97
sg436
I38
sa(dp459
g431
g438
sg432
I20
sg433
I1
sg434
I92
sg435
I93
sg436
I15
sa(dp460
g431
g454
sg432
I21
sg433
I2
sg434
I35
sg435
I101
sg436
I119
sa(dp461
g431
g443
sg432
I22
sg433
I2
sg434
I43
sg435
I101
sg436
I68
sa(dp462
g431
g443
sg432
I23
sg433
I2
sg434
I84
sg435
I109
sg436
I50
sa(dp463
g431
g443
sg432
I24
sg433
I1
sg434
I37
sg435
I101
sg436
I9
sa(dp464
g431
g454
sg432
I25
sg433
I3
sg434
I74
sg435
I105
sg436
I159
sa(dp465
g431
g443
sg432
I26
sg433
I3
sg434
I90
sg435
I109
sg436
I153
sa(dp466
g431
g443
sg432
I27
sg433
I2
sg434
I87
sg435
I113
sg436
I56
sa(dp467
g431
g443
sg432
I28
sg433
I1
sg434
I91
sg435
I119
sg436
I11
sa(dp468
g431
g454
sg432
I29
sg433
I2
sg434
I97
sg435
I115
sg436
I106
sa(dp469
g431
g443
sg432
I30
sg433
I1
sg434
I82
sg435
I107
sg436
I54
sa(dp470
g431
g443
sg432
I31
sg433
I1
sg434
I83
sg435
I101
sg436
I9
sa(dp471
g431
g454
sg432
I32
sg433
I3
sg434
I88
sg435
I105
sg436
I159
sa(dp472
g431
g443
sg432
I33
sg433
I3
sg434
I96
sg435
I109
sg436
I153
sa(dp473
g431
g443
sg432
I34
sg433
I2
sg434
I93
sg435
I113
sg436
I56
sa(dp474
g431
g443
sg432
I35
sg433
I1
sg434
I96
sg435
I119
sg436
I11
sa(dp475
g431
g454
sg432
I36
sg433
I2
sg434
I97
sg435
I119
sg436
I115
sa(dp476
g431
g443
sg432
I37
sg433
I2
sg434
I111
sg435
I119
sg436
I64
sa(dp477
g431
g443
sg432
I38
sg433
I1
sg434
I91
sg435
I119
sg436
I11
sa(dp478
g431
g454
sg432
I39
sg433
I2
sg434
I104
sg435
I115
sg436
I118
sa(dp479
g431
g443
sg432
I40
sg433
I1
sg434
I100
sg435
I109
sg436
I9
sa(dp480
g431
g454
sg432
I41
sg433
I3
sg434
I107
sg435
I113
sg436
I166
sa(dp481
g431
g443
sg432
I42
sg433
I2
sg434
I67
sg435
I117
sg436
I97
sa(dp482
g431
g443
sg432
I43
sg433
I1
sg434
I44
sg435
I123
sg436
I41
sa(dp483
g431
g443
sg432
I44
sg433
I0
sg434
I96
sg435
I123
sg436
I0
satRp484
(dp485
g183
I01
sg184
(lp486
g432
ag435
ag433
ag436
ag434
ag431
asg186
Nsg187
I0
sg188
g189
(g13
tRp487
sbsS'max_archive_size'
p488
NsS'solution_found_flag'
p489
I01
sS'time_taken'
p490
F780.46869397163391
sS'benchmark_name'
p491
S'M_B'
p492
sa(dp493
S'tree_str'
p494
S'b1(b1(b1(b1(ARG0,ARG0),ARG0),b1(b1(b1(b1(b1(ARG0,ARG2),ARG2),b1(b1(b1(b1(ARG2,b1(b1(ARG1,b1(ARG1,ARG1)),b1(ARG1,b1(ARG1,ARG0)))),b1(ARG0,b1(b1(ARG2,b1(ARG0,ARG1)),b1(b1(ARG2,b1(b1(ARG1,ARG2),b1(ARG0,ARG2))),ARG2)))),b1(b1(b1(b1(ARG0,ARG2),b1(ARG0,ARG0)),b1(b1(ARG0,ARG2),b1(b1(b1(ARG0,ARG2),b1(ARG1,ARG1)),b1(ARG0,ARG0)))),ARG0)),b1(b1(b1(ARG0,ARG2),ARG2),ARG2))),ARG1),ARG2)),b1(ARG0,b1(b1(b1(b1(ARG1,b1(ARG2,b1(b1(ARG2,ARG0),ARG0))),b1(ARG2,b1(b1(ARG1,ARG0),b1(b1(ARG0,ARG2),ARG1)))),b1(ARG2,b1(b1(b1(b1(ARG0,ARG1),ARG0),b1(b1(ARG0,ARG2),ARG2)),b1(b1(ARG1,ARG0),ARG2)))),b1(ARG2,ARG2))))'
p495
sS'tree_len'
p496
I131
sS'archive_size'
p497
I21549
sS'number_of_operators'
p498
I65
sS'alg_name'
p499
S'small-LTI'
p500
sS'archive_tree_deapth'
p501
I3
sS'logbook'
p502
g12
(g13
g14
(lp503
(dp504
S'status'
p505
NsS'iteration'
p506
I0
sS'count_wrongs'
p507
I10
sS'picked_node'
p508
NsS'len_master_tree'
p509
I9
sS'total_wrongs'
p510
I84
sa(dp511
g505
S'better'
p512
sg506
I1
sg507
I11
sg508
I7
sg509
I13
sg510
I101
sa(dp513
g505
g512
sg506
I2
sg507
I10
sg508
I11
sg509
I17
sg510
I104
sa(dp514
g505
g512
sg506
I3
sg507
I9
sg508
I11
sg509
I25
sg510
I136
sa(dp515
g505
g512
sg506
I4
sg507
I10
sg508
I24
sg509
I33
sg510
I149
sa(dp516
g505
S'perfect'
p517
sg506
I5
sg507
I9
sg508
I25
sg509
I41
sg510
I95
sa(dp518
g505
g517
sg506
I6
sg507
I8
sg508
I18
sg509
I45
sg510
I73
sa(dp519
g505
g512
sg506
I7
sg507
I6
sg508
I3
sg509
I53
sg510
I145
sa(dp520
g505
g517
sg506
I8
sg507
I5
sg508
I26
sg509
I49
sg510
I97
sa(dp521
g505
g512
sg506
I9
sg507
I5
sg508
I18
sg509
I45
sg510
I94
sa(dp522
g505
g517
sg506
I10
sg507
I5
sg508
I41
sg509
I53
sg510
I87
sa(dp523
g505
g517
sg506
I11
sg507
I4
sg508
I37
sg509
I61
sg510
I60
sa(dp524
g505
g512
sg506
I12
sg507
I3
sg508
I31
sg509
I69
sg510
I59
sa(dp525
g505
g517
sg506
I13
sg507
I1
sg508
I66
sg509
I77
sg510
I15
sa(dp526
g505
S'worst'
p527
sg506
I14
sg507
I2
sg508
I26
sg509
I85
sg510
I59
sa(dp528
g505
g517
sg506
I15
sg507
I2
sg508
I29
sg509
I89
sg510
I58
sa(dp529
g505
g517
sg506
I16
sg507
I2
sg508
I69
sg509
I93
sg510
I53
sa(dp530
g505
g512
sg506
I17
sg507
I1
sg508
I74
sg509
I85
sg510
I15
sa(dp531
g505
g527
sg506
I18
sg507
I2
sg508
I25
sg509
I93
sg510
I53
sa(dp532
g505
g512
sg506
I19
sg507
I1
sg508
I24
sg509
I85
sg510
I15
sa(dp533
g505
g527
sg506
I20
sg507
I2
sg508
I25
sg509
I93
sg510
I104
sa(dp534
g505
g517
sg506
I21
sg507
I2
sg508
I37
sg509
I93
sg510
I76
sa(dp535
g505
g517
sg506
I22
sg507
I2
sg508
I66
sg509
I101
sg510
I66
sa(dp536
g505
g517
sg506
I23
sg507
I2
sg508
I29
sg509
I93
sg510
I55
sa(dp537
g505
g517
sg506
I24
sg507
I2
sg508
I72
sg509
I93
sg510
I50
sa(dp538
g505
g517
sg506
I25
sg507
I1
sg508
I83
sg509
I101
sg510
I23
sa(dp539
g505
g517
sg506
I26
sg507
I1
sg508
I66
sg509
I109
sg510
I9
sa(dp540
g505
g527
sg506
I27
sg507
I3
sg508
I4
sg509
I113
sg510
I170
sa(dp541
g505
g517
sg506
I28
sg507
I2
sg508
I67
sg509
I117
sg510
I95
sa(dp542
g505
g517
sg506
I29
sg507
I2
sg508
I91
sg509
I121
sg510
I94
sa(dp543
g505
g517
sg506
I30
sg507
I2
sg508
I90
sg509
I129
sg510
I55
sa(dp544
g505
g517
sg506
I31
sg507
I2
sg508
I80
sg509
I137
sg510
I55
sa(dp545
g505
g517
sg506
I32
sg507
I2
sg508
I84
sg509
I147
sg510
I48
sa(dp546
g505
g517
sg506
I33
sg507
I1
sg508
I33
sg509
I157
sg510
I11
sa(dp547
g505
g527
sg506
I34
sg507
I2
sg508
I99
sg509
I153
sg510
I107
sa(dp548
g505
g517
sg506
I35
sg507
I1
sg508
I106
sg509
I151
sg510
I46
sa(dp549
g505
g517
sg506
I36
sg507
I1
sg508
I127
sg509
I155
sg510
I65
sa(dp550
g505
g517
sg506
I37
sg507
I1
sg508
I115
sg509
I145
sg510
I9
sa(dp551
g505
g527
sg506
I38
sg507
I3
sg508
I121
sg509
I149
sg510
I225
sa(dp552
g505
g517
sg506
I39
sg507
I1
sg508
I75
sg509
I143
sg510
I11
sa(dp553
g505
g527
sg506
I40
sg507
I2
sg508
I123
sg509
I139
sg510
I105
sa(dp554
g505
g517
sg506
I41
sg507
I2
sg508
I112
sg509
I139
sg510
I95
sa(dp555
g505
g517
sg506
I42
sg507
I1
sg508
I113
sg509
I145
sg510
I48
sa(dp556
g505
g517
sg506
I43
sg507
I1
sg508
I123
sg509
I149
sg510
I9
sa(dp557
g505
g527
sg506
I44
sg507
I3
sg508
I133
sg509
I153
sg510
I332
sa(dp558
g505
g517
sg506
I45
sg507
I2
sg508
I134
sg509
I155
sg510
I124
sa(dp559
g505
g517
sg506
I46
sg507
I2
sg508
I72
sg509
I159
sg510
I112
sa(dp560
g505
g517
sg506
I47
sg507
I2
sg508
I53
sg509
I155
sg510
I106
sa(dp561
g505
g517
sg506
I48
sg507
I2
sg508
I49
sg509
I139
sg510
I148
sa(dp562
g505
g517
sg506
I49
sg507
I1
sg508
I94
sg509
I127
sg510
I54
sa(dp563
g505
g517
sg506
I50
sg507
I0
sg508
I108
sg509
I131
sg510
I0
satRp564
(dp565
g183
I01
sg184
(lp566
g506
ag509
ag507
ag510
ag508
ag505
asg186
Nsg187
I0
sg188
g189
(g13
tRp567
sbsS'max_archive_size'
p568
NsS'solution_found_flag'
p569
I01
sS'time_taken'
p570
F974.62254095077515
sS'benchmark_name'
p571
S'M_B'
p572
sa(dp573
S'tree_str'
p574
S'b1(b1(ARG0,b1(b1(b1(ARG0,b1(b1(ARG0,b1(b1(b1(b1(b1(ARG0,b1(ARG0,ARG2)),ARG2),b1(b1(ARG1,ARG2),ARG1)),ARG0),ARG1)),b1(b1(b1(b1(b1(ARG1,ARG2),b1(ARG2,ARG0)),b1(b1(ARG1,b1(b1(b1(ARG2,ARG1),b1(ARG2,b1(ARG1,ARG2))),ARG2)),b1(ARG0,b1(ARG1,ARG2)))),b1(ARG2,ARG0)),ARG2))),b1(b1(ARG1,b1(b1(b1(b1(ARG2,ARG1),b1(ARG2,ARG1)),b1(ARG0,ARG1)),b1(b1(ARG2,b1(b1(ARG0,b1(b1(b1(ARG1,ARG2),ARG2),ARG1)),ARG0)),ARG0))),b1(b1(b1(ARG2,ARG0),ARG2),ARG2))),b1(b1(ARG2,b1(b1(b1(ARG2,b1(b1(ARG1,ARG2),b1(b1(ARG1,ARG2),b1(ARG1,ARG2)))),ARG1),ARG1)),b1(ARG2,ARG0)))),b1(b1(b1(ARG0,ARG2),ARG2),b1(b1(b1(b1(ARG2,b1(ARG1,b1(b1(ARG2,b1(ARG1,ARG2)),b1(b1(b1(ARG1,b1(ARG2,ARG0)),b1(ARG2,ARG0)),ARG1)))),b1(ARG1,ARG1)),b1(b1(b1(ARG0,ARG2),b1(b1(b1(ARG0,b1(b1(b1(ARG0,ARG2),ARG1),b1(b1(ARG2,ARG2),b1(ARG0,ARG1)))),ARG1),b1(b1(b1(b1(ARG0,b1(ARG2,ARG1)),b1(ARG2,ARG1)),b1(ARG0,ARG0)),b1(ARG0,ARG0)))),b1(b1(b1(b1(b1(ARG1,ARG2),ARG2),b1(ARG2,ARG1)),b1(ARG2,b1(ARG2,ARG0))),ARG0))),b1(ARG0,ARG2))))'
p575
sS'tree_len'
p576
I213
sS'archive_size'
p577
I21549
sS'number_of_operators'
p578
I106
sS'alg_name'
p579
S'small-LTI'
p580
sS'archive_tree_deapth'
p581
I3
sS'logbook'
p582
g12
(g13
g14
(lp583
(dp584
S'status'
p585
NsS'iteration'
p586
I0
sS'count_wrongs'
p587
I10
sS'picked_node'
p588
NsS'len_master_tree'
p589
I9
sS'total_wrongs'
p590
I84
sa(dp591
g585
S'better'
p592
sg586
I1
sg587
I8
sg588
I6
sg589
I13
sg590
I83
sa(dp593
g585
g592
sg586
I2
sg587
I10
sg588
I12
sg589
I21
sg590
I118
sa(dp594
g585
S'perfect'
p595
sg586
I3
sg587
I9
sg588
I20
sg589
I31
sg590
I80
sa(dp596
g585
g592
sg586
I4
sg587
I9
sg588
I14
sg589
I39
sg590
I76
sa(dp597
g585
g595
sg586
I5
sg587
I9
sg588
I38
sg589
I47
sg590
I75
sa(dp598
g585
g595
sg586
I6
sg587
I8
sg588
I34
sg589
I49
sg590
I52
sa(dp599
g585
g592
sg586
I7
sg587
I5
sg588
I3
sg589
I57
sg590
I147
sa(dp600
g585
g595
sg586
I8
sg587
I5
sg588
I21
sg589
I61
sg590
I136
sa(dp601
g585
g595
sg586
I9
sg587
I5
sg588
I35
sg589
I67
sg590
I134
sa(dp602
g585
g595
sg586
I10
sg587
I5
sg588
I16
sg589
I57
sg590
I117
sa(dp603
g585
g595
sg586
I11
sg587
I5
sg588
I30
sg589
I65
sg590
I101
sa(dp604
g585
g595
sg586
I12
sg587
I5
sg588
I53
sg589
I73
sg590
I71
sa(dp605
g585
g592
sg586
I13
sg587
I6
sg588
I39
sg589
I79
sg590
I228
sa(dp606
g585
g595
sg586
I14
sg587
I6
sg588
I41
sg589
I81
sg590
I123
sa(dp607
g585
g595
sg586
I15
sg587
I6
sg588
I58
sg589
I87
sg590
I122
sa(dp608
g585
g595
sg586
I16
sg587
I5
sg588
I20
sg589
I71
sg590
I73
sa(dp609
g585
g592
sg586
I17
sg587
I5
sg588
I39
sg589
I79
sg590
I78
sa(dp610
g585
g595
sg586
I18
sg587
I4
sg588
I71
sg589
I83
sg590
I50
sa(dp611
g585
S'worst'
p612
sg586
I19
sg587
I5
sg588
I34
sg589
I71
sg590
I73
sa(dp613
g585
g592
sg586
I20
sg587
I5
sg588
I67
sg589
I79
sg590
I78
sa(dp614
g585
g595
sg586
I21
sg587
I4
sg588
I73
sg589
I87
sg590
I50
sa(dp615
g585
g612
sg586
I22
sg587
I5
sg588
I62
sg589
I71
sg590
I73
sa(dp616
g585
g592
sg586
I23
sg587
I5
sg588
I67
sg589
I79
sg590
I80
sa(dp617
g585
g595
sg586
I24
sg587
I4
sg588
I78
sg589
I87
sg590
I50
sa(dp618
g585
g612
sg586
I25
sg587
I5
sg588
I65
sg589
I71
sg590
I73
sa(dp619
g585
g592
sg586
I26
sg587
I5
sg588
I70
sg589
I79
sg590
I78
sa(dp620
g585
g595
sg586
I27
sg587
I4
sg588
I72
sg589
I83
sg590
I50
sa(dp621
g585
g612
sg586
I28
sg587
I5
sg588
I68
sg589
I71
sg590
I73
sa(dp622
g585
g592
sg586
I29
sg587
I5
sg588
I70
sg589
I79
sg590
I78
sa(dp623
g585
g595
sg586
I30
sg587
I4
sg588
I74
sg589
I87
sg590
I50
sa(dp624
g585
g612
sg586
I31
sg587
I5
sg588
I64
sg589
I71
sg590
I73
sa(dp625
g585
g592
sg586
I32
sg587
I5
sg588
I67
sg589
I79
sg590
I78
sa(dp626
g585
g595
sg586
I33
sg587
I4
sg588
I77
sg589
I83
sg590
I50
sa(dp627
g585
g612
sg586
I34
sg587
I5
sg588
I65
sg589
I75
sg590
I78
sa(dp628
g585
g595
sg586
I35
sg587
I5
sg588
I74
sg589
I83
sg590
I77
sa(dp629
g585
g592
sg586
I36
sg587
I5
sg588
I69
sg589
I91
sg590
I129
sa(dp630
g585
g595
sg586
I37
sg587
I4
sg588
I47
sg589
I91
sg590
I62
sa(dp631
g585
g595
sg586
I38
sg587
I3
sg588
I65
sg589
I99
sg590
I21
sa(dp632
g585
g612
sg586
I39
sg587
I5
sg588
I8
sg589
I107
sg590
I222
sa(dp633
g585
g595
sg586
I40
sg587
I5
sg588
I36
sg589
I111
sg590
I184
sa(dp634
g585
g595
sg586
I41
sg587
I4
sg588
I76
sg589
I115
sg590
I99
sa(dp635
g585
g595
sg586
I42
sg587
I4
sg588
I58
sg589
I117
sg590
I82
sa(dp636
g585
g595
sg586
I43
sg587
I4
sg588
I63
sg589
I125
sg590
I95
sa(dp637
g585
g595
sg586
I44
sg587
I4
sg588
I44
sg589
I129
sg590
I65
sa(dp638
g585
g595
sg586
I45
sg587
I3
sg588
I24
sg589
I137
sg590
I28
sa(dp639
g585
g595
sg586
I46
sg587
I3
sg588
I82
sg589
I145
sg590
I79
sa(dp640
g585
g595
sg586
I47
sg587
I2
sg588
I104
sg589
I145
sg590
I12
sa(dp641
g585
g612
sg586
I48
sg587
I3
sg588
I2
sg589
I149
sg590
I208
sa(dp642
g585
g595
sg586
I49
sg587
I3
sg588
I64
sg589
I149
sg590
I137
sa(dp643
g585
g595
sg586
I50
sg587
I3
sg588
I88
sg589
I153
sg590
I64
sa(dp644
g585
g595
sg586
I51
sg587
I1
sg588
I104
sg589
I165
sg590
I5
sa(dp645
g585
g612
sg586
I52
sg587
I2
sg588
I5
sg589
I173
sg590
I166
sa(dp646
g585
g595
sg586
I53
sg587
I2
sg588
I151
sg589
I171
sg590
I94
sa(dp647
g585
g595
sg586
I54
sg587
I2
sg588
I112
sg589
I171
sg590
I101
sa(dp648
g585
g595
sg586
I55
sg587
I1
sg588
I115
sg589
I171
sg590
I13
sa(dp649
g585
g612
sg586
I56
sg587
I2
sg588
I139
sg589
I163
sg590
I104
sa(dp650
g585
g595
sg586
I57
sg587
I2
sg588
I112
sg589
I163
sg590
I34
sa(dp651
g585
g595
sg586
I58
sg587
I2
sg588
I144
sg589
I163
sg590
I93
sa(dp652
g585
g595
sg586
I59
sg587
I1
sg588
I148
sg589
I163
sg590
I5
sa(dp653
g585
g612
sg586
I60
sg587
I2
sg588
I3
sg589
I171
sg590
I99
sa(dp654
g585
g595
sg586
I61
sg587
I2
sg588
I28
sg589
I171
sg590
I53
sa(dp655
g585
g595
sg586
I62
sg587
I2
sg588
I155
sg589
I175
sg590
I48
sa(dp656
g585
g595
sg586
I63
sg587
I2
sg588
I154
sg589
I181
sg590
I61
sa(dp657
g585
g595
sg586
I64
sg587
I1
sg588
I124
sg589
I189
sg590
I13
sa(dp658
g585
g612
sg586
I65
sg587
I2
sg588
I154
sg589
I189
sg590
I80
sa(dp659
g585
g595
sg586
I66
sg587
I1
sg588
I171
sg589
I191
sg590
I13
sa(dp660
g585
g612
sg586
I67
sg587
I2
sg588
I171
sg589
I191
sg590
I160
sa(dp661
g585
g595
sg586
I68
sg587
I2
sg588
I48
sg589
I181
sg590
I47
sa(dp662
g585
g595
sg586
I69
sg587
I2
sg588
I145
sg589
I185
sg590
I26
sa(dp663
g585
g612
sg586
I70
sg587
I3
sg588
I156
sg589
I185
sg590
I106
sa(dp664
g585
g595
sg586
I71
sg587
I3
sg588
I57
sg589
I187
sg590
I70
sa(dp665
g585
g595
sg586
I72
sg587
I2
sg588
I114
sg589
I191
sg590
I26
sa(dp666
g585
g612
sg586
I73
sg587
I3
sg588
I168
sg589
I183
sg590
I362
sa(dp667
g585
g595
sg586
I74
sg587
I2
sg588
I25
sg589
I175
sg590
I83
sa(dp668
g585
g595
sg586
I75
sg587
I1
sg588
I93
sg589
I171
sg590
I5
sa(dp669
g585
g612
sg586
I76
sg587
I2
sg588
I152
sg589
I179
sg590
I85
sa(dp670
g585
g595
sg586
I77
sg587
I1
sg588
I148
sg589
I185
sg590
I13
sa(dp671
g585
g612
sg586
I78
sg587
I2
sg588
I169
sg589
I185
sg590
I193
sa(dp672
g585
g595
sg586
I79
sg587
I2
sg588
I143
sg589
I177
sg590
I26
sa(dp673
g585
g612
sg586
I80
sg587
I3
sg588
I161
sg589
I177
sg590
I90
sa(dp674
g585
g595
sg586
I81
sg587
I3
sg588
I143
sg589
I177
sg590
I106
sa(dp675
g585
g595
sg586
I82
sg587
I3
sg588
I103
sg589
I181
sg590
I105
sa(dp676
g585
g595
sg586
I83
sg587
I3
sg588
I121
sg589
I187
sg590
I102
sa(dp677
g585
g595
sg586
I84
sg587
I3
sg588
I118
sg589
I191
sg590
I94
sa(dp678
g585
g595
sg586
I85
sg587
I3
sg588
I79
sg589
I199
sg590
I70
sa(dp679
g585
g595
sg586
I86
sg587
I2
sg588
I139
sg589
I203
sg590
I26
sa(dp680
g585
g612
sg586
I87
sg587
I3
sg588
I146
sg589
I195
sg590
I364
sa(dp681
g585
g595
sg586
I88
sg587
I2
sg588
I110
sg589
I183
sg590
I83
sa(dp682
g585
g595
sg586
I89
sg587
I1
sg588
I164
sg589
I179
sg590
I5
sa(dp683
g585
g612
sg586
I90
sg587
I2
sg588
I164
sg589
I187
sg590
I195
sa(dp684
g585
g595
sg586
I91
sg587
I2
sg588
I110
sg589
I187
sg590
I151
sa(dp685
g585
g595
sg586
I92
sg587
I2
sg588
I78
sg589
I179
sg590
I117
sa(dp686
g585
g595
sg586
I93
sg587
I2
sg588
I97
sg589
I179
sg590
I57
sa(dp687
g585
g595
sg586
I94
sg587
I1
sg588
I144
sg589
I187
sg590
I13
sa(dp688
g585
g612
sg586
I95
sg587
I2
sg588
I144
sg589
I179
sg590
I75
sa(dp689
g585
g595
sg586
I96
sg587
I1
sg588
I63
sg589
I179
sg590
I5
sa(dp690
g585
g612
sg586
I97
sg587
I2
sg588
I169
sg589
I187
sg590
I84
sa(dp691
g585
g595
sg586
I98
sg587
I2
sg588
I157
sg589
I191
sg590
I87
sa(dp692
g585
g595
sg586
I99
sg587
I1
sg588
I124
sg589
I195
sg590
I13
sa(dp693
g585
g612
sg586
I100
sg587
I2
sg588
I174
sg589
I195
sg590
I173
sa(dp694
g585
g595
sg586
I101
sg587
I2
sg588
I73
sg589
I187
sg590
I41
sa(dp695
g585
g595
sg586
I102
sg587
I1
sg588
I154
sg589
I195
sg590
I13
sa(dp696
g585
g612
sg586
I103
sg587
I2
sg588
I166
sg589
I195
sg590
I101
sa(dp697
g585
g595
sg586
I104
sg587
I2
sg588
I154
sg589
I191
sg590
I94
sa(dp698
g585
g595
sg586
I105
sg587
I2
sg588
I117
sg589
I191
sg590
I81
sa(dp699
g585
g595
sg586
I106
sg587
I2
sg588
I138
sg589
I195
sg590
I131
sa(dp700
g585
g595
sg586
I107
sg587
I1
sg588
I61
sg589
I193
sg590
I13
sa(dp701
g585
g612
sg586
I108
sg587
I2
sg588
I153
sg589
I193
sg590
I173
sa(dp702
g585
g595
sg586
I109
sg587
I2
sg588
I162
sg589
I185
sg590
I104
sa(dp703
g585
g595
sg586
I110
sg587
I1
sg588
I50
sg589
I187
sg590
I13
sa(dp704
g585
g612
sg586
I111
sg587
I2
sg588
I164
sg589
I187
sg590
I69
sa(dp705
g585
g595
sg586
I112
sg587
I1
sg588
I160
sg589
I191
sg590
I13
sa(dp706
g585
g612
sg586
I113
sg587
I2
sg588
I177
sg589
I183
sg590
I72
sa(dp707
g585
g595
sg586
I114
sg587
I1
sg588
I137
sg589
I191
sg590
I5
sa(dp708
g585
g612
sg586
I115
sg587
I2
sg588
I181
sg589
I199
sg590
I176
sa(dp709
g585
g595
sg586
I116
sg587
I1
sg588
I176
sg589
I195
sg590
I13
sa(dp710
g585
g612
sg586
I117
sg587
I2
sg588
I185
sg589
I187
sg590
I53
sa(dp711
g585
g595
sg586
I118
sg587
I1
sg588
I158
sg589
I191
sg590
I5
sa(dp712
g585
g612
sg586
I119
sg587
I2
sg588
I62
sg589
I199
sg590
I137
sa(dp713
g585
g595
sg586
I120
sg587
I2
sg588
I142
sg589
I199
sg590
I124
sa(dp714
g585
g595
sg586
I121
sg587
I2
sg588
I162
sg589
I201
sg590
I100
sa(dp715
g585
g595
sg586
I122
sg587
I2
sg588
I45
sg589
I205
sg590
I112
sa(dp716
g585
g595
sg586
I123
sg587
I1
sg588
I187
sg589
I203
sg590
I13
sa(dp717
g585
g612
sg586
I124
sg587
I2
sg588
I169
sg589
I203
sg590
I121
sa(dp718
g585
g595
sg586
I125
sg587
I2
sg588
I101
sg589
I199
sg590
I47
sa(dp719
g585
g595
sg586
I126
sg587
I2
sg588
I141
sg589
I203
sg590
I101
sa(dp720
g585
g595
sg586
I127
sg587
I2
sg588
I187
sg589
I203
sg590
I68
sa(dp721
g585
g595
sg586
I128
sg587
I1
sg588
I94
sg589
I203
sg590
I13
sa(dp722
g585
g612
sg586
I129
sg587
I2
sg588
I177
sg589
I203
sg590
I173
sa(dp723
g585
g595
sg586
I130
sg587
I1
sg588
I134
sg589
I203
sg590
I13
sa(dp724
g585
g612
sg586
I131
sg587
I2
sg588
I160
sg589
I203
sg590
I121
sa(dp725
g585
g595
sg586
I132
sg587
I1
sg588
I160
sg589
I199
sg590
I13
sa(dp726
g585
g612
sg586
I133
sg587
I2
sg588
I187
sg589
I199
sg590
I110
sa(dp727
g585
g595
sg586
I134
sg587
I2
sg588
I160
sg589
I199
sg590
I47
sa(dp728
g585
g595
sg586
I135
sg587
I2
sg588
I68
sg589
I203
sg590
I46
sa(dp729
g585
g595
sg586
I136
sg587
I2
sg588
I177
sg589
I207
sg590
I83
sa(dp730
g585
g595
sg586
I137
sg587
I1
sg588
I186
sg589
I207
sg590
I13
sa(dp731
g585
g612
sg586
I138
sg587
I2
sg588
I177
sg589
I207
sg590
I125
sa(dp732
g585
g595
sg586
I139
sg587
I1
sg588
I182
sg589
I207
sg590
I13
sa(dp733
g585
g612
sg586
I140
sg587
I2
sg588
I198
sg589
I211
sg590
I204
sa(dp734
g585
g595
sg586
I141
sg587
I2
sg588
I64
sg589
I205
sg590
I182
sa(dp735
g585
g595
sg586
I142
sg587
I2
sg588
I161
sg589
I203
sg590
I116
sa(dp736
g585
g595
sg586
I143
sg587
I1
sg588
I161
sg589
I203
sg590
I17
sa(dp737
g585
g595
sg586
I144
sg587
I0
sg588
I173
sg589
I213
sg590
I0
satRp738
(dp739
g183
I01
sg184
(lp740
g586
ag589
ag587
ag590
ag588
ag585
asg186
Nsg187
I0
sg188
g189
(g13
tRp741
sbsS'max_archive_size'
p742
NsS'solution_found_flag'
p743
I01
sS'time_taken'
p744
F2533.9551179409027
sS'benchmark_name'
p745
S'M_B'
p746
sa(dp747
S'tree_str'
p748
S'b1(b1(b1(b1(ARG0,b1(ARG0,ARG1)),b1(ARG0,b1(b1(ARG2,ARG0),b1(b1(ARG0,ARG1),ARG2)))),b1(b1(b1(ARG0,b1(b1(ARG0,b1(b1(b1(ARG0,b1(b1(b1(ARG0,ARG2),ARG2),ARG2)),b1(b1(b1(ARG1,ARG0),ARG0),ARG0)),ARG1)),b1(b1(b1(b1(ARG1,b1(ARG2,ARG2)),b1(b1(ARG2,ARG1),b1(ARG0,ARG2))),b1(ARG1,b1(b1(ARG1,ARG0),b1(b1(ARG0,ARG0),ARG0)))),ARG2))),b1(b1(ARG1,b1(b1(b1(ARG2,ARG1),ARG2),ARG2)),b1(ARG2,ARG1))),ARG2)),b1(b1(b1(b1(b1(ARG0,ARG2),ARG2),b1(ARG1,ARG2)),b1(ARG1,ARG2)),b1(b1(ARG2,b1(b1(b1(ARG0,ARG2),b1(ARG0,b1(b1(b1(b1(ARG0,b1(ARG1,b1(b1(ARG0,ARG1),b1(ARG0,ARG2)))),b1(ARG1,ARG0)),b1(ARG0,ARG0)),b1(b1(b1(b1(ARG1,ARG2),ARG0),ARG1),b1(ARG2,b1(ARG0,ARG1)))))),b1(b1(ARG2,ARG0),ARG0))),b1(b1(b1(ARG0,b1(ARG2,b1(b1(ARG0,b1(ARG2,b1(ARG0,b1(b1(ARG2,ARG1),ARG1)))),b1(ARG1,b1(ARG0,ARG1))))),b1(ARG2,ARG0)),ARG2))))'
p749
sS'tree_len'
p750
I175
sS'archive_size'
p751
I21549
sS'number_of_operators'
p752
I87
sS'alg_name'
p753
S'small-LTI'
p754
sS'archive_tree_deapth'
p755
I3
sS'logbook'
p756
g12
(g13
g14
(lp757
(dp758
S'status'
p759
NsS'iteration'
p760
I0
sS'count_wrongs'
p761
I10
sS'picked_node'
p762
NsS'len_master_tree'
p763
I9
sS'total_wrongs'
p764
I84
sa(dp765
g759
S'better'
p766
sg760
I1
sg761
I8
sg762
I7
sg763
I13
sg764
I83
sa(dp767
g759
g766
sg760
I2
sg761
I9
sg762
I12
sg763
I21
sg764
I110
sa(dp768
g759
S'perfect'
p769
sg760
I3
sg761
I9
sg762
I20
sg763
I31
sg764
I80
sa(dp770
g759
g766
sg760
I4
sg761
I9
sg762
I14
sg763
I39
sg764
I76
sa(dp771
g759
g769
sg760
I5
sg761
I9
sg762
I38
sg763
I47
sg764
I75
sa(dp772
g759
g769
sg760
I6
sg761
I8
sg762
I34
sg763
I49
sg764
I52
sa(dp773
g759
g766
sg760
I7
sg761
I5
sg762
I3
sg763
I57
sg764
I147
sa(dp774
g759
g769
sg760
I8
sg761
I5
sg762
I20
sg763
I61
sg764
I136
sa(dp775
g759
g769
sg760
I9
sg761
I5
sg762
I33
sg763
I67
sg764
I134
sa(dp776
g759
g769
sg760
I10
sg761
I5
sg762
I16
sg763
I57
sg764
I117
sa(dp777
g759
g769
sg760
I11
sg761
I5
sg762
I30
sg763
I65
sg764
I101
sa(dp778
g759
g769
sg760
I12
sg761
I5
sg762
I53
sg763
I73
sg764
I71
sa(dp779
g759
g766
sg760
I13
sg761
I6
sg762
I39
sg763
I79
sg764
I228
sa(dp780
g759
g769
sg760
I14
sg761
I6
sg762
I39
sg763
I81
sg764
I123
sa(dp781
g759
g769
sg760
I15
sg761
I6
sg762
I56
sg763
I87
sg764
I122
sa(dp782
g759
g769
sg760
I16
sg761
I5
sg762
I20
sg763
I71
sg764
I73
sa(dp783
g759
g766
sg760
I17
sg761
I5
sg762
I39
sg763
I79
sg764
I80
sa(dp784
g759
g769
sg760
I18
sg761
I4
sg762
I74
sg763
I87
sg764
I50
sa(dp785
g759
S'worst'
p786
sg760
I19
sg761
I5
sg762
I36
sg763
I71
sg764
I73
sa(dp787
g759
g766
sg760
I20
sg761
I5
sg762
I67
sg763
I79
sg764
I78
sa(dp788
g759
g769
sg760
I21
sg761
I4
sg762
I71
sg763
I83
sg764
I50
sa(dp789
g759
g786
sg760
I22
sg761
I5
sg762
I34
sg763
I71
sg764
I73
sa(dp790
g759
g766
sg760
I23
sg761
I5
sg762
I67
sg763
I79
sg764
I80
sa(dp791
g759
g769
sg760
I24
sg761
I4
sg762
I78
sg763
I87
sg764
I50
sa(dp792
g759
g786
sg760
I25
sg761
I5
sg762
I65
sg763
I71
sg764
I73
sa(dp793
g759
g766
sg760
I26
sg761
I5
sg762
I70
sg763
I79
sg764
I78
sa(dp794
g759
g769
sg760
I27
sg761
I4
sg762
I77
sg763
I83
sg764
I50
sa(dp795
g759
g786
sg760
I28
sg761
I5
sg762
I64
sg763
I71
sg764
I73
sa(dp796
g759
g766
sg760
I29
sg761
I5
sg762
I67
sg763
I79
sg764
I78
sa(dp797
g759
g769
sg760
I30
sg761
I4
sg762
I73
sg763
I87
sg764
I50
sa(dp798
g759
g786
sg760
I31
sg761
I5
sg762
I62
sg763
I71
sg764
I73
sa(dp799
g759
g786
sg760
I32
sg761
I6
sg762
I17
sg763
I71
sg764
I125
sa(dp800
g759
g769
sg760
I33
sg761
I5
sg762
I39
sg763
I75
sg764
I86
sa(dp801
g759
g769
sg760
I34
sg761
I5
sg762
I69
sg763
I87
sg764
I60
sa(dp802
g759
g766
sg760
I35
sg761
I5
sg762
I63
sg763
I95
sg764
I65
sa(dp803
g759
g769
sg760
I36
sg761
I4
sg762
I93
sg763
I99
sg764
I37
sa(dp804
g759
g786
sg760
I37
sg761
I5
sg762
I60
sg763
I87
sg764
I60
sa(dp805
g759
g766
sg760
I38
sg761
I5
sg762
I83
sg763
I95
sg764
I65
sa(dp806
g759
g769
sg760
I39
sg761
I4
sg762
I87
sg763
I99
sg764
I37
sa(dp807
g759
g786
sg760
I40
sg761
I5
sg762
I80
sg763
I87
sg764
I60
sa(dp808
g759
g766
sg760
I41
sg761
I5
sg762
I83
sg763
I95
sg764
I65
sa(dp809
g759
g769
sg760
I42
sg761
I4
sg762
I90
sg763
I103
sg764
I37
sa(dp810
g759
g786
sg760
I43
sg761
I5
sg762
I81
sg763
I87
sg764
I60
sa(dp811
g759
g766
sg760
I44
sg761
I5
sg762
I86
sg763
I95
sg764
I67
sa(dp812
g759
g769
sg760
I45
sg761
I4
sg762
I90
sg763
I103
sg764
I37
sa(dp813
g759
g786
sg760
I46
sg761
I5
sg762
I58
sg763
I87
sg764
I60
sa(dp814
g759
g766
sg760
I47
sg761
I5
sg762
I83
sg763
I95
sg764
I67
sa(dp815
g759
g769
sg760
I48
sg761
I4
sg762
I94
sg763
I103
sg764
I37
sa(dp816
g759
g786
sg760
I49
sg761
I5
sg762
I78
sg763
I87
sg764
I60
sa(dp817
g759
g786
sg760
I50
sg761
I5
sg762
I19
sg763
I95
sg764
I78
sa(dp818
g759
g769
sg760
I51
sg761
I5
sg762
I94
sg763
I107
sg764
I127
sa(dp819
g759
g769
sg760
I52
sg761
I5
sg762
I50
sg763
I107
sg764
I120
sa(dp820
g759
g769
sg760
I53
sg761
I5
sg762
I44
sg763
I111
sg764
I67
sa(dp821
g759
g769
sg760
I54
sg761
I4
sg762
I72
sg763
I119
sg764
I96
sa(dp822
g759
g769
sg760
I55
sg761
I3
sg762
I54
sg763
I107
sg764
I21
sa(dp823
g759
g786
sg760
I56
sg761
I4
sg762
I2
sg763
I115
sg764
I202
sa(dp824
g759
g769
sg760
I57
sg761
I3
sg762
I41
sg763
I109
sg764
I75
sa(dp825
g759
g769
sg760
I58
sg761
I2
sg762
I75
sg763
I113
sg764
I22
sa(dp826
g759
g769
sg760
I59
sg761
I2
sg762
I88
sg763
I117
sg764
I21
sa(dp827
g759
g786
sg760
I60
sg761
I3
sg762
I86
sg763
I113
sg764
I61
sa(dp828
g759
g769
sg760
I61
sg761
I2
sg762
I78
sg763
I117
sg764
I22
sa(dp829
g759
g769
sg760
I62
sg761
I2
sg762
I105
sg763
I121
sg764
I21
sa(dp830
g759
g786
sg760
I63
sg761
I3
sg762
I103
sg763
I117
sg764
I33
sa(dp831
g759
g766
sg760
I64
sg761
I2
sg762
I108
sg763
I117
sg764
I22
sa(dp832
g759
g769
sg760
I65
sg761
I2
sg762
I110
sg763
I121
sg764
I21
sa(dp833
g759
g786
sg760
I66
sg761
I3
sg762
I108
sg763
I117
sg764
I33
sa(dp834
g759
g766
sg760
I67
sg761
I2
sg762
I108
sg763
I117
sg764
I22
sa(dp835
g759
g769
sg760
I68
sg761
I2
sg762
I110
sg763
I121
sg764
I21
sa(dp836
g759
g786
sg760
I69
sg761
I3
sg762
I108
sg763
I117
sg764
I42
sa(dp837
g759
g786
sg760
I70
sg761
I4
sg762
I49
sg763
I121
sg764
I159
sa(dp838
g759
g769
sg760
I71
sg761
I3
sg762
I25
sg763
I113
sg764
I46
sa(dp839
g759
g769
sg760
I72
sg761
I2
sg762
I99
sg763
I121
sg764
I22
sa(dp840
g759
g786
sg760
I73
sg761
I3
sg762
I86
sg763
I121
sg764
I56
sa(dp841
g759
g769
sg760
I74
sg761
I3
sg762
I90
sg763
I123
sg764
I33
sa(dp842
g759
g766
sg760
I75
sg761
I2
sg762
I99
sg763
I123
sg764
I22
sa(dp843
g759
g786
sg760
I76
sg761
I3
sg762
I114
sg763
I123
sg764
I33
sa(dp844
g759
g766
sg760
I77
sg761
I2
sg762
I114
sg763
I123
sg764
I22
sa(dp845
g759
g769
sg760
I78
sg761
I2
sg762
I116
sg763
I127
sg764
I21
sa(dp846
g759
g786
sg760
I79
sg761
I3
sg762
I114
sg763
I123
sg764
I132
sa(dp847
g759
g769
sg760
I80
sg761
I3
sg762
I48
sg763
I119
sg764
I91
sa(dp848
g759
g769
sg760
I81
sg761
I3
sg762
I88
sg763
I117
sg764
I119
sa(dp849
g759
g769
sg760
I82
sg761
I3
sg762
I97
sg763
I117
sg764
I63
sa(dp850
g759
g769
sg760
I83
sg761
I3
sg762
I59
sg763
I121
sg764
I86
sa(dp851
g759
g769
sg760
I84
sg761
I2
sg762
I107
sg763
I121
sg764
I22
sa(dp852
g759
g769
sg760
I85
sg761
I2
sg762
I87
sg763
I125
sg764
I21
sa(dp853
g759
g786
sg760
I86
sg761
I3
sg762
I85
sg763
I121
sg764
I109
sa(dp854
g759
g769
sg760
I87
sg761
I2
sg762
I23
sg763
I115
sg764
I22
sa(dp855
g759
g786
sg760
I88
sg761
I3
sg762
I97
sg763
I107
sg764
I41
sa(dp856
g759
g769
sg760
I89
sg761
I3
sg762
I103
sg763
I111
sg764
I21
sa(dp857
g759
g766
sg760
I90
sg761
I2
sg762
I103
sg763
I119
sg764
I22
sa(dp858
g759
g786
sg760
I91
sg761
I3
sg762
I110
sg763
I111
sg764
I21
sa(dp859
g759
g766
sg760
I92
sg761
I2
sg762
I110
sg763
I119
sg764
I22
sa(dp860
g759
g786
sg760
I93
sg761
I3
sg762
I110
sg763
I119
sg764
I106
sa(dp861
g759
g769
sg760
I94
sg761
I2
sg762
I105
sg763
I123
sg764
I22
sa(dp862
g759
g769
sg760
I95
sg761
I2
sg762
I107
sg763
I127
sg764
I21
sa(dp863
g759
g786
sg760
I96
sg761
I3
sg762
I105
sg763
I123
sg764
I111
sa(dp864
g759
g769
sg760
I97
sg761
I2
sg762
I103
sg763
I115
sg764
I22
sa(dp865
g759
g786
sg760
I98
sg761
I3
sg762
I103
sg763
I107
sg764
I41
sa(dp866
g759
g769
sg760
I99
sg761
I3
sg762
I104
sg763
I111
sg764
I21
sa(dp867
g759
g786
sg760
I100
sg761
I4
sg762
I7
sg763
I119
sg764
I98
sa(dp868
g759
g769
sg760
I101
sg761
I3
sg762
I64
sg763
I123
sg764
I28
sa(dp869
g759
g769
sg760
I102
sg761
I3
sg762
I111
sg763
I131
sg764
I53
sa(dp870
g759
g769
sg760
I103
sg761
I3
sg762
I69
sg763
I133
sg764
I99
sa(dp871
g759
g769
sg760
I104
sg761
I3
sg762
I100
sg763
I117
sg764
I63
sa(dp872
g759
g769
sg760
I105
sg761
I3
sg762
I45
sg763
I113
sg764
I21
sa(dp873
g759
g786
sg760
I106
sg761
I4
sg762
I99
sg763
I121
sg764
I101
sa(dp874
g759
g769
sg760
I107
sg761
I4
sg762
I80
sg763
I125
sg764
I116
sa(dp875
g759
g769
sg760
I108
sg761
I3
sg762
I48
sg763
I129
sg764
I28
sa(dp876
g759
g769
sg760
I109
sg761
I3
sg762
I114
sg763
I137
sg764
I57
sa(dp877
g759
g769
sg760
I110
sg761
I3
sg762
I95
sg763
I133
sg764
I107
sa(dp878
g759
g769
sg760
I111
sg761
I3
sg762
I113
sg763
I125
sg764
I55
sa(dp879
g759
g769
sg760
I112
sg761
I3
sg762
I57
sg763
I123
sg764
I28
sa(dp880
g759
g786
sg760
I113
sg761
I4
sg762
I84
sg763
I115
sg764
I87
sa(dp881
g759
g769
sg760
I114
sg761
I3
sg762
I91
sg763
I111
sg764
I21
sa(dp882
g759
g786
sg760
I115
sg761
I4
sg762
I109
sg763
I119
sg764
I114
sa(dp883
g759
g769
sg760
I116
sg761
I3
sg762
I109
sg763
I123
sg764
I28
sa(dp884
g759
g769
sg760
I117
sg761
I3
sg762
I115
sg763
I131
sg764
I45
sa(dp885
g759
g769
sg760
I118
sg761
I3
sg762
I100
sg763
I133
sg764
I107
sa(dp886
g759
g769
sg760
I119
sg761
I3
sg762
I104
sg763
I125
sg764
I54
sa(dp887
g759
g769
sg760
I120
sg761
I3
sg762
I109
sg763
I123
sg764
I28
sa(dp888
g759
g786
sg760
I121
sg761
I4
sg762
I100
sg763
I123
sg764
I138
sa(dp889
g759
g769
sg760
I122
sg761
I4
sg762
I111
sg763
I123
sg764
I111
sa(dp890
g759
g769
sg760
I123
sg761
I3
sg762
I47
sg763
I115
sg764
I28
sa(dp891
g759
g769
sg760
I124
sg761
I3
sg762
I102
sg763
I119
sg764
I45
sa(dp892
g759
g769
sg760
I125
sg761
I3
sg762
I91
sg763
I123
sg764
I94
sa(dp893
g759
g769
sg760
I126
sg761
I3
sg762
I107
sg763
I119
sg764
I57
sa(dp894
g759
g769
sg760
I127
sg761
I3
sg762
I90
sg763
I115
sg764
I28
sa(dp895
g759
g769
sg760
I128
sg761
I3
sg762
I103
sg763
I119
sg764
I45
sa(dp896
g759
g769
sg760
I129
sg761
I3
sg762
I104
sg763
I123
sg764
I94
sa(dp897
g759
g769
sg760
I130
sg761
I3
sg762
I94
sg763
I119
sg764
I57
sa(dp898
g759
g769
sg760
I131
sg761
I3
sg762
I54
sg763
I115
sg764
I28
sa(dp899
g759
g769
sg760
I132
sg761
I3
sg762
I89
sg763
I119
sg764
I48
sa(dp900
g759
g769
sg760
I133
sg761
I3
sg762
I84
sg763
I127
sg764
I47
sa(dp901
g759
g769
sg760
I134
sg761
I3
sg762
I101
sg763
I131
sg764
I94
sa(dp902
g759
g769
sg760
I135
sg761
I3
sg762
I104
sg763
I127
sg764
I56
sa(dp903
g759
g769
sg760
I136
sg761
I3
sg762
I113
sg763
I123
sg764
I28
sa(dp904
g759
g769
sg760
I137
sg761
I3
sg762
I97
sg763
I127
sg764
I47
sa(dp905
g759
g769
sg760
I138
sg761
I3
sg762
I84
sg763
I131
sg764
I94
sa(dp906
g759
g769
sg760
I139
sg761
I3
sg762
I84
sg763
I127
sg764
I65
sa(dp907
g759
g769
sg760
I140
sg761
I3
sg762
I83
sg763
I115
sg764
I28
sa(dp908
g759
g769
sg760
I141
sg761
I3
sg762
I107
sg763
I119
sg764
I48
sa(dp909
g759
g769
sg760
I142
sg761
I3
sg762
I81
sg763
I127
sg764
I35
sa(dp910
g759
g769
sg760
I143
sg761
I3
sg762
I80
sg763
I129
sg764
I94
sa(dp911
g759
g769
sg760
I144
sg761
I3
sg762
I102
sg763
I125
sg764
I63
sa(dp912
g759
g769
sg760
I145
sg761
I3
sg762
I107
sg763
I115
sg764
I28
sa(dp913
g759
g769
sg760
I146
sg761
I3
sg762
I99
sg763
I119
sg764
I48
sa(dp914
g759
g769
sg760
I147
sg761
I3
sg762
I111
sg763
I127
sg764
I94
sa(dp915
g759
g769
sg760
I148
sg761
I3
sg762
I98
sg763
I123
sg764
I61
sa(dp916
g759
g769
sg760
I149
sg761
I3
sg762
I103
sg763
I115
sg764
I28
sa(dp917
g759
g769
sg760
I150
sg761
I3
sg762
I109
sg763
I119
sg764
I48
sa(dp918
g759
g769
sg760
I151
sg761
I3
sg762
I100
sg763
I127
sg764
I94
sa(dp919
g759
g769
sg760
I152
sg761
I3
sg762
I109
sg763
I123
sg764
I61
sa(dp920
g759
g769
sg760
I153
sg761
I3
sg762
I98
sg763
I115
sg764
I28
sa(dp921
g759
g769
sg760
I154
sg761
I3
sg762
I107
sg763
I123
sg764
I48
sa(dp922
g759
g769
sg760
I155
sg761
I3
sg762
I108
sg763
I131
sg764
I47
sa(dp923
g759
g769
sg760
I156
sg761
I3
sg762
I91
sg763
I135
sg764
I98
sa(dp924
g759
g769
sg760
I157
sg761
I3
sg762
I91
sg763
I127
sg764
I56
sa(dp925
g759
g769
sg760
I158
sg761
I3
sg762
I87
sg763
I123
sg764
I28
sa(dp926
g759
g769
sg760
I159
sg761
I3
sg762
I104
sg763
I127
sg764
I47
sa(dp927
g759
g769
sg760
I160
sg761
I3
sg762
I110
sg763
I131
sg764
I94
sa(dp928
g759
g769
sg760
I161
sg761
I3
sg762
I103
sg763
I127
sg764
I56
sa(dp929
g759
g769
sg760
I162
sg761
I3
sg762
I103
sg763
I123
sg764
I28
sa(dp930
g759
g769
sg760
I163
sg761
I3
sg762
I109
sg763
I131
sg764
I47
sa(dp931
g759
g769
sg760
I164
sg761
I3
sg762
I91
sg763
I135
sg764
I98
sa(dp932
g759
g769
sg760
I165
sg761
I3
sg762
I104
sg763
I127
sg764
I65
sa(dp933
g759
g769
sg760
I166
sg761
I3
sg762
I90
sg763
I115
sg764
I28
sa(dp934
g759
g769
sg760
I167
sg761
I3
sg762
I91
sg763
I119
sg764
I48
sa(dp935
g759
g769
sg760
I168
sg761
I3
sg762
I109
sg763
I127
sg764
I94
sa(dp936
g759
g769
sg760
I169
sg761
I3
sg762
I90
sg763
I123
sg764
I61
sa(dp937
g759
g769
sg760
I170
sg761
I3
sg762
I101
sg763
I115
sg764
I28
sa(dp938
g759
g769
sg760
I171
sg761
I3
sg762
I107
sg763
I123
sg764
I48
sa(dp939
g759
g769
sg760
I172
sg761
I3
sg762
I96
sg763
I131
sg764
I47
sa(dp940
g759
g769
sg760
I173
sg761
I3
sg762
I88
sg763
I139
sg764
I51
sa(dp941
g759
g769
sg760
I174
sg761
I3
sg762
I87
sg763
I141
sg764
I98
sa(dp942
g759
g769
sg760
I175
sg761
I3
sg762
I101
sg763
I133
sg764
I62
sa(dp943
g759
g769
sg760
I176
sg761
I3
sg762
I79
sg763
I123
sg764
I28
sa(dp944
g759
g769
sg760
I177
sg761
I3
sg762
I111
sg763
I127
sg764
I47
sa(dp945
g759
g769
sg760
I178
sg761
I3
sg762
I92
sg763
I135
sg764
I94
sa(dp946
g759
g769
sg760
I179
sg761
I3
sg762
I119
sg763
I131
sg764
I69
sa(dp947
g759
g769
sg760
I180
sg761
I3
sg762
I91
sg763
I115
sg764
I28
sa(dp948
g759
g769
sg760
I181
sg761
I3
sg762
I95
sg763
I119
sg764
I48
sa(dp949
g759
g769
sg760
I182
sg761
I3
sg762
I103
sg763
I127
sg764
I94
sa(dp950
g759
g769
sg760
I183
sg761
I3
sg762
I94
sg763
I123
sg764
I61
sa(dp951
g759
g769
sg760
I184
sg761
I3
sg762
I103
sg763
I115
sg764
I28
sa(dp952
g759
g769
sg760
I185
sg761
I3
sg762
I109
sg763
I123
sg764
I48
sa(dp953
g759
g769
sg760
I186
sg761
I3
sg762
I96
sg763
I131
sg764
I35
sa(dp954
g759
g769
sg760
I187
sg761
I3
sg762
I95
sg763
I133
sg764
I98
sa(dp955
g759
g769
sg760
I188
sg761
I2
sg762
I54
sg763
I133
sg764
I12
sa(dp956
g759
g786
sg760
I189
sg761
I3
sg762
I61
sg763
I141
sg764
I157
sa(dp957
g759
g769
sg760
I190
sg761
I2
sg762
I112
sg763
I141
sg764
I17
sa(dp958
g759
g786
sg760
I191
sg761
I3
sg762
I119
sg763
I133
sg764
I123
sa(dp959
g759
g769
sg760
I192
sg761
I2
sg762
I119
sg763
I133
sg764
I12
sa(dp960
g759
g786
sg760
I193
sg761
I3
sg762
I119
sg763
I141
sg764
I112
sa(dp961
g759
g769
sg760
I194
sg761
I3
sg762
I101
sg763
I137
sg764
I95
sa(dp962
g759
g769
sg760
I195
sg761
I2
sg762
I114
sg763
I139
sg764
I36
sa(dp963
g759
g769
sg760
I196
sg761
I1
sg762
I88
sg763
I147
sg764
I5
sa(dp964
g759
g786
sg760
I197
sg761
I2
sg762
I3
sg763
I155
sg764
I83
sa(dp965
g759
g769
sg760
I198
sg761
I1
sg762
I122
sg763
I163
sg764
I13
sa(dp966
g759
g786
sg760
I199
sg761
I2
sg762
I145
sg763
I163
sg764
I149
sa(dp967
g759
g769
sg760
I200
sg761
I2
sg762
I127
sg763
I163
sg764
I140
sa(dp968
g759
g769
sg760
I201
sg761
I2
sg762
I51
sg763
I161
sg764
I76
sa(dp969
g759
g769
sg760
I202
sg761
I2
sg762
I12
sg763
I165
sg764
I92
sa(dp970
g759
g769
sg760
I203
sg761
I2
sg762
I108
sg763
I171
sg764
I82
sa(dp971
g759
g769
sg760
I204
sg761
I2
sg762
I81
sg763
I179
sg764
I96
sa(dp972
g759
g769
sg760
I205
sg761
I2
sg762
I144
sg763
I181
sg764
I82
sa(dp973
g759
g769
sg760
I206
sg761
I2
sg762
I135
sg763
I183
sg764
I33
sa(dp974
g759
g769
sg760
I207
sg761
I1
sg762
I101
sg763
I187
sg764
I13
sa(dp975
g759
g786
sg760
I208
sg761
I2
sg762
I120
sg763
I179
sg764
I67
sa(dp976
g759
g769
sg760
I209
sg761
I2
sg762
I120
sg763
I179
sg764
I145
sa(dp977
g759
g769
sg760
I210
sg761
I1
sg762
I140
sg763
I171
sg764
I5
sa(dp978
g759
g786
sg760
I211
sg761
I2
sg762
I158
sg763
I179
sg764
I139
sa(dp979
g759
g769
sg760
I212
sg761
I2
sg762
I137
sg763
I183
sg764
I98
sa(dp980
g759
g769
sg760
I213
sg761
I2
sg762
I88
sg763
I187
sg764
I74
sa(dp981
g759
g769
sg760
I214
sg761
I1
sg762
I126
sg763
I177
sg764
I13
sa(dp982
g759
g786
sg760
I215
sg761
I2
sg762
I156
sg763
I177
sg764
I137
sa(dp983
g759
g769
sg760
I216
sg761
I2
sg762
I163
sg763
I183
sg764
I127
sa(dp984
g759
g769
sg760
I217
sg761
I2
sg762
I105
sg763
I189
sg764
I56
sa(dp985
g759
g769
sg760
I218
sg761
I2
sg762
I169
sg763
I183
sg764
I45
sa(dp986
g759
g769
sg760
I219
sg761
I2
sg762
I109
sg763
I189
sg764
I26
sa(dp987
g759
g786
sg760
I220
sg761
I3
sg762
I155
sg763
I189
sg764
I127
sa(dp988
g759
g769
sg760
I221
sg761
I3
sg762
I105
sg763
I183
sg764
I112
sa(dp989
g759
g769
sg760
I222
sg761
I3
sg762
I43
sg763
I191
sg764
I128
sa(dp990
g759
g769
sg760
I223
sg761
I3
sg762
I131
sg763
I187
sg764
I95
sa(dp991
g759
g769
sg760
I224
sg761
I2
sg762
I132
sg763
I187
sg764
I26
sa(dp992
g759
g766
sg760
I225
sg761
I1
sg762
I149
sg763
I195
sg764
I89
sa(dp993
g759
g769
sg760
I226
sg761
I1
sg762
I154
sg763
I187
sg764
I72
sa(dp994
g759
g769
sg760
I227
sg761
I1
sg762
I108
sg763
I183
sg764
I86
sa(dp995
g759
g769
sg760
I228
sg761
I0
sg762
I104
sg763
I175
sg764
I0
satRp996
(dp997
g183
I01
sg184
(lp998
g760
ag763
ag761
ag764
ag762
ag759
asg186
Nsg187
I0
sg188
g189
(g13
tRp999
sbsS'max_archive_size'
p1000
NsS'solution_found_flag'
p1001
I01
sS'time_taken'
p1002
F2839.877466917038
sS'benchmark_name'
p1003
S'M_B'
p1004
sa(dp1005
S'tree_str'
p1006
S'b1(b1(b1(b1(ARG0,b1(ARG0,ARG1)),b1(ARG0,ARG1)),b1(b1(b1(ARG0,b1(b1(ARG1,b1(b1(b1(ARG1,ARG1),b1(b1(ARG0,ARG1),b1(ARG1,ARG1))),b1(b1(ARG1,ARG2),b1(b1(b1(ARG0,b1(ARG1,ARG0)),b1(ARG2,ARG1)),b1(ARG2,b1(ARG2,ARG2)))))),b1(ARG0,b1(b1(b1(b1(ARG1,ARG1),b1(b1(ARG1,ARG1),b1(ARG0,ARG1))),ARG2),b1(b1(b1(b1(ARG2,ARG2),ARG1),b1(b1(ARG1,ARG2),ARG2)),b1(b1(ARG1,b1(ARG0,ARG2)),b1(ARG0,ARG2))))))),b1(b1(ARG1,b1(ARG2,ARG0)),b1(b1(b1(ARG2,ARG0),ARG2),ARG2))),ARG2)),b1(b1(b1(ARG0,b1(ARG2,ARG2)),b1(ARG2,ARG2)),b1(b1(ARG2,b1(b1(b1(ARG1,ARG2),b1(b1(ARG0,b1(b1(ARG1,ARG0),b1(ARG0,ARG0))),b1(b1(ARG2,b1(ARG2,ARG1)),b1(b1(ARG2,ARG1),b1(ARG1,ARG1))))),b1(b1(ARG2,b1(b1(ARG0,ARG2),ARG2)),ARG1))),b1(ARG0,ARG2))))'
p1007
sS'tree_len'
p1008
I153
sS'archive_size'
p1009
I21549
sS'number_of_operators'
p1010
I76
sS'alg_name'
p1011
S'small-LTI'
p1012
sS'archive_tree_deapth'
p1013
I3
sS'logbook'
p1014
g12
(g13
g14
(lp1015
(dp1016
S'status'
p1017
NsS'iteration'
p1018
I0
sS'count_wrongs'
p1019
I10
sS'picked_node'
p1020
NsS'len_master_tree'
p1021
I9
sS'total_wrongs'
p1022
I84
sa(dp1023
g1017
S'better'
p1024
sg1018
I1
sg1019
I8
sg1020
I7
sg1021
I13
sg1022
I83
sa(dp1025
g1017
g1024
sg1018
I2
sg1019
I10
sg1020
I12
sg1021
I21
sg1022
I120
sa(dp1026
g1017
g1024
sg1018
I3
sg1019
I8
sg1020
I15
sg1021
I29
sg1022
I72
sa(dp1027
g1017
S'perfect'
p1028
sg1018
I4
sg1019
I8
sg1020
I19
sg1021
I37
sg1022
I52
sa(dp1029
g1017
g1024
sg1018
I5
sg1019
I5
sg1020
I3
sg1021
I45
sg1022
I100
sa(dp1030
g1017
g1028
sg1018
I6
sg1019
I5
sg1020
I27
sg1021
I45
sg1022
I91
sa(dp1031
g1017
g1028
sg1018
I7
sg1019
I5
sg1020
I17
sg1021
I57
sg1022
I71
sa(dp1032
g1017
g1024
sg1018
I8
sg1019
I6
sg1020
I32
sg1021
I63
sg1022
I138
sa(dp1033
g1017
g1028
sg1018
I9
sg1019
I5
sg1020
I19
sg1021
I71
sg1022
I115
sa(dp1034
g1017
g1028
sg1018
I10
sg1019
I5
sg1020
I32
sg1021
I77
sg1022
I60
sa(dp1035
g1017
g1024
sg1018
I11
sg1019
I5
sg1020
I53
sg1021
I85
sg1022
I67
sa(dp1036
g1017
g1028
sg1018
I12
sg1019
I4
sg1020
I80
sg1021
I93
sg1022
I37
sa(dp1037
g1017
S'worst'
p1038
sg1018
I13
sg1019
I5
sg1020
I48
sg1021
I77
sg1022
I60
sa(dp1039
g1017
g1024
sg1018
I14
sg1019
I5
sg1020
I73
sg1021
I85
sg1022
I65
sa(dp1040
g1017
g1028
sg1018
I15
sg1019
I4
sg1020
I78
sg1021
I93
sg1022
I37
sa(dp1041
g1017
g1038
sg1018
I16
sg1019
I5
sg1020
I71
sg1021
I77
sg1022
I60
sa(dp1042
g1017
g1024
sg1018
I17
sg1019
I5
sg1020
I76
sg1021
I85
sg1022
I67
sa(dp1043
g1017
g1028
sg1018
I18
sg1019
I4
sg1020
I84
sg1021
I93
sg1022
I37
sa(dp1044
g1017
g1038
sg1018
I19
sg1019
I5
sg1020
I68
sg1021
I77
sg1022
I60
sa(dp1045
g1017
g1024
sg1018
I20
sg1019
I5
sg1020
I73
sg1021
I85
sg1022
I65
sa(dp1046
g1017
g1028
sg1018
I21
sg1019
I4
sg1020
I77
sg1021
I89
sg1022
I37
sa(dp1047
g1017
g1038
sg1018
I22
sg1019
I5
sg1020
I70
sg1021
I77
sg1022
I60
sa(dp1048
g1017
g1024
sg1018
I23
sg1019
I5
sg1020
I73
sg1021
I85
sg1022
I67
sa(dp1049
g1017
g1028
sg1018
I24
sg1019
I4
sg1020
I84
sg1021
I93
sg1022
I37
sa(dp1050
g1017
g1038
sg1018
I25
sg1019
I5
sg1020
I68
sg1021
I81
sg1022
I123
sa(dp1051
g1017
g1028
sg1018
I26
sg1019
I4
sg1020
I65
sg1021
I85
sg1022
I42
sa(dp1052
g1017
g1028
sg1018
I27
sg1019
I4
sg1020
I74
sg1021
I97
sg1022
I41
sa(dp1053
g1017
g1028
sg1018
I28
sg1019
I4
sg1020
I67
sg1021
I105
sg1022
I40
sa(dp1054
g1017
g1028
sg1018
I29
sg1019
I4
sg1020
I72
sg1021
I113
sg1022
I70
sa(dp1055
g1017
g1028
sg1018
I30
sg1019
I3
sg1020
I95
sg1021
I105
sg1022
I21
sa(dp1056
g1017
g1038
sg1018
I31
sg1019
I4
sg1020
I8
sg1021
I113
sg1022
I99
sa(dp1057
g1017
g1028
sg1018
I32
sg1019
I4
sg1020
I74
sg1021
I113
sg1022
I74
sa(dp1058
g1017
g1028
sg1018
I33
sg1019
I3
sg1020
I22
sg1021
I121
sg1022
I28
sa(dp1059
g1017
g1028
sg1018
I34
sg1019
I3
sg1020
I97
sg1021
I125
sg1022
I52
sa(dp1060
g1017
g1028
sg1018
I35
sg1019
I2
sg1020
I90
sg1021
I129
sg1022
I12
sa(dp1061
g1017
g1038
sg1018
I36
sg1019
I3
sg1020
I2
sg1021
I137
sg1022
I131
sa(dp1062
g1017
g1028
sg1018
I37
sg1019
I3
sg1020
I123
sg1021
I139
sg1022
I44
sa(dp1063
g1017
g1024
sg1018
I38
sg1019
I3
sg1020
I131
sg1021
I151
sg1022
I233
sa(dp1064
g1017
g1028
sg1018
I39
sg1019
I2
sg1020
I96
sg1021
I151
sg1022
I50
sa(dp1065
g1017
g1028
sg1018
I40
sg1019
I2
sg1020
I135
sg1021
I159
sg1022
I44
sa(dp1066
g1017
g1038
sg1018
I41
sg1019
I4
sg1020
I120
sg1021
I139
sg1022
I223
sa(dp1067
g1017
g1028
sg1018
I42
sg1019
I3
sg1020
I127
sg1021
I139
sg1022
I44
sa(dp1068
g1017
g1038
sg1018
I43
sg1019
I4
sg1020
I63
sg1021
I139
sg1022
I200
sa(dp1069
g1017
g1028
sg1018
I44
sg1019
I4
sg1020
I60
sg1021
I139
sg1022
I161
sa(dp1070
g1017
g1028
sg1018
I45
sg1019
I4
sg1020
I89
sg1021
I141
sg1022
I207
sa(dp1071
g1017
g1028
sg1018
I46
sg1019
I4
sg1020
I127
sg1021
I141
sg1022
I159
sa(dp1072
g1017
g1028
sg1018
I47
sg1019
I3
sg1020
I121
sg1021
I141
sg1022
I81
sa(dp1073
g1017
g1028
sg1018
I48
sg1019
I2
sg1020
I99
sg1021
I145
sg1022
I20
sa(dp1074
g1017
g1038
sg1018
I49
sg1019
I3
sg1020
I99
sg1021
I137
sg1022
I142
sa(dp1075
g1017
g1028
sg1018
I50
sg1019
I2
sg1020
I96
sg1021
I131
sg1022
I90
sa(dp1076
g1017
g1028
sg1018
I51
sg1019
I2
sg1020
I52
sg1021
I135
sg1022
I41
sa(dp1077
g1017
g1028
sg1018
I52
sg1019
I2
sg1020
I13
sg1021
I143
sg1022
I12
sa(dp1078
g1017
g1038
sg1018
I53
sg1019
I3
sg1020
I119
sg1021
I151
sg1022
I188
sa(dp1079
g1017
g1028
sg1018
I54
sg1019
I2
sg1020
I123
sg1021
I153
sg1022
I20
sa(dp1080
g1017
g1038
sg1018
I55
sg1019
I3
sg1020
I137
sg1021
I145
sg1022
I60
sa(dp1081
g1017
g1028
sg1018
I56
sg1019
I2
sg1020
I137
sg1021
I143
sg1022
I12
sa(dp1082
g1017
g1038
sg1018
I57
sg1019
I3
sg1020
I137
sg1021
I151
sg1022
I188
sa(dp1083
g1017
g1028
sg1018
I58
sg1019
I2
sg1020
I137
sg1021
I153
sg1022
I20
sa(dp1084
g1017
g1038
sg1018
I59
sg1019
I3
sg1020
I137
sg1021
I153
sg1022
I81
sa(dp1085
g1017
g1028
sg1018
I60
sg1019
I3
sg1020
I8
sg1021
I157
sg1022
I70
sa(dp1086
g1017
g1028
sg1018
I61
sg1019
I2
sg1020
I121
sg1021
I161
sg1022
I20
sa(dp1087
g1017
g1038
sg1018
I62
sg1019
I3
sg1020
I142
sg1021
I153
sg1022
I64
sa(dp1088
g1017
g1028
sg1018
I63
sg1019
I2
sg1020
I118
sg1021
I147
sg1022
I12
sa(dp1089
g1017
g1038
sg1018
I64
sg1019
I3
sg1020
I3
sg1021
I155
sg1022
I252
sa(dp1090
g1017
g1028
sg1018
I65
sg1019
I2
sg1020
I62
sg1021
I155
sg1022
I101
sa(dp1091
g1017
g1028
sg1018
I66
sg1019
I1
sg1020
I118
sg1021
I155
sg1022
I13
sa(dp1092
g1017
g1038
sg1018
I67
sg1019
I2
sg1020
I128
sg1021
I147
sg1022
I105
sa(dp1093
g1017
g1028
sg1018
I68
sg1019
I2
sg1020
I109
sg1021
I139
sg1022
I54
sa(dp1094
g1017
g1028
sg1018
I69
sg1019
I2
sg1020
I16
sg1021
I147
sg1022
I12
sa(dp1095
g1017
g1038
sg1018
I70
sg1019
I3
sg1020
I136
sg1021
I155
sg1022
I216
sa(dp1096
g1017
g1028
sg1018
I71
sg1019
I3
sg1020
I28
sg1021
I151
sg1022
I96
sa(dp1097
g1017
g1028
sg1018
I72
sg1019
I2
sg1020
I118
sg1021
I147
sg1022
I40
sa(dp1098
g1017
g1028
sg1018
I73
sg1019
I2
sg1020
I69
sg1021
I155
sg1022
I28
sa(dp1099
g1017
g1038
sg1018
I74
sg1019
I3
sg1020
I94
sg1021
I163
sg1022
I152
sa(dp1100
g1017
g1028
sg1018
I75
sg1019
I3
sg1020
I48
sg1021
I163
sg1022
I136
sa(dp1101
g1017
g1028
sg1018
I76
sg1019
I3
sg1020
I65
sg1021
I163
sg1022
I88
sa(dp1102
g1017
g1028
sg1018
I77
sg1019
I3
sg1020
I149
sg1021
I167
sg1022
I111
sa(dp1103
g1017
g1028
sg1018
I78
sg1019
I3
sg1020
I149
sg1021
I167
sg1022
I94
sa(dp1104
g1017
g1028
sg1018
I79
sg1019
I3
sg1020
I139
sg1021
I163
sg1022
I136
sa(dp1105
g1017
g1028
sg1018
I80
sg1019
I3
sg1020
I139
sg1021
I163
sg1022
I88
sa(dp1106
g1017
g1028
sg1018
I81
sg1019
I3
sg1020
I87
sg1021
I167
sg1022
I111
sa(dp1107
g1017
g1028
sg1018
I82
sg1019
I3
sg1020
I151
sg1021
I167
sg1022
I94
sa(dp1108
g1017
g1028
sg1018
I83
sg1019
I3
sg1020
I79
sg1021
I163
sg1022
I136
sa(dp1109
g1017
g1028
sg1018
I84
sg1019
I3
sg1020
I34
sg1021
I165
sg1022
I88
sa(dp1110
g1017
g1028
sg1018
I85
sg1019
I3
sg1020
I130
sg1021
I169
sg1022
I114
sa(dp1111
g1017
g1028
sg1018
I86
sg1019
I3
sg1020
I155
sg1021
I163
sg1022
I94
sa(dp1112
g1017
g1028
sg1018
I87
sg1019
I3
sg1020
I129
sg1021
I159
sg1022
I132
sa(dp1113
g1017
g1028
sg1018
I88
sg1019
I3
sg1020
I129
sg1021
I159
sg1022
I88
sa(dp1114
g1017
g1028
sg1018
I89
sg1019
I3
sg1020
I145
sg1021
I163
sg1022
I107
sa(dp1115
g1017
g1028
sg1018
I90
sg1019
I3
sg1020
I145
sg1021
I163
sg1022
I94
sa(dp1116
g1017
g1028
sg1018
I91
sg1019
I3
sg1020
I147
sg1021
I159
sg1022
I132
sa(dp1117
g1017
g1028
sg1018
I92
sg1019
I3
sg1020
I147
sg1021
I159
sg1022
I88
sa(dp1118
g1017
g1028
sg1018
I93
sg1019
I3
sg1020
I147
sg1021
I163
sg1022
I107
sa(dp1119
g1017
g1028
sg1018
I94
sg1019
I3
sg1020
I147
sg1021
I163
sg1022
I94
sa(dp1120
g1017
g1028
sg1018
I95
sg1019
I3
sg1020
I145
sg1021
I159
sg1022
I132
sa(dp1121
g1017
g1028
sg1018
I96
sg1019
I3
sg1020
I145
sg1021
I159
sg1022
I88
sa(dp1122
g1017
g1028
sg1018
I97
sg1019
I3
sg1020
I146
sg1021
I163
sg1022
I107
sa(dp1123
g1017
g1028
sg1018
I98
sg1019
I3
sg1020
I91
sg1021
I165
sg1022
I94
sa(dp1124
g1017
g1028
sg1018
I99
sg1019
I3
sg1020
I110
sg1021
I161
sg1022
I135
sa(dp1125
g1017
g1028
sg1018
I100
sg1019
I3
sg1020
I137
sg1021
I155
sg1022
I88
sa(dp1126
g1017
g1028
sg1018
I101
sg1019
I3
sg1020
I118
sg1021
I159
sg1022
I103
sa(dp1127
g1017
g1028
sg1018
I102
sg1019
I3
sg1020
I132
sg1021
I163
sg1022
I94
sa(dp1128
g1017
g1028
sg1018
I103
sg1019
I3
sg1020
I153
sg1021
I159
sg1022
I133
sa(dp1129
g1017
g1028
sg1018
I104
sg1019
I3
sg1020
I153
sg1021
I155
sg1022
I88
sa(dp1130
g1017
g1028
sg1018
I105
sg1019
I3
sg1020
I117
sg1021
I159
sg1022
I103
sa(dp1131
g1017
g1028
sg1018
I106
sg1019
I3
sg1020
I128
sg1021
I163
sg1022
I94
sa(dp1132
g1017
g1028
sg1018
I107
sg1019
I3
sg1020
I149
sg1021
I159
sg1022
I133
sa(dp1133
g1017
g1028
sg1018
I108
sg1019
I3
sg1020
I123
sg1021
I155
sg1022
I88
sa(dp1134
g1017
g1028
sg1018
I109
sg1019
I3
sg1020
I134
sg1021
I159
sg1022
I103
sa(dp1135
g1017
g1028
sg1018
I110
sg1019
I3
sg1020
I150
sg1021
I163
sg1022
I94
sa(dp1136
g1017
g1028
sg1018
I111
sg1019
I3
sg1020
I131
sg1021
I159
sg1022
I133
sa(dp1137
g1017
g1028
sg1018
I112
sg1019
I3
sg1020
I149
sg1021
I155
sg1022
I88
sa(dp1138
g1017
g1028
sg1018
I113
sg1019
I3
sg1020
I129
sg1021
I159
sg1022
I146
sa(dp1139
g1017
g1028
sg1018
I114
sg1019
I3
sg1020
I92
sg1021
I159
sg1022
I138
sa(dp1140
g1017
g1028
sg1018
I115
sg1019
I3
sg1020
I127
sg1021
I163
sg1022
I147
sa(dp1141
g1017
g1028
sg1018
I116
sg1019
I3
sg1020
I61
sg1021
I159
sg1022
I85
sa(dp1142
g1017
g1028
sg1018
I117
sg1019
I3
sg1020
I117
sg1021
I159
sg1022
I103
sa(dp1143
g1017
g1028
sg1018
I118
sg1019
I3
sg1020
I139
sg1021
I163
sg1022
I98
sa(dp1144
g1017
g1028
sg1018
I119
sg1019
I3
sg1020
I105
sg1021
I159
sg1022
I133
sa(dp1145
g1017
g1028
sg1018
I120
sg1019
I3
sg1020
I118
sg1021
I155
sg1022
I89
sa(dp1146
g1017
g1028
sg1018
I121
sg1019
I3
sg1020
I131
sg1021
I159
sg1022
I146
sa(dp1147
g1017
g1028
sg1018
I122
sg1019
I3
sg1020
I133
sg1021
I163
sg1022
I103
sa(dp1148
g1017
g1028
sg1018
I123
sg1019
I3
sg1020
I145
sg1021
I167
sg1022
I92
sa(dp1149
g1017
g1028
sg1018
I124
sg1019
I3
sg1020
I130
sg1021
I159
sg1022
I133
sa(dp1150
g1017
g1028
sg1018
I125
sg1019
I3
sg1020
I137
sg1021
I155
sg1022
I89
sa(dp1151
g1017
g1028
sg1018
I126
sg1019
I3
sg1020
I131
sg1021
I159
sg1022
I103
sa(dp1152
g1017
g1028
sg1018
I127
sg1019
I3
sg1020
I148
sg1021
I163
sg1022
I98
sa(dp1153
g1017
g1028
sg1018
I128
sg1019
I3
sg1020
I99
sg1021
I159
sg1022
I133
sa(dp1154
g1017
g1028
sg1018
I129
sg1019
I3
sg1020
I136
sg1021
I155
sg1022
I89
sa(dp1155
g1017
g1028
sg1018
I130
sg1019
I3
sg1020
I125
sg1021
I159
sg1022
I146
sa(dp1156
g1017
g1028
sg1018
I131
sg1019
I3
sg1020
I141
sg1021
I163
sg1022
I85
sa(dp1157
g1017
g1028
sg1018
I132
sg1019
I3
sg1020
I124
sg1021
I163
sg1022
I103
sa(dp1158
g1017
g1028
sg1018
I133
sg1019
I3
sg1020
I144
sg1021
I167
sg1022
I99
sa(dp1159
g1017
g1028
sg1018
I134
sg1019
I3
sg1020
I132
sg1021
I163
sg1022
I133
sa(dp1160
g1017
g1028
sg1018
I135
sg1019
I3
sg1020
I132
sg1021
I159
sg1022
I91
sa(dp1161
g1017
g1028
sg1018
I136
sg1019
I3
sg1020
I133
sg1021
I163
sg1022
I103
sa(dp1162
g1017
g1028
sg1018
I137
sg1019
I3
sg1020
I153
sg1021
I167
sg1022
I97
sa(dp1163
g1017
g1028
sg1018
I138
sg1019
I3
sg1020
I132
sg1021
I163
sg1022
I133
sa(dp1164
g1017
g1028
sg1018
I139
sg1019
I3
sg1020
I125
sg1021
I159
sg1022
I93
sa(dp1165
g1017
g1028
sg1018
I140
sg1019
I3
sg1020
I128
sg1021
I159
sg1022
I103
sa(dp1166
g1017
g1028
sg1018
I141
sg1019
I3
sg1020
I145
sg1021
I163
sg1022
I95
sa(dp1167
g1017
g1028
sg1018
I142
sg1019
I3
sg1020
I128
sg1021
I163
sg1022
I133
sa(dp1168
g1017
g1028
sg1018
I143
sg1019
I3
sg1020
I128
sg1021
I159
sg1022
I90
sa(dp1169
g1017
g1028
sg1018
I144
sg1019
I3
sg1020
I129
sg1021
I159
sg1022
I103
sa(dp1170
g1017
g1028
sg1018
I145
sg1019
I3
sg1020
I149
sg1021
I163
sg1022
I93
sa(dp1171
g1017
g1028
sg1018
I146
sg1019
I3
sg1020
I149
sg1021
I163
sg1022
I133
sa(dp1172
g1017
g1028
sg1018
I147
sg1019
I3
sg1020
I124
sg1021
I159
sg1022
I90
sa(dp1173
g1017
g1028
sg1018
I148
sg1019
I3
sg1020
I138
sg1021
I159
sg1022
I103
sa(dp1174
g1017
g1028
sg1018
I149
sg1019
I3
sg1020
I152
sg1021
I163
sg1022
I95
sa(dp1175
g1017
g1028
sg1018
I150
sg1019
I3
sg1020
I124
sg1021
I163
sg1022
I133
sa(dp1176
g1017
g1028
sg1018
I151
sg1019
I3
sg1020
I137
sg1021
I159
sg1022
I96
sa(dp1177
g1017
g1028
sg1018
I152
sg1019
I3
sg1020
I130
sg1021
I159
sg1022
I145
sa(dp1178
g1017
g1028
sg1018
I153
sg1019
I3
sg1020
I146
sg1021
I163
sg1022
I103
sa(dp1179
g1017
g1028
sg1018
I154
sg1019
I3
sg1020
I146
sg1021
I167
sg1022
I97
sa(dp1180
g1017
g1028
sg1018
I155
sg1019
I3
sg1020
I139
sg1021
I167
sg1022
I133
sa(dp1181
g1017
g1028
sg1018
I156
sg1019
I3
sg1020
I130
sg1021
I163
sg1022
I92
sa(dp1182
g1017
g1028
sg1018
I157
sg1019
I3
sg1020
I145
sg1021
I163
sg1022
I103
sa(dp1183
g1017
g1028
sg1018
I158
sg1019
I3
sg1020
I150
sg1021
I167
sg1022
I97
sa(dp1184
g1017
g1028
sg1018
I159
sg1019
I3
sg1020
I153
sg1021
I167
sg1022
I133
sa(dp1185
g1017
g1028
sg1018
I160
sg1019
I3
sg1020
I146
sg1021
I163
sg1022
I92
sa(dp1186
g1017
g1028
sg1018
I161
sg1019
I3
sg1020
I149
sg1021
I163
sg1022
I103
sa(dp1187
g1017
g1028
sg1018
I162
sg1019
I3
sg1020
I155
sg1021
I167
sg1022
I97
sa(dp1188
g1017
g1028
sg1018
I163
sg1019
I3
sg1020
I155
sg1021
I167
sg1022
I133
sa(dp1189
g1017
g1028
sg1018
I164
sg1019
I3
sg1020
I155
sg1021
I163
sg1022
I92
sa(dp1190
g1017
g1028
sg1018
I165
sg1019
I3
sg1020
I155
sg1021
I163
sg1022
I103
sa(dp1191
g1017
g1028
sg1018
I166
sg1019
I3
sg1020
I153
sg1021
I167
sg1022
I97
sa(dp1192
g1017
g1028
sg1018
I167
sg1019
I3
sg1020
I153
sg1021
I167
sg1022
I133
sa(dp1193
g1017
g1028
sg1018
I168
sg1019
I3
sg1020
I153
sg1021
I163
sg1022
I95
sa(dp1194
g1017
g1028
sg1018
I169
sg1019
I3
sg1020
I153
sg1021
I163
sg1022
I103
sa(dp1195
g1017
g1028
sg1018
I170
sg1019
I3
sg1020
I153
sg1021
I167
sg1022
I97
sa(dp1196
g1017
g1028
sg1018
I171
sg1019
I3
sg1020
I153
sg1021
I167
sg1022
I133
sa(dp1197
g1017
g1028
sg1018
I172
sg1019
I3
sg1020
I149
sg1021
I163
sg1022
I90
sa(dp1198
g1017
g1028
sg1018
I173
sg1019
I3
sg1020
I124
sg1021
I163
sg1022
I103
sa(dp1199
g1017
g1028
sg1018
I174
sg1019
I3
sg1020
I151
sg1021
I167
sg1022
I102
sa(dp1200
g1017
g1028
sg1018
I175
sg1019
I3
sg1020
I124
sg1021
I163
sg1022
I133
sa(dp1201
g1017
g1028
sg1018
I176
sg1019
I3
sg1020
I145
sg1021
I159
sg1022
I90
sa(dp1202
g1017
g1028
sg1018
I177
sg1019
I3
sg1020
I145
sg1021
I159
sg1022
I103
sa(dp1203
g1017
g1028
sg1018
I178
sg1019
I3
sg1020
I132
sg1021
I163
sg1022
I95
sa(dp1204
g1017
g1028
sg1018
I179
sg1019
I3
sg1020
I132
sg1021
I163
sg1022
I133
sa(dp1205
g1017
g1028
sg1018
I180
sg1019
I3
sg1020
I145
sg1021
I159
sg1022
I90
sa(dp1206
g1017
g1028
sg1018
I181
sg1019
I3
sg1020
I145
sg1021
I159
sg1022
I103
sa(dp1207
g1017
g1028
sg1018
I182
sg1019
I3
sg1020
I145
sg1021
I163
sg1022
I95
sa(dp1208
g1017
g1028
sg1018
I183
sg1019
I3
sg1020
I145
sg1021
I163
sg1022
I133
sa(dp1209
g1017
g1028
sg1018
I184
sg1019
I3
sg1020
I145
sg1021
I163
sg1022
I90
sa(dp1210
g1017
g1028
sg1018
I185
sg1019
I3
sg1020
I151
sg1021
I163
sg1022
I107
sa(dp1211
g1017
g1028
sg1018
I186
sg1019
I3
sg1020
I151
sg1021
I163
sg1022
I95
sa(dp1212
g1017
g1028
sg1018
I187
sg1019
I3
sg1020
I133
sg1021
I163
sg1022
I133
sa(dp1213
g1017
g1028
sg1018
I188
sg1019
I3
sg1020
I151
sg1021
I159
sg1022
I93
sa(dp1214
g1017
g1028
sg1018
I189
sg1019
I3
sg1020
I132
sg1021
I159
sg1022
I103
sa(dp1215
g1017
g1028
sg1018
I190
sg1019
I3
sg1020
I143
sg1021
I163
sg1022
I95
sa(dp1216
g1017
g1028
sg1018
I191
sg1019
I3
sg1020
I138
sg1021
I163
sg1022
I133
sa(dp1217
g1017
g1028
sg1018
I192
sg1019
I3
sg1020
I151
sg1021
I159
sg1022
I90
sa(dp1218
g1017
g1028
sg1018
I193
sg1019
I3
sg1020
I139
sg1021
I159
sg1022
I103
sa(dp1219
g1017
g1028
sg1018
I194
sg1019
I3
sg1020
I149
sg1021
I163
sg1022
I93
sa(dp1220
g1017
g1028
sg1018
I195
sg1019
I3
sg1020
I138
sg1021
I163
sg1022
I133
sa(dp1221
g1017
g1028
sg1018
I196
sg1019
I3
sg1020
I143
sg1021
I159
sg1022
I90
sa(dp1222
g1017
g1028
sg1018
I197
sg1019
I3
sg1020
I132
sg1021
I159
sg1022
I103
sa(dp1223
g1017
g1028
sg1018
I198
sg1019
I3
sg1020
I147
sg1021
I163
sg1022
I95
sa(dp1224
g1017
g1028
sg1018
I199
sg1019
I3
sg1020
I132
sg1021
I163
sg1022
I133
sa(dp1225
g1017
g1028
sg1018
I200
sg1019
I3
sg1020
I132
sg1021
I163
sg1022
I96
sa(dp1226
g1017
g1028
sg1018
I201
sg1019
I3
sg1020
I140
sg1021
I163
sg1022
I150
sa(dp1227
g1017
g1028
sg1018
I202
sg1019
I3
sg1020
I153
sg1021
I163
sg1022
I90
sa(dp1228
g1017
g1028
sg1018
I203
sg1019
I3
sg1020
I138
sg1021
I159
sg1022
I130
sa(dp1229
g1017
g1028
sg1018
I204
sg1019
I3
sg1020
I151
sg1021
I159
sg1022
I89
sa(dp1230
g1017
g1028
sg1018
I205
sg1019
I3
sg1020
I146
sg1021
I163
sg1022
I107
sa(dp1231
g1017
g1028
sg1018
I206
sg1019
I3
sg1020
I151
sg1021
I163
sg1022
I98
sa(dp1232
g1017
g1028
sg1018
I207
sg1019
I3
sg1020
I144
sg1021
I159
sg1022
I133
sa(dp1233
g1017
g1028
sg1018
I208
sg1019
I3
sg1020
I107
sg1021
I163
sg1022
I89
sa(dp1234
g1017
g1028
sg1018
I209
sg1019
I3
sg1020
I149
sg1021
I167
sg1022
I128
sa(dp1235
g1017
g1028
sg1018
I210
sg1019
I3
sg1020
I119
sg1021
I163
sg1022
I124
sa(dp1236
g1017
g1028
sg1018
I211
sg1019
I3
sg1020
I138
sg1021
I165
sg1022
I98
sa(dp1237
g1017
g1028
sg1018
I212
sg1019
I3
sg1020
I125
sg1021
I161
sg1022
I135
sa(dp1238
g1017
g1028
sg1018
I213
sg1019
I3
sg1020
I137
sg1021
I159
sg1022
I89
sa(dp1239
g1017
g1028
sg1018
I214
sg1019
I3
sg1020
I105
sg1021
I163
sg1022
I88
sa(dp1240
g1017
g1028
sg1018
I215
sg1019
I3
sg1020
I144
sg1021
I167
sg1022
I104
sa(dp1241
g1017
g1028
sg1018
I216
sg1019
I3
sg1020
I148
sg1021
I169
sg1022
I102
sa(dp1242
g1017
g1028
sg1018
I217
sg1019
I3
sg1020
I143
sg1021
I165
sg1022
I135
sa(dp1243
g1017
g1028
sg1018
I218
sg1019
I3
sg1020
I151
sg1021
I159
sg1022
I88
sa(dp1244
g1017
g1028
sg1018
I219
sg1019
I3
sg1020
I124
sg1021
I163
sg1022
I150
sa(dp1245
g1017
g1028
sg1018
I220
sg1019
I3
sg1020
I129
sg1021
I167
sg1022
I89
sa(dp1246
g1017
g1028
sg1018
I221
sg1019
I3
sg1020
I118
sg1021
I163
sg1022
I133
sa(dp1247
g1017
g1028
sg1018
I222
sg1019
I3
sg1020
I119
sg1021
I159
sg1022
I88
sa(dp1248
g1017
g1028
sg1018
I223
sg1019
I3
sg1020
I146
sg1021
I163
sg1022
I150
sa(dp1249
g1017
g1028
sg1018
I224
sg1019
I3
sg1020
I157
sg1021
I167
sg1022
I89
sa(dp1250
g1017
g1028
sg1018
I225
sg1019
I3
sg1020
I145
sg1021
I163
sg1022
I133
sa(dp1251
g1017
g1028
sg1018
I226
sg1019
I3
sg1020
I145
sg1021
I159
sg1022
I88
sa(dp1252
g1017
g1028
sg1018
I227
sg1019
I3
sg1020
I138
sg1021
I163
sg1022
I103
sa(dp1253
g1017
g1028
sg1018
I228
sg1019
I3
sg1020
I155
sg1021
I167
sg1022
I102
sa(dp1254
g1017
g1028
sg1018
I229
sg1019
I3
sg1020
I122
sg1021
I163
sg1022
I133
sa(dp1255
g1017
g1028
sg1018
I230
sg1019
I3
sg1020
I139
sg1021
I159
sg1022
I88
sa(dp1256
g1017
g1028
sg1018
I231
sg1019
I3
sg1020
I146
sg1021
I163
sg1022
I103
sa(dp1257
g1017
g1028
sg1018
I232
sg1019
I3
sg1020
I127
sg1021
I169
sg1022
I102
sa(dp1258
g1017
g1028
sg1018
I233
sg1019
I3
sg1020
I134
sg1021
I165
sg1022
I135
sa(dp1259
g1017
g1028
sg1018
I234
sg1019
I3
sg1020
I141
sg1021
I159
sg1022
I88
sa(dp1260
g1017
g1028
sg1018
I235
sg1019
I3
sg1020
I128
sg1021
I163
sg1022
I150
sa(dp1261
g1017
g1028
sg1018
I236
sg1019
I3
sg1020
I114
sg1021
I167
sg1022
I146
sa(dp1262
g1017
g1028
sg1018
I237
sg1019
I3
sg1020
I147
sg1021
I171
sg1022
I149
sa(dp1263
g1017
g1028
sg1018
I238
sg1019
I3
sg1020
I113
sg1021
I167
sg1022
I88
sa(dp1264
g1017
g1028
sg1018
I239
sg1019
I3
sg1020
I152
sg1021
I169
sg1022
I103
sa(dp1265
g1017
g1028
sg1018
I240
sg1019
I3
sg1020
I132
sg1021
I173
sg1022
I108
sa(dp1266
g1017
g1028
sg1018
I241
sg1019
I3
sg1020
I132
sg1021
I169
sg1022
I133
sa(dp1267
g1017
g1028
sg1018
I242
sg1019
I3
sg1020
I149
sg1021
I165
sg1022
I96
sa(dp1268
g1017
g1028
sg1018
I243
sg1019
I3
sg1020
I142
sg1021
I163
sg1022
I148
sa(dp1269
g1017
g1028
sg1018
I244
sg1019
I3
sg1020
I148
sg1021
I163
sg1022
I143
sa(dp1270
g1017
g1028
sg1018
I245
sg1019
I3
sg1020
I148
sg1021
I167
sg1022
I88
sa(dp1271
g1017
g1028
sg1018
I246
sg1019
I3
sg1020
I122
sg1021
I167
sg1022
I133
sa(dp1272
g1017
g1028
sg1018
I247
sg1019
I3
sg1020
I113
sg1021
I163
sg1022
I95
sa(dp1273
g1017
g1028
sg1018
I248
sg1019
I3
sg1020
I135
sg1021
I163
sg1022
I103
sa(dp1274
g1017
g1028
sg1018
I249
sg1019
I3
sg1020
I156
sg1021
I167
sg1022
I99
sa(dp1275
g1017
g1028
sg1018
I250
sg1019
I3
sg1020
I159
sg1021
I167
sg1022
I133
sa(dp1276
g1017
g1028
sg1018
I251
sg1019
I3
sg1020
I159
sg1021
I163
sg1022
I95
sa(dp1277
g1017
g1028
sg1018
I252
sg1019
I3
sg1020
I134
sg1021
I163
sg1022
I103
sa(dp1278
g1017
g1028
sg1018
I253
sg1019
I3
sg1020
I150
sg1021
I169
sg1022
I99
sa(dp1279
g1017
g1028
sg1018
I254
sg1019
I3
sg1020
I154
sg1021
I169
sg1022
I135
sa(dp1280
g1017
g1028
sg1018
I255
sg1019
I3
sg1020
I159
sg1021
I163
sg1022
I95
sa(dp1281
g1017
g1028
sg1018
I256
sg1019
I3
sg1020
I154
sg1021
I163
sg1022
I103
sa(dp1282
g1017
g1028
sg1018
I257
sg1019
I3
sg1020
I150
sg1021
I167
sg1022
I99
sa(dp1283
g1017
g1028
sg1018
I258
sg1019
I3
sg1020
I128
sg1021
I167
sg1022
I133
sa(dp1284
g1017
g1028
sg1018
I259
sg1019
I3
sg1020
I147
sg1021
I163
sg1022
I95
sa(dp1285
g1017
g1028
sg1018
I260
sg1019
I3
sg1020
I148
sg1021
I163
sg1022
I103
sa(dp1286
g1017
g1028
sg1018
I261
sg1019
I3
sg1020
I118
sg1021
I169
sg1022
I99
sa(dp1287
g1017
g1028
sg1018
I262
sg1019
I3
sg1020
I151
sg1021
I169
sg1022
I135
sa(dp1288
g1017
g1028
sg1018
I263
sg1019
I3
sg1020
I151
sg1021
I167
sg1022
I95
sa(dp1289
g1017
g1028
sg1018
I264
sg1019
I3
sg1020
I151
sg1021
I167
sg1022
I104
sa(dp1290
g1017
g1028
sg1018
I265
sg1019
I3
sg1020
I151
sg1021
I169
sg1022
I99
sa(dp1291
g1017
g1028
sg1018
I266
sg1019
I3
sg1020
I104
sg1021
I169
sg1022
I135
sa(dp1292
g1017
g1028
sg1018
I267
sg1019
I3
sg1020
I151
sg1021
I167
sg1022
I92
sa(dp1293
g1017
g1028
sg1018
I268
sg1019
I3
sg1020
I102
sg1021
I151
sg1022
I107
sa(dp1294
g1017
g1028
sg1018
I269
sg1019
I3
sg1020
I109
sg1021
I151
sg1022
I83
sa(dp1295
g1017
g1028
sg1018
I270
sg1019
I3
sg1020
I113
sg1021
I155
sg1022
I132
sa(dp1296
g1017
g1028
sg1018
I271
sg1019
I3
sg1020
I121
sg1021
I157
sg1022
I88
sa(dp1297
g1017
g1028
sg1018
I272
sg1019
I3
sg1020
I109
sg1021
I153
sg1022
I137
sa(dp1298
g1017
g1028
sg1018
I273
sg1019
I3
sg1020
I129
sg1021
I151
sg1022
I83
sa(dp1299
g1017
g1028
sg1018
I274
sg1019
I3
sg1020
I140
sg1021
I155
sg1022
I132
sa(dp1300
g1017
g1028
sg1018
I275
sg1019
I3
sg1020
I141
sg1021
I157
sg1022
I88
sa(dp1301
g1017
g1028
sg1018
I276
sg1019
I3
sg1020
I129
sg1021
I153
sg1022
I137
sa(dp1302
g1017
g1028
sg1018
I277
sg1019
I3
sg1020
I14
sg1021
I153
sg1022
I83
sa(dp1303
g1017
g1028
sg1018
I278
sg1019
I3
sg1020
I102
sg1021
I157
sg1022
I81
sa(dp1304
g1017
g1028
sg1018
I279
sg1019
I3
sg1020
I129
sg1021
I157
sg1022
I134
sa(dp1305
g1017
g1028
sg1018
I280
sg1019
I3
sg1020
I117
sg1021
I157
sg1022
I88
sa(dp1306
g1017
g1028
sg1018
I281
sg1019
I3
sg1020
I101
sg1021
I153
sg1022
I134
sa(dp1307
g1017
g1028
sg1018
I282
sg1019
I3
sg1020
I104
sg1021
I153
sg1022
I86
sa(dp1308
g1017
g1028
sg1018
I283
sg1019
I3
sg1020
I98
sg1021
I153
sg1022
I135
sa(dp1309
g1017
g1028
sg1018
I284
sg1019
I3
sg1020
I122
sg1021
I153
sg1022
I84
sa(dp1310
g1017
g1028
sg1018
I285
sg1019
I3
sg1020
I136
sg1021
I153
sg1022
I132
sa(dp1311
g1017
g1028
sg1018
I286
sg1019
I3
sg1020
I139
sg1021
I153
sg1022
I86
sa(dp1312
g1017
g1028
sg1018
I287
sg1019
I3
sg1020
I139
sg1021
I153
sg1022
I135
sa(dp1313
g1017
g1028
sg1018
I288
sg1019
I3
sg1020
I122
sg1021
I153
sg1022
I84
sa(dp1314
g1017
g1028
sg1018
I289
sg1019
I3
sg1020
I116
sg1021
I153
sg1022
I134
sa(dp1315
g1017
g1028
sg1018
I290
sg1019
I3
sg1020
I127
sg1021
I153
sg1022
I86
sa(dp1316
g1017
g1028
sg1018
I291
sg1019
I3
sg1020
I121
sg1021
I153
sg1022
I134
sa(dp1317
g1017
g1028
sg1018
I292
sg1019
I3
sg1020
I133
sg1021
I153
sg1022
I84
sa(dp1318
g1017
g1028
sg1018
I293
sg1019
I3
sg1020
I115
sg1021
I153
sg1022
I134
sa(dp1319
g1017
g1028
sg1018
I294
sg1019
I3
sg1020
I135
sg1021
I153
sg1022
I86
sa(dp1320
g1017
g1028
sg1018
I295
sg1019
I3
sg1020
I98
sg1021
I153
sg1022
I134
sa(dp1321
g1017
g1028
sg1018
I296
sg1019
I3
sg1020
I129
sg1021
I153
sg1022
I84
sa(dp1322
g1017
g1028
sg1018
I297
sg1019
I3
sg1020
I128
sg1021
I153
sg1022
I134
sa(dp1323
g1017
g1028
sg1018
I298
sg1019
I3
sg1020
I141
sg1021
I153
sg1022
I86
sa(dp1324
g1017
g1028
sg1018
I299
sg1019
I3
sg1020
I122
sg1021
I153
sg1022
I134
sa(dp1325
g1017
g1028
sg1018
I300
sg1019
I3
sg1020
I135
sg1021
I153
sg1022
I84
satRp1326
(dp1327
g183
I01
sg184
(lp1328
g1018
ag1021
ag1019
ag1022
ag1020
ag1017
asg186
Nsg187
I0
sg188
g189
(g13
tRp1329
sbsS'max_archive_size'
p1330
NsS'solution_found_flag'
p1331
I00
sS'time_taken'
p1332
F5663.9027578830719
sS'benchmark_name'
p1333
S'M_B'
p1334
sa(dp1335
S'tree_str'
p1336
S'b1(b1(b1(b1(ARG0,b1(b1(b1(ARG0,ARG1),ARG2),ARG2)),b1(ARG0,ARG1)),b1(b1(b1(ARG0,b1(b1(ARG0,b1(b1(b1(b1(b1(b1(ARG2,ARG0),b1(b1(ARG0,b1(ARG2,ARG1)),ARG2)),b1(ARG2,b1(ARG2,ARG1))),b1(ARG2,ARG0)),ARG0),ARG1)),b1(b1(b1(b1(b1(ARG1,ARG2),b1(ARG2,ARG1)),b1(b1(ARG2,ARG0),b1(ARG1,ARG1))),b1(ARG2,b1(b1(ARG0,b1(ARG0,ARG0)),b1(ARG1,ARG0)))),ARG2))),b1(b1(ARG1,b1(b1(b1(ARG2,ARG0),ARG0),ARG0)),b1(b1(b1(ARG2,ARG1),ARG1),ARG0))),ARG2)),b1(b1(b1(ARG0,ARG2),ARG2),b1(b1(b1(b1(ARG2,b1(ARG0,ARG1)),b1(ARG0,ARG1)),b1(b1(b1(ARG0,ARG2),b1(b1(b1(ARG0,b1(b1(ARG0,b1(ARG0,ARG1)),ARG0)),b1(ARG2,b1(b1(ARG0,ARG2),ARG2))),b1(b1(b1(b1(ARG0,ARG2),b1(ARG2,ARG1)),b1(b1(ARG0,ARG2),b1(ARG0,ARG1))),b1(b1(ARG0,b1(b1(ARG0,ARG0),b1(b1(b1(ARG2,ARG1),ARG1),ARG1))),ARG0)))),b1(b1(ARG2,b1(ARG0,b1(b1(ARG1,ARG0),b1(b1(ARG1,ARG1),b1(ARG0,b1(ARG2,b1(ARG1,ARG2))))))),b1(ARG0,ARG1)))),b1(ARG0,ARG2))))'
p1337
sS'tree_len'
p1338
I191
sS'archive_size'
p1339
I21549
sS'number_of_operators'
p1340
I95
sS'alg_name'
p1341
S'small-LTI'
p1342
sS'archive_tree_deapth'
p1343
I3
sS'logbook'
p1344
g12
(g13
g14
(lp1345
(dp1346
S'status'
p1347
NsS'iteration'
p1348
I0
sS'count_wrongs'
p1349
I10
sS'picked_node'
p1350
NsS'len_master_tree'
p1351
I9
sS'total_wrongs'
p1352
I84
sa(dp1353
g1347
S'better'
p1354
sg1348
I1
sg1349
I8
sg1350
I7
sg1351
I13
sg1352
I83
sa(dp1355
g1347
g1354
sg1348
I2
sg1349
I9
sg1350
I12
sg1351
I21
sg1352
I110
sa(dp1356
g1347
S'perfect'
p1357
sg1348
I3
sg1349
I9
sg1350
I20
sg1351
I31
sg1352
I80
sa(dp1358
g1347
g1354
sg1348
I4
sg1349
I9
sg1350
I14
sg1351
I39
sg1352
I76
sa(dp1359
g1347
g1357
sg1348
I5
sg1349
I9
sg1350
I38
sg1351
I47
sg1352
I75
sa(dp1360
g1347
g1357
sg1348
I6
sg1349
I8
sg1350
I34
sg1351
I49
sg1352
I52
sa(dp1361
g1347
g1354
sg1348
I7
sg1349
I5
sg1350
I3
sg1351
I57
sg1352
I147
sa(dp1362
g1347
g1357
sg1348
I8
sg1349
I5
sg1350
I20
sg1351
I61
sg1352
I136
sa(dp1363
g1347
g1357
sg1348
I9
sg1349
I5
sg1350
I33
sg1351
I67
sg1352
I134
sa(dp1364
g1347
g1357
sg1348
I10
sg1349
I5
sg1350
I16
sg1351
I57
sg1352
I117
sa(dp1365
g1347
g1357
sg1348
I11
sg1349
I5
sg1350
I30
sg1351
I65
sg1352
I101
sa(dp1366
g1347
g1357
sg1348
I12
sg1349
I5
sg1350
I53
sg1351
I73
sg1352
I71
sa(dp1367
g1347
g1354
sg1348
I13
sg1349
I6
sg1350
I39
sg1351
I79
sg1352
I228
sa(dp1368
g1347
g1357
sg1348
I14
sg1349
I6
sg1350
I41
sg1351
I81
sg1352
I123
sa(dp1369
g1347
g1357
sg1348
I15
sg1349
I6
sg1350
I58
sg1351
I87
sg1352
I122
sa(dp1370
g1347
g1357
sg1348
I16
sg1349
I5
sg1350
I20
sg1351
I71
sg1352
I73
sa(dp1371
g1347
g1354
sg1348
I17
sg1349
I5
sg1350
I39
sg1351
I79
sg1352
I80
sa(dp1372
g1347
g1357
sg1348
I18
sg1349
I4
sg1350
I78
sg1351
I87
sg1352
I50
sa(dp1373
g1347
S'worst'
p1374
sg1348
I19
sg1349
I5
sg1350
I37
sg1351
I71
sg1352
I73
sa(dp1375
g1347
g1354
sg1348
I20
sg1349
I5
sg1350
I70
sg1351
I79
sg1352
I78
sa(dp1376
g1347
g1357
sg1348
I21
sg1349
I4
sg1350
I73
sg1351
I87
sg1352
I50
sa(dp1377
g1347
g1374
sg1348
I22
sg1349
I5
sg1350
I36
sg1351
I71
sg1352
I73
sa(dp1378
g1347
g1354
sg1348
I23
sg1349
I5
sg1350
I67
sg1351
I79
sg1352
I78
sa(dp1379
g1347
g1357
sg1348
I24
sg1349
I4
sg1350
I72
sg1351
I83
sg1352
I50
sa(dp1380
g1347
g1374
sg1348
I25
sg1349
I5
sg1350
I65
sg1351
I71
sg1352
I73
sa(dp1381
g1347
g1354
sg1348
I26
sg1349
I5
sg1350
I70
sg1351
I79
sg1352
I80
sa(dp1382
g1347
g1357
sg1348
I27
sg1349
I4
sg1350
I74
sg1351
I87
sg1352
I50
sa(dp1383
g1347
g1374
sg1348
I28
sg1349
I5
sg1350
I68
sg1351
I71
sg1352
I73
sa(dp1384
g1347
g1354
sg1348
I29
sg1349
I5
sg1350
I70
sg1351
I79
sg1352
I78
sa(dp1385
g1347
g1357
sg1348
I30
sg1349
I4
sg1350
I76
sg1351
I83
sg1352
I50
sa(dp1386
g1347
g1374
sg1348
I31
sg1349
I5
sg1350
I64
sg1351
I71
sg1352
I73
sa(dp1387
g1347
g1354
sg1348
I32
sg1349
I5
sg1350
I67
sg1351
I79
sg1352
I78
sa(dp1388
g1347
g1357
sg1348
I33
sg1349
I4
sg1350
I78
sg1351
I87
sg1352
I50
sa(dp1389
g1347
g1357
sg1348
I34
sg1349
I3
sg1350
I66
sg1351
I95
sg1352
I21
sa(dp1390
g1347
g1374
sg1348
I35
sg1349
I5
sg1350
I8
sg1351
I103
sg1352
I192
sa(dp1391
g1347
g1357
sg1348
I36
sg1349
I5
sg1350
I57
sg1351
I107
sg1352
I177
sa(dp1392
g1347
g1357
sg1348
I37
sg1349
I5
sg1350
I88
sg1351
I111
sg1352
I185
sa(dp1393
g1347
g1357
sg1348
I38
sg1349
I5
sg1350
I66
sg1351
I115
sg1352
I137
sa(dp1394
g1347
g1357
sg1348
I39
sg1349
I4
sg1350
I43
sg1351
I119
sg1352
I65
sa(dp1395
g1347
g1357
sg1348
I40
sg1349
I3
sg1350
I18
sg1351
I125
sg1352
I28
sa(dp1396
g1347
g1357
sg1348
I41
sg1349
I3
sg1350
I89
sg1351
I129
sg1352
I61
sa(dp1397
g1347
g1357
sg1348
I42
sg1349
I3
sg1350
I71
sg1351
I131
sg1352
I46
sa(dp1398
g1347
g1357
sg1348
I43
sg1349
I3
sg1350
I68
sg1351
I135
sg1352
I38
sa(dp1399
g1347
g1357
sg1348
I44
sg1349
I2
sg1350
I33
sg1351
I143
sg1352
I12
sa(dp1400
g1347
g1374
sg1348
I45
sg1349
I3
sg1350
I2
sg1351
I151
sg1352
I159
sa(dp1401
g1347
g1357
sg1348
I46
sg1349
I3
sg1350
I85
sg1351
I151
sg1352
I169
sa(dp1402
g1347
g1357
sg1348
I47
sg1349
I3
sg1350
I64
sg1351
I143
sg1352
I159
sa(dp1403
g1347
g1357
sg1348
I48
sg1349
I3
sg1350
I85
sg1351
I147
sg1352
I58
sa(dp1404
g1347
g1357
sg1348
I49
sg1349
I2
sg1350
I112
sg1351
I157
sg1352
I31
sa(dp1405
g1347
g1357
sg1348
I50
sg1349
I2
sg1350
I22
sg1351
I165
sg1352
I20
sa(dp1406
g1347
g1374
sg1348
I51
sg1349
I3
sg1350
I111
sg1351
I157
sg1352
I90
sa(dp1407
g1347
g1357
sg1348
I52
sg1349
I2
sg1350
I61
sg1351
I157
sg1352
I12
sa(dp1408
g1347
g1374
sg1348
I53
sg1349
I3
sg1350
I145
sg1351
I161
sg1352
I162
sa(dp1409
g1347
g1357
sg1348
I54
sg1349
I2
sg1350
I129
sg1351
I165
sg1352
I86
sa(dp1410
g1347
g1357
sg1348
I55
sg1349
I2
sg1350
I120
sg1351
I169
sg1352
I85
sa(dp1411
g1347
g1357
sg1348
I56
sg1349
I2
sg1350
I64
sg1351
I173
sg1352
I84
sa(dp1412
g1347
g1357
sg1348
I57
sg1349
I1
sg1350
I142
sg1351
I177
sg1352
I5
sa(dp1413
g1347
g1374
sg1348
I58
sg1349
I2
sg1350
I3
sg1351
I185
sg1352
I180
sa(dp1414
g1347
g1357
sg1348
I59
sg1349
I2
sg1350
I28
sg1351
I185
sg1352
I177
sa(dp1415
g1347
g1357
sg1348
I60
sg1349
I2
sg1350
I81
sg1351
I185
sg1352
I160
sa(dp1416
g1347
g1357
sg1348
I61
sg1349
I1
sg1350
I146
sg1351
I185
sg1352
I13
sa(dp1417
g1347
g1374
sg1348
I62
sg1349
I2
sg1350
I171
sg1351
I185
sg1352
I173
sa(dp1418
g1347
g1357
sg1348
I63
sg1349
I2
sg1350
I120
sg1351
I185
sg1352
I96
sa(dp1419
g1347
g1357
sg1348
I64
sg1349
I2
sg1350
I74
sg1351
I189
sg1352
I37
sa(dp1420
g1347
g1357
sg1348
I65
sg1349
I2
sg1350
I86
sg1351
I197
sg1352
I26
sa(dp1421
g1347
g1374
sg1348
I66
sg1349
I3
sg1350
I172
sg1351
I201
sg1352
I122
sa(dp1422
g1347
g1357
sg1348
I67
sg1349
I3
sg1350
I41
sg1351
I193
sg1352
I49
sa(dp1423
g1347
g1354
sg1348
I68
sg1349
I2
sg1350
I175
sg1351
I197
sg1352
I146
sa(dp1424
g1347
g1357
sg1348
I69
sg1349
I1
sg1350
I130
sg1351
I197
sg1352
I15
sa(dp1425
g1347
g1374
sg1348
I70
sg1349
I2
sg1350
I56
sg1351
I185
sg1352
I62
sa(dp1426
g1347
g1357
sg1348
I71
sg1349
I1
sg1350
I132
sg1351
I181
sg1352
I15
sa(dp1427
g1347
g1374
sg1348
I72
sg1349
I2
sg1350
I54
sg1351
I185
sg1352
I112
sa(dp1428
g1347
g1357
sg1348
I73
sg1349
I1
sg1350
I59
sg1351
I187
sg1352
I52
sa(dp1429
g1347
g1357
sg1348
I74
sg1349
I0
sg1350
I164
sg1351
I191
sg1352
I0
satRp1430
(dp1431
g183
I01
sg184
(lp1432
g1348
ag1351
ag1349
ag1352
ag1350
ag1347
asg186
Nsg187
I0
sg188
g189
(g13
tRp1433
sbsS'max_archive_size'
p1434
NsS'solution_found_flag'
p1435
I01
sS'time_taken'
p1436
F1367.384654045105
sS'benchmark_name'
p1437
S'M_B'
p1438
sa(dp1439
S'tree_str'
p1440
S'b1(b1(ARG0,b1(b1(b1(ARG0,b1(b1(b1(b1(ARG2,b1(ARG1,ARG2)),b1(ARG1,ARG2)),b1(b1(b1(b1(b1(b1(ARG1,ARG1),b1(ARG1,ARG0)),b1(ARG1,ARG2)),ARG2),ARG2),b1(b1(ARG2,ARG2),b1(b1(ARG2,ARG1),ARG1)))),b1(ARG0,ARG2))),b1(b1(b1(b1(ARG1,b1(b1(b1(ARG0,ARG0),b1(ARG0,ARG1)),b1(ARG0,b1(ARG0,ARG0)))),b1(ARG0,ARG2)),b1(ARG0,ARG2)),b1(ARG0,ARG2))),ARG2)),b1(b1(b1(ARG0,ARG2),ARG2),b1(b1(ARG2,b1(ARG0,b1(b1(ARG1,b1(b1(b1(ARG0,ARG0),ARG1),b1(b1(b1(b1(ARG0,ARG2),ARG0),b1(ARG2,b1(ARG2,ARG1))),b1(b1(b1(ARG2,ARG2),ARG2),b1(b1(ARG1,ARG0),ARG1))))),b1(ARG2,ARG2)))),b1(ARG0,ARG2))))'
p1441
sS'tree_len'
p1442
I123
sS'archive_size'
p1443
I21549
sS'number_of_operators'
p1444
I61
sS'alg_name'
p1445
S'small-LTI'
p1446
sS'archive_tree_deapth'
p1447
I3
sS'logbook'
p1448
g12
(g13
g14
(lp1449
(dp1450
S'status'
p1451
NsS'iteration'
p1452
I0
sS'count_wrongs'
p1453
I10
sS'picked_node'
p1454
NsS'len_master_tree'
p1455
I9
sS'total_wrongs'
p1456
I84
sa(dp1457
g1451
S'better'
p1458
sg1452
I1
sg1453
I8
sg1454
I6
sg1455
I13
sg1456
I83
sa(dp1459
g1451
g1458
sg1452
I2
sg1453
I9
sg1454
I12
sg1455
I21
sg1456
I116
sa(dp1460
g1451
g1458
sg1452
I3
sg1453
I10
sg1454
I18
sg1455
I25
sg1456
I111
sa(dp1461
g1451
g1458
sg1452
I4
sg1453
I9
sg1454
I22
sg1455
I29
sg1456
I91
sa(dp1462
g1451
S'perfect'
p1463
sg1452
I5
sg1453
I9
sg1454
I19
sg1455
I37
sg1456
I89
sa(dp1464
g1451
g1463
sg1452
I6
sg1453
I9
sg1454
I27
sg1455
I45
sg1456
I68
sa(dp1465
g1451
g1458
sg1452
I7
sg1453
I8
sg1454
I9
sg1455
I53
sg1456
I56
sa(dp1466
g1451
g1458
sg1452
I8
sg1453
I6
sg1454
I3
sg1455
I61
sg1456
I177
sa(dp1467
g1451
g1463
sg1452
I9
sg1453
I6
sg1454
I40
sg1455
I65
sg1456
I148
sa(dp1468
g1451
g1463
sg1452
I10
sg1453
I6
sg1454
I32
sg1455
I65
sg1456
I128
sa(dp1469
g1451
g1458
sg1452
I11
sg1453
I6
sg1454
I9
sg1455
I69
sg1456
I111
sa(dp1470
g1451
g1458
sg1452
I12
sg1453
I6
sg1454
I43
sg1455
I77
sg1456
I118
sa(dp1471
g1451
g1463
sg1452
I13
sg1453
I5
sg1454
I74
sg1455
I85
sg1456
I84
sa(dp1472
g1451
g1458
sg1452
I14
sg1453
I4
sg1454
I54
sg1455
I93
sg1456
I160
sa(dp1473
g1451
g1463
sg1452
I15
sg1453
I3
sg1454
I56
sg1455
I93
sg1456
I72
sa(dp1474
g1451
g1458
sg1452
I16
sg1453
I3
sg1454
I85
sg1455
I101
sg1456
I114
sa(dp1475
g1451
g1463
sg1452
I17
sg1453
I3
sg1454
I68
sg1455
I103
sg1456
I85
sa(dp1476
g1451
g1463
sg1452
I18
sg1453
I3
sg1454
I32
sg1455
I101
sg1456
I61
sa(dp1477
g1451
g1463
sg1452
I19
sg1453
I3
sg1454
I67
sg1455
I107
sg1456
I120
sa(dp1478
g1451
g1463
sg1452
I20
sg1453
I2
sg1454
I20
sg1455
I105
sg1456
I34
sa(dp1479
g1451
g1463
sg1452
I21
sg1453
I1
sg1454
I14
sg1455
I113
sg1456
I7
sa(dp1480
g1451
S'worst'
p1481
sg1452
I22
sg1453
I2
sg1454
I4
sg1455
I121
sg1456
I103
sa(dp1482
g1451
g1463
sg1452
I23
sg1453
I2
sg1454
I72
sg1455
I121
sg1456
I97
sa(dp1483
g1451
g1463
sg1452
I24
sg1453
I2
sg1454
I43
sg1455
I117
sg1456
I38
sa(dp1484
g1451
g1458
sg1452
I25
sg1453
I2
sg1454
I2
sg1455
I121
sg1456
I139
sa(dp1485
g1451
g1463
sg1452
I26
sg1453
I2
sg1454
I90
sg1455
I121
sg1456
I68
sa(dp1486
g1451
g1463
sg1452
I27
sg1453
I2
sg1454
I67
sg1455
I127
sg1456
I67
sa(dp1487
g1451
g1463
sg1452
I28
sg1453
I1
sg1454
I67
sg1455
I133
sg1456
I22
sa(dp1488
g1451
g1481
sg1452
I29
sg1453
I2
sg1454
I80
sg1455
I125
sg1456
I165
sa(dp1489
g1451
g1463
sg1452
I30
sg1453
I1
sg1454
I67
sg1455
I123
sg1456
I61
sa(dp1490
g1451
g1463
sg1452
I31
sg1453
I0
sg1454
I60
sg1455
I123
sg1456
I0
satRp1491
(dp1492
g183
I01
sg184
(lp1493
g1452
ag1455
ag1453
ag1456
ag1454
ag1451
asg186
Nsg187
I0
sg188
g189
(g13
tRp1494
sbsS'max_archive_size'
p1495
NsS'solution_found_flag'
p1496
I01
sS'time_taken'
p1497
F5797.5061500072479
sS'benchmark_name'
p1498
S'M_B'
p1499
sa(dp1500
S'tree_str'
p1501
S'b1(b1(b1(b1(ARG0,b1(ARG1,b1(b1(ARG2,b1(ARG0,ARG1)),b1(ARG0,ARG0)))),b1(ARG1,ARG2)),b1(b1(b1(b1(b1(ARG0,ARG1),ARG1),b1(b1(ARG2,b1(b1(b1(b1(b1(ARG0,b1(ARG2,ARG2)),b1(ARG0,b1(ARG0,ARG1))),ARG2),b1(b1(ARG2,ARG0),b1(b1(ARG0,ARG1),ARG1))),b1(b1(ARG1,ARG2),b1(b1(ARG2,ARG1),ARG1)))),b1(ARG0,b1(b1(ARG1,b1(ARG0,ARG1)),b1(ARG0,ARG2))))),ARG1),ARG2)),b1(ARG0,b1(b1(ARG2,b1(b1(b1(b1(b1(ARG0,ARG0),b1(b1(ARG1,ARG2),ARG2)),ARG0),b1(b1(ARG1,b1(b1(ARG0,ARG2),ARG2)),ARG1)),b1(b1(ARG1,b1(ARG1,b1(b1(ARG2,ARG0),b1(b1(ARG0,ARG1),ARG1)))),b1(ARG1,ARG2)))),b1(ARG0,ARG2))))'
p1502
sS'tree_len'
p1503
I123
sS'archive_size'
p1504
I21549
sS'number_of_operators'
p1505
I61
sS'alg_name'
p1506
S'small-LTI'
p1507
sS'archive_tree_deapth'
p1508
I3
sS'logbook'
p1509
g12
(g13
g14
(lp1510
(dp1511
S'status'
p1512
NsS'iteration'
p1513
I0
sS'count_wrongs'
p1514
I10
sS'picked_node'
p1515
NsS'len_master_tree'
p1516
I9
sS'total_wrongs'
p1517
I84
sa(dp1518
g1512
S'better'
p1519
sg1513
I1
sg1514
I8
sg1515
I7
sg1516
I13
sg1517
I83
sa(dp1520
g1512
g1519
sg1513
I2
sg1514
I9
sg1515
I12
sg1516
I21
sg1517
I116
sa(dp1521
g1512
g1519
sg1513
I3
sg1514
I10
sg1515
I19
sg1516
I25
sg1517
I111
sa(dp1522
g1512
g1519
sg1513
I4
sg1514
I9
sg1515
I22
sg1516
I29
sg1517
I91
sa(dp1523
g1512
S'perfect'
p1524
sg1513
I5
sg1514
I9
sg1515
I19
sg1516
I37
sg1517
I89
sa(dp1525
g1512
g1524
sg1513
I6
sg1514
I9
sg1515
I23
sg1516
I45
sg1517
I68
sa(dp1526
g1512
g1524
sg1513
I7
sg1514
I8
sg1515
I15
sg1516
I53
sg1517
I52
sa(dp1527
g1512
g1519
sg1513
I8
sg1514
I7
sg1515
I5
sg1516
I61
sg1517
I64
sa(dp1528
g1512
g1519
sg1513
I9
sg1514
I4
sg1515
I3
sg1516
I69
sg1517
I113
sa(dp1529
g1512
g1524
sg1513
I10
sg1514
I4
sg1515
I9
sg1516
I73
sg1517
I70
sa(dp1530
g1512
g1519
sg1513
I11
sg1514
I4
sg1515
I66
sg1516
I81
sg1517
I131
sa(dp1531
g1512
g1524
sg1513
I12
sg1514
I3
sg1515
I28
sg1516
I81
sg1517
I53
sa(dp1532
g1512
S'worst'
p1533
sg1513
I13
sg1514
I4
sg1515
I59
sg1516
I81
sg1517
I73
sa(dp1534
g1512
g1519
sg1513
I14
sg1514
I3
sg1515
I72
sg1516
I81
sg1517
I53
sa(dp1535
g1512
g1533
sg1513
I15
sg1514
I4
sg1515
I72
sg1516
I81
sg1517
I73
sa(dp1536
g1512
g1519
sg1513
I16
sg1514
I3
sg1515
I79
sg1516
I89
sg1517
I54
sa(dp1537
g1512
g1524
sg1513
I17
sg1514
I2
sg1515
I75
sg1516
I93
sg1517
I26
sa(dp1538
g1512
g1533
sg1513
I18
sg1514
I4
sg1515
I41
sg1516
I97
sg1517
I195
sa(dp1539
g1512
g1524
sg1513
I19
sg1514
I4
sg1515
I57
sg1516
I105
sg1517
I146
sa(dp1540
g1512
g1519
sg1513
I20
sg1514
I2
sg1515
I91
sg1516
I101
sg1517
I26
sa(dp1541
g1512
g1533
sg1513
I21
sg1514
I4
sg1515
I87
sg1516
I105
sg1517
I146
sa(dp1542
g1512
g1519
sg1513
I22
sg1514
I2
sg1515
I37
sg1516
I101
sg1517
I26
sa(dp1543
g1512
g1533
sg1513
I23
sg1514
I4
sg1515
I97
sg1516
I105
sg1517
I146
sa(dp1544
g1512
g1519
sg1513
I24
sg1514
I2
sg1515
I92
sg1516
I101
sg1517
I26
sa(dp1545
g1512
g1533
sg1513
I25
sg1514
I4
sg1515
I96
sg1516
I105
sg1517
I146
sa(dp1546
g1512
g1519
sg1513
I26
sg1514
I2
sg1515
I96
sg1516
I101
sg1517
I26
sa(dp1547
g1512
g1533
sg1513
I27
sg1514
I3
sg1515
I44
sg1516
I109
sg1517
I137
sa(dp1548
g1512
g1524
sg1513
I28
sg1514
I2
sg1515
I49
sg1516
I101
sg1517
I33
sa(dp1549
g1512
g1524
sg1513
I29
sg1514
I1
sg1515
I87
sg1516
I113
sg1517
I16
sa(dp1550
g1512
g1533
sg1513
I30
sg1514
I2
sg1515
I70
sg1516
I113
sg1517
I78
sa(dp1551
g1512
g1524
sg1513
I31
sg1514
I2
sg1515
I82
sg1516
I117
sg1517
I77
sa(dp1552
g1512
g1524
sg1513
I32
sg1514
I2
sg1515
I83
sg1516
I117
sg1517
I60
sa(dp1553
g1512
g1524
sg1513
I33
sg1514
I2
sg1515
I16
sg1516
I125
sg1517
I56
sa(dp1554
g1512
g1524
sg1513
I34
sg1514
I2
sg1515
I96
sg1516
I129
sg1517
I58
sa(dp1555
g1512
g1524
sg1513
I35
sg1514
I2
sg1515
I97
sg1516
I133
sg1517
I31
sa(dp1556
g1512
g1519
sg1513
I36
sg1514
I2
sg1515
I105
sg1516
I141
sg1517
I192
sa(dp1557
g1512
g1524
sg1513
I37
sg1514
I1
sg1515
I88
sg1516
I129
sg1517
I84
sa(dp1558
g1512
g1524
sg1513
I38
sg1514
I1
sg1515
I77
sg1516
I123
sg1517
I65
sa(dp1559
g1512
g1524
sg1513
I39
sg1514
I1
sg1515
I31
sg1516
I123
sg1517
I48
sa(dp1560
g1512
g1524
sg1513
I40
sg1514
I0
sg1515
I98
sg1516
I123
sg1517
I0
satRp1561
(dp1562
g183
I01
sg184
(lp1563
g1513
ag1516
ag1514
ag1517
ag1515
ag1512
asg186
Nsg187
I0
sg188
g189
(g13
tRp1564
sbsS'max_archive_size'
p1565
NsS'solution_found_flag'
p1566
I01
sS'time_taken'
p1567
F7055.3024699687958
sS'benchmark_name'
p1568
S'M_B'
p1569
sa(dp1570
S'tree_str'
p1571
S'b1(b1(b1(b1(ARG0,ARG1),ARG1),b1(b1(b1(ARG0,b1(b1(ARG0,b1(b1(b1(b1(ARG0,b1(ARG2,ARG2)),b1(b1(ARG2,ARG2),b1(ARG2,ARG2))),ARG0),ARG1)),b1(b1(b1(b1(b1(ARG1,ARG2),b1(ARG2,ARG1)),b1(b1(ARG2,ARG1),b1(ARG0,ARG0))),b1(ARG2,b1(ARG2,b1(b1(ARG0,ARG2),ARG0)))),ARG2))),b1(b1(ARG1,b1(b1(b1(ARG2,ARG0),ARG2),ARG2)),b1(ARG2,ARG0))),ARG2)),b1(b1(b1(ARG0,ARG2),ARG2),b1(b1(ARG2,b1(b1(b1(b1(b1(ARG0,ARG2),ARG2),ARG2),b1(b1(b1(ARG0,b1(ARG2,ARG0)),b1(b1(b1(ARG2,ARG0),ARG0),ARG0)),b1(b1(ARG1,b1(ARG2,b1(b1(b1(ARG0,b1(ARG1,ARG2)),ARG0),b1(ARG0,b1(ARG2,ARG0))))),b1(ARG2,ARG0)))),b1(b1(ARG2,b1(ARG0,b1(b1(b1(b1(ARG1,ARG0),b1(ARG0,ARG1)),b1(ARG0,ARG1)),b1(b1(ARG1,ARG0),b1(ARG1,ARG1))))),b1(ARG0,b1(b1(b1(ARG2,ARG0),ARG0),b1(b1(ARG0,ARG2),b1(b1(b1(ARG1,ARG0),b1(ARG0,ARG1)),b1(ARG0,ARG1)))))))),b1(ARG0,ARG2))))'
p1572
sS'tree_len'
p1573
I175
sS'archive_size'
p1574
I21549
sS'number_of_operators'
p1575
I87
sS'alg_name'
p1576
S'small-LTI'
p1577
sS'archive_tree_deapth'
p1578
I3
sS'logbook'
p1579
g12
(g13
g14
(lp1580
(dp1581
S'status'
p1582
NsS'iteration'
p1583
I0
sS'count_wrongs'
p1584
I10
sS'picked_node'
p1585
NsS'len_master_tree'
p1586
I9
sS'total_wrongs'
p1587
I84
sa(dp1588
g1582
S'better'
p1589
sg1583
I1
sg1584
I8
sg1585
I6
sg1586
I13
sg1587
I83
sa(dp1590
g1582
g1589
sg1583
I2
sg1584
I9
sg1585
I12
sg1586
I21
sg1587
I110
sa(dp1591
g1582
S'perfect'
p1592
sg1583
I3
sg1584
I9
sg1585
I20
sg1586
I31
sg1587
I80
sa(dp1593
g1582
g1589
sg1583
I4
sg1584
I9
sg1585
I14
sg1586
I39
sg1587
I76
sa(dp1594
g1582
g1592
sg1583
I5
sg1584
I9
sg1585
I38
sg1586
I47
sg1587
I75
sa(dp1595
g1582
g1592
sg1583
I6
sg1584
I8
sg1585
I34
sg1586
I49
sg1587
I52
sa(dp1596
g1582
g1589
sg1583
I7
sg1584
I5
sg1585
I3
sg1586
I57
sg1587
I147
sa(dp1597
g1582
g1592
sg1583
I8
sg1584
I5
sg1585
I21
sg1586
I61
sg1587
I136
sa(dp1598
g1582
g1592
sg1583
I9
sg1584
I5
sg1585
I35
sg1586
I67
sg1587
I134
sa(dp1599
g1582
g1592
sg1583
I10
sg1584
I5
sg1585
I16
sg1586
I57
sg1587
I117
sa(dp1600
g1582
g1592
sg1583
I11
sg1584
I5
sg1585
I30
sg1586
I65
sg1587
I101
sa(dp1601
g1582
g1592
sg1583
I12
sg1584
I5
sg1585
I53
sg1586
I73
sg1587
I71
sa(dp1602
g1582
g1589
sg1583
I13
sg1584
I6
sg1585
I39
sg1586
I79
sg1587
I228
sa(dp1603
g1582
g1592
sg1583
I14
sg1584
I6
sg1585
I41
sg1586
I81
sg1587
I123
sa(dp1604
g1582
g1592
sg1583
I15
sg1584
I6
sg1585
I58
sg1586
I87
sg1587
I122
sa(dp1605
g1582
g1592
sg1583
I16
sg1584
I5
sg1585
I20
sg1586
I71
sg1587
I73
sa(dp1606
g1582
g1589
sg1583
I17
sg1584
I5
sg1585
I39
sg1586
I79
sg1587
I80
sa(dp1607
g1582
g1592
sg1583
I18
sg1584
I4
sg1585
I74
sg1586
I87
sg1587
I50
sa(dp1608
g1582
S'worst'
p1609
sg1583
I19
sg1584
I5
sg1585
I37
sg1586
I71
sg1587
I73
sa(dp1610
g1582
g1589
sg1583
I20
sg1584
I5
sg1585
I70
sg1586
I79
sg1587
I78
sa(dp1611
g1582
g1592
sg1583
I21
sg1584
I4
sg1585
I73
sg1586
I87
sg1587
I50
sa(dp1612
g1582
g1609
sg1583
I22
sg1584
I5
sg1585
I34
sg1586
I71
sg1587
I73
sa(dp1613
g1582
g1589
sg1583
I23
sg1584
I5
sg1585
I67
sg1586
I79
sg1587
I78
sa(dp1614
g1582
g1592
sg1583
I24
sg1584
I4
sg1585
I76
sg1586
I83
sg1587
I50
sa(dp1615
g1582
g1609
sg1583
I25
sg1584
I5
sg1585
I65
sg1586
I71
sg1587
I73
sa(dp1616
g1582
g1589
sg1583
I26
sg1584
I5
sg1585
I70
sg1586
I79
sg1587
I78
sa(dp1617
g1582
g1592
sg1583
I27
sg1584
I4
sg1585
I71
sg1586
I83
sg1587
I50
sa(dp1618
g1582
g1609
sg1583
I28
sg1584
I5
sg1585
I62
sg1586
I71
sg1587
I73
sa(dp1619
g1582
g1589
sg1583
I29
sg1584
I5
sg1585
I67
sg1586
I79
sg1587
I80
sa(dp1620
g1582
g1592
sg1583
I30
sg1584
I4
sg1585
I78
sg1586
I87
sg1587
I50
sa(dp1621
g1582
g1609
sg1583
I31
sg1584
I5
sg1585
I64
sg1586
I71
sg1587
I73
sa(dp1622
g1582
g1589
sg1583
I32
sg1584
I5
sg1585
I67
sg1586
I79
sg1587
I78
sa(dp1623
g1582
g1592
sg1583
I33
sg1584
I4
sg1585
I78
sg1586
I87
sg1587
I50
sa(dp1624
g1582
g1592
sg1583
I34
sg1584
I3
sg1585
I66
sg1586
I95
sg1587
I21
sa(dp1625
g1582
g1609
sg1583
I35
sg1584
I5
sg1585
I8
sg1586
I103
sg1587
I192
sa(dp1626
g1582
g1592
sg1583
I36
sg1584
I5
sg1585
I86
sg1586
I107
sg1587
I200
sa(dp1627
g1582
g1592
sg1583
I37
sg1584
I5
sg1585
I52
sg1586
I111
sg1587
I185
sa(dp1628
g1582
g1592
sg1583
I38
sg1584
I5
sg1585
I69
sg1586
I115
sg1587
I137
sa(dp1629
g1582
g1592
sg1583
I39
sg1584
I4
sg1585
I40
sg1586
I119
sg1587
I65
sa(dp1630
g1582
g1592
sg1583
I40
sg1584
I3
sg1585
I18
sg1586
I125
sg1587
I28
sa(dp1631
g1582
g1592
sg1583
I41
sg1584
I3
sg1585
I86
sg1586
I129
sg1587
I61
sa(dp1632
g1582
g1592
sg1583
I42
sg1584
I3
sg1585
I73
sg1586
I131
sg1587
I50
sa(dp1633
g1582
g1592
sg1583
I43
sg1584
I3
sg1585
I70
sg1586
I135
sg1587
I42
sa(dp1634
g1582
g1592
sg1583
I44
sg1584
I2
sg1585
I57
sg1586
I143
sg1587
I12
sa(dp1635
g1582
g1609
sg1583
I45
sg1584
I3
sg1585
I2
sg1586
I151
sg1587
I159
sa(dp1636
g1582
g1592
sg1583
I46
sg1584
I3
sg1585
I92
sg1586
I153
sg1587
I58
sa(dp1637
g1582
g1592
sg1583
I47
sg1584
I2
sg1585
I136
sg1586
I163
sg1587
I31
sa(dp1638
g1582
g1592
sg1583
I48
sg1584
I2
sg1585
I131
sg1586
I171
sg1587
I20
sa(dp1639
g1582
g1609
sg1583
I49
sg1584
I3
sg1585
I135
sg1586
I163
sg1587
I96
sa(dp1640
g1582
g1592
sg1583
I50
sg1584
I2
sg1585
I135
sg1586
I157
sg1587
I12
sa(dp1641
g1582
g1609
sg1583
I51
sg1584
I3
sg1585
I155
sg1586
I161
sg1587
I178
sa(dp1642
g1582
g1592
sg1583
I52
sg1584
I1
sg1585
I113
sg1586
I159
sg1587
I5
sa(dp1643
g1582
g1609
sg1583
I53
sg1584
I2
sg1585
I3
sg1586
I167
sg1587
I161
sa(dp1644
g1582
g1592
sg1583
I54
sg1584
I2
sg1585
I154
sg1586
I167
sg1587
I77
sa(dp1645
g1582
g1592
sg1583
I55
sg1584
I1
sg1585
I146
sg1586
I169
sg1587
I13
sa(dp1646
g1582
g1609
sg1583
I56
sg1584
I2
sg1585
I152
sg1586
I169
sg1587
I160
sa(dp1647
g1582
g1592
sg1583
I57
sg1584
I2
sg1585
I146
sg1586
I169
sg1587
I96
sa(dp1648
g1582
g1592
sg1583
I58
sg1584
I2
sg1585
I93
sg1586
I171
sg1587
I134
sa(dp1649
g1582
g1592
sg1583
I59
sg1584
I2
sg1585
I160
sg1586
I171
sg1587
I61
sa(dp1650
g1582
g1592
sg1583
I60
sg1584
I1
sg1585
I125
sg1586
I171
sg1587
I13
sa(dp1651
g1582
g1609
sg1583
I61
sg1584
I2
sg1585
I139
sg1586
I163
sg1587
I78
sa(dp1652
g1582
g1592
sg1583
I62
sg1584
I1
sg1585
I131
sg1586
I161
sg1587
I5
sa(dp1653
g1582
g1609
sg1583
I63
sg1584
I2
sg1585
I147
sg1586
I169
sg1587
I163
sa(dp1654
g1582
g1592
sg1583
I64
sg1584
I2
sg1585
I26
sg1586
I159
sg1587
I141
sa(dp1655
g1582
g1592
sg1583
I65
sg1584
I2
sg1585
I31
sg1586
I159
sg1587
I86
sa(dp1656
g1582
g1592
sg1583
I66
sg1584
I2
sg1585
I108
sg1586
I161
sg1587
I99
sa(dp1657
g1582
g1592
sg1583
I67
sg1584
I1
sg1585
I26
sg1586
I157
sg1587
I13
sa(dp1658
g1582
g1609
sg1583
I68
sg1584
I2
sg1585
I109
sg1586
I157
sg1587
I128
sa(dp1659
g1582
g1592
sg1583
I69
sg1584
I2
sg1585
I102
sg1586
I157
sg1587
I84
sa(dp1660
g1582
g1592
sg1583
I70
sg1584
I2
sg1585
I115
sg1586
I157
sg1587
I66
sa(dp1661
g1582
g1592
sg1583
I71
sg1584
I2
sg1585
I30
sg1586
I161
sg1587
I65
sa(dp1662
g1582
g1592
sg1583
I72
sg1584
I1
sg1585
I52
sg1586
I165
sg1587
I13
sa(dp1663
g1582
g1609
sg1583
I73
sg1584
I2
sg1585
I124
sg1586
I157
sg1587
I94
sa(dp1664
g1582
g1592
sg1583
I74
sg1584
I2
sg1585
I124
sg1586
I157
sg1587
I125
sa(dp1665
g1582
g1592
sg1583
I75
sg1584
I1
sg1585
I50
sg1586
I153
sg1587
I5
sa(dp1666
g1582
g1609
sg1583
I76
sg1584
I2
sg1585
I138
sg1586
I161
sg1587
I145
sa(dp1667
g1582
g1592
sg1583
I77
sg1584
I2
sg1585
I138
sg1586
I161
sg1587
I65
sa(dp1668
g1582
g1592
sg1583
I78
sg1584
I1
sg1585
I140
sg1586
I165
sg1587
I13
sa(dp1669
g1582
g1609
sg1583
I79
sg1584
I2
sg1585
I140
sg1586
I157
sg1587
I94
sa(dp1670
g1582
g1592
sg1583
I80
sg1584
I2
sg1585
I140
sg1586
I157
sg1587
I125
sa(dp1671
g1582
g1592
sg1583
I81
sg1584
I1
sg1585
I138
sg1586
I153
sg1587
I5
sa(dp1672
g1582
g1609
sg1583
I82
sg1584
I3
sg1585
I138
sg1586
I157
sg1587
I67
sa(dp1673
g1582
g1592
sg1583
I83
sg1584
I3
sg1585
I94
sg1586
I157
sg1587
I87
sa(dp1674
g1582
g1592
sg1583
I84
sg1584
I3
sg1585
I129
sg1586
I157
sg1587
I96
sa(dp1675
g1582
g1592
sg1583
I85
sg1584
I2
sg1585
I109
sg1586
I159
sg1587
I32
sa(dp1676
g1582
g1609
sg1583
I86
sg1584
I3
sg1585
I44
sg1586
I155
sg1587
I127
sa(dp1677
g1582
g1592
sg1583
I87
sg1584
I3
sg1585
I101
sg1586
I155
sg1587
I111
sa(dp1678
g1582
g1592
sg1583
I88
sg1584
I3
sg1585
I67
sg1586
I159
sg1587
I110
sa(dp1679
g1582
g1592
sg1583
I89
sg1584
I2
sg1585
I144
sg1586
I163
sg1587
I31
sa(dp1680
g1582
g1609
sg1583
I90
sg1584
I3
sg1585
I142
sg1586
I159
sg1587
I110
sa(dp1681
g1582
g1592
sg1583
I91
sg1584
I2
sg1585
I156
sg1586
I163
sg1587
I31
sa(dp1682
g1582
g1609
sg1583
I92
sg1584
I3
sg1585
I154
sg1586
I159
sg1587
I110
sa(dp1683
g1582
g1592
sg1583
I93
sg1584
I3
sg1585
I128
sg1586
I163
sg1587
I109
sa(dp1684
g1582
g1592
sg1583
I94
sg1584
I3
sg1585
I127
sg1586
I167
sg1587
I125
sa(dp1685
g1582
g1592
sg1583
I95
sg1584
I2
sg1585
I153
sg1586
I171
sg1587
I31
sa(dp1686
g1582
g1609
sg1583
I96
sg1584
I3
sg1585
I135
sg1586
I167
sg1587
I125
sa(dp1687
g1582
g1592
sg1583
I97
sg1584
I2
sg1585
I164
sg1586
I171
sg1587
I31
sa(dp1688
g1582
g1609
sg1583
I98
sg1584
I3
sg1585
I158
sg1586
I167
sg1587
I125
sa(dp1689
g1582
g1592
sg1583
I99
sg1584
I3
sg1585
I66
sg1586
I171
sg1587
I118
sa(dp1690
g1582
g1592
sg1583
I100
sg1584
I2
sg1585
I157
sg1586
I175
sg1587
I31
satRp1691
(dp1692
g183
I01
sg184
(lp1693
g1583
ag1586
ag1584
ag1587
ag1585
ag1582
asg186
Nsg187
I0
sg188
g189
(g13
tRp1694
sbsS'max_archive_size'
p1695
NsS'solution_found_flag'
p1696
I00
sS'time_taken'
p1697
F22389.980977058411
sS'benchmark_name'
p1698
S'M_B'
p1699
sa(dp1700
S'tree_str'
p1701
S'b1(b1(ARG0,b1(b1(b1(ARG0,b1(b1(ARG1,b1(b1(b1(b1(ARG2,ARG1),ARG0),b1(b1(ARG1,ARG2),b1(ARG0,ARG1))),b1(b1(ARG1,ARG2),b1(b1(ARG2,ARG1),ARG1)))),b1(ARG0,b1(b1(b1(ARG2,ARG1),b1(ARG1,ARG0)),b1(ARG0,ARG2))))),b1(b1(ARG0,b1(b1(b1(ARG2,ARG0),ARG2),b1(b1(ARG2,ARG1),ARG0))),b1(ARG2,ARG1))),ARG2)),b1(ARG0,b1(b1(ARG1,b1(ARG2,b1(b1(b1(ARG0,b1(ARG0,ARG2)),b1(ARG1,b1(b1(b1(ARG1,b1(ARG2,ARG2)),b1(ARG2,ARG1)),ARG0))),b1(b1(ARG1,ARG0),b1(b1(ARG2,ARG2),ARG2))))),b1(ARG2,b1(b1(ARG2,ARG2),b1(b1(ARG2,ARG2),ARG2))))))'
p1702
sS'tree_len'
p1703
I111
sS'archive_size'
p1704
I21549
sS'number_of_operators'
p1705
I55
sS'alg_name'
p1706
S'small-LTI'
p1707
sS'archive_tree_deapth'
p1708
I3
sS'logbook'
p1709
g12
(g13
g14
(lp1710
(dp1711
S'status'
p1712
NsS'iteration'
p1713
I0
sS'count_wrongs'
p1714
I10
sS'picked_node'
p1715
NsS'len_master_tree'
p1716
I9
sS'total_wrongs'
p1717
I84
sa(dp1718
g1712
S'better'
p1719
sg1713
I1
sg1714
I11
sg1715
I7
sg1716
I13
sg1717
I101
sa(dp1720
g1712
g1719
sg1713
I2
sg1714
I10
sg1715
I11
sg1716
I17
sg1717
I104
sa(dp1721
g1712
g1719
sg1713
I3
sg1714
I10
sg1715
I11
sg1716
I25
sg1717
I141
sa(dp1722
g1712
g1719
sg1713
I4
sg1714
I9
sg1715
I19
sg1716
I33
sg1717
I104
sa(dp1723
g1712
S'perfect'
p1724
sg1713
I5
sg1714
I9
sg1715
I23
sg1716
I41
sg1717
I79
sa(dp1725
g1712
g1724
sg1713
I6
sg1714
I8
sg1715
I22
sg1716
I53
sg1717
I56
sa(dp1726
g1712
g1719
sg1713
I7
sg1714
I6
sg1715
I3
sg1716
I61
sg1717
I143
sa(dp1727
g1712
g1724
sg1713
I8
sg1714
I5
sg1715
I39
sg1716
I61
sg1717
I87
sa(dp1728
g1712
g1724
sg1713
I9
sg1714
I4
sg1715
I22
sg1716
I69
sg1717
I60
sa(dp1729
g1712
g1719
sg1713
I10
sg1714
I3
sg1715
I42
sg1716
I77
sg1717
I59
sa(dp1730
g1712
g1724
sg1713
I11
sg1714
I1
sg1715
I74
sg1716
I85
sg1717
I15
sa(dp1731
g1712
S'worst'
p1732
sg1713
I12
sg1714
I3
sg1715
I37
sg1716
I93
sg1717
I133
sa(dp1733
g1712
g1724
sg1713
I13
sg1714
I3
sg1715
I10
sg1716
I89
sg1717
I71
sa(dp1734
g1712
g1724
sg1713
I14
sg1714
I3
sg1715
I68
sg1716
I89
sg1717
I41
sa(dp1735
g1712
g1724
sg1713
I15
sg1714
I2
sg1715
I64
sg1716
I93
sg1717
I16
sa(dp1736
g1712
g1732
sg1713
I16
sg1714
I3
sg1715
I8
sg1716
I101
sg1717
I96
sa(dp1737
g1712
g1724
sg1713
I17
sg1714
I2
sg1715
I15
sg1716
I95
sg1717
I23
sa(dp1738
g1712
g1724
sg1713
I18
sg1714
I2
sg1715
I81
sg1716
I99
sg1717
I40
sa(dp1739
g1712
g1724
sg1713
I19
sg1714
I2
sg1715
I65
sg1716
I107
sg1717
I58
sa(dp1740
g1712
g1724
sg1713
I20
sg1714
I2
sg1715
I74
sg1716
I103
sg1717
I50
sa(dp1741
g1712
g1724
sg1713
I21
sg1714
I2
sg1715
I85
sg1716
I95
sg1717
I23
sa(dp1742
g1712
g1724
sg1713
I22
sg1714
I2
sg1715
I71
sg1716
I99
sg1717
I40
sa(dp1743
g1712
g1724
sg1713
I23
sg1714
I2
sg1715
I87
sg1716
I107
sg1717
I58
sa(dp1744
g1712
g1724
sg1713
I24
sg1714
I2
sg1715
I87
sg1716
I103
sg1717
I50
sa(dp1745
g1712
g1724
sg1713
I25
sg1714
I2
sg1715
I87
sg1716
I95
sg1717
I23
sa(dp1746
g1712
g1724
sg1713
I26
sg1714
I2
sg1715
I84
sg1716
I99
sg1717
I40
sa(dp1747
g1712
g1724
sg1713
I27
sg1714
I2
sg1715
I62
sg1716
I107
sg1717
I58
sa(dp1748
g1712
g1724
sg1713
I28
sg1714
I2
sg1715
I67
sg1716
I103
sg1717
I50
sa(dp1749
g1712
g1724
sg1713
I29
sg1714
I2
sg1715
I60
sg1716
I95
sg1717
I23
sa(dp1750
g1712
g1724
sg1713
I30
sg1714
I2
sg1715
I87
sg1716
I99
sg1717
I40
sa(dp1751
g1712
g1724
sg1713
I31
sg1714
I2
sg1715
I89
sg1716
I107
sg1717
I58
sa(dp1752
g1712
g1724
sg1713
I32
sg1714
I2
sg1715
I81
sg1716
I103
sg1717
I50
sa(dp1753
g1712
g1724
sg1713
I33
sg1714
I2
sg1715
I81
sg1716
I95
sg1717
I23
sa(dp1754
g1712
g1724
sg1713
I34
sg1714
I2
sg1715
I82
sg1716
I99
sg1717
I40
sa(dp1755
g1712
g1724
sg1713
I35
sg1714
I2
sg1715
I90
sg1716
I107
sg1717
I58
sa(dp1756
g1712
g1724
sg1713
I36
sg1714
I2
sg1715
I91
sg1716
I103
sg1717
I50
sa(dp1757
g1712
g1724
sg1713
I37
sg1714
I2
sg1715
I89
sg1716
I95
sg1717
I23
sa(dp1758
g1712
g1724
sg1713
I38
sg1714
I2
sg1715
I89
sg1716
I99
sg1717
I40
sa(dp1759
g1712
g1724
sg1713
I39
sg1714
I2
sg1715
I90
sg1716
I107
sg1717
I58
sa(dp1760
g1712
g1724
sg1713
I40
sg1714
I2
sg1715
I65
sg1716
I107
sg1717
I50
sa(dp1761
g1712
g1724
sg1713
I41
sg1714
I2
sg1715
I78
sg1716
I99
sg1717
I30
sa(dp1762
g1712
g1724
sg1713
I42
sg1714
I2
sg1715
I85
sg1716
I99
sg1717
I40
sa(dp1763
g1712
g1724
sg1713
I43
sg1714
I2
sg1715
I86
sg1716
I107
sg1717
I58
sa(dp1764
g1712
g1724
sg1713
I44
sg1714
I2
sg1715
I78
sg1716
I103
sg1717
I50
sa(dp1765
g1712
g1724
sg1713
I45
sg1714
I2
sg1715
I59
sg1716
I95
sg1717
I23
sa(dp1766
g1712
g1724
sg1713
I46
sg1714
I2
sg1715
I81
sg1716
I99
sg1717
I40
sa(dp1767
g1712
g1724
sg1713
I47
sg1714
I2
sg1715
I84
sg1716
I107
sg1717
I58
sa(dp1768
g1712
g1724
sg1713
I48
sg1714
I2
sg1715
I89
sg1716
I103
sg1717
I50
sa(dp1769
g1712
g1724
sg1713
I49
sg1714
I2
sg1715
I82
sg1716
I95
sg1717
I23
sa(dp1770
g1712
g1724
sg1713
I50
sg1714
I2
sg1715
I87
sg1716
I99
sg1717
I40
sa(dp1771
g1712
g1724
sg1713
I51
sg1714
I2
sg1715
I89
sg1716
I107
sg1717
I58
sa(dp1772
g1712
g1724
sg1713
I52
sg1714
I2
sg1715
I64
sg1716
I103
sg1717
I50
sa(dp1773
g1712
g1724
sg1713
I53
sg1714
I2
sg1715
I83
sg1716
I95
sg1717
I23
sa(dp1774
g1712
g1724
sg1713
I54
sg1714
I2
sg1715
I89
sg1716
I99
sg1717
I40
sa(dp1775
g1712
g1724
sg1713
I55
sg1714
I2
sg1715
I76
sg1716
I107
sg1717
I58
sa(dp1776
g1712
g1724
sg1713
I56
sg1714
I2
sg1715
I78
sg1716
I103
sg1717
I50
sa(dp1777
g1712
g1724
sg1713
I57
sg1714
I2
sg1715
I81
sg1716
I95
sg1717
I23
sa(dp1778
g1712
g1724
sg1713
I58
sg1714
I2
sg1715
I87
sg1716
I103
sg1717
I40
sa(dp1779
g1712
g1724
sg1713
I59
sg1714
I2
sg1715
I79
sg1716
I111
sg1717
I62
sa(dp1780
g1712
g1724
sg1713
I60
sg1714
I2
sg1715
I84
sg1716
I103
sg1717
I50
sa(dp1781
g1712
g1724
sg1713
I61
sg1714
I2
sg1715
I89
sg1716
I95
sg1717
I23
sa(dp1782
g1712
g1724
sg1713
I62
sg1714
I2
sg1715
I91
sg1716
I99
sg1717
I40
sa(dp1783
g1712
g1724
sg1713
I63
sg1714
I2
sg1715
I91
sg1716
I107
sg1717
I58
sa(dp1784
g1712
g1724
sg1713
I64
sg1714
I2
sg1715
I91
sg1716
I103
sg1717
I50
sa(dp1785
g1712
g1724
sg1713
I65
sg1714
I2
sg1715
I76
sg1716
I95
sg1717
I23
sa(dp1786
g1712
g1724
sg1713
I66
sg1714
I2
sg1715
I77
sg1716
I99
sg1717
I40
sa(dp1787
g1712
g1724
sg1713
I67
sg1714
I2
sg1715
I89
sg1716
I107
sg1717
I58
sa(dp1788
g1712
g1724
sg1713
I68
sg1714
I2
sg1715
I76
sg1716
I103
sg1717
I50
sa(dp1789
g1712
g1724
sg1713
I69
sg1714
I2
sg1715
I75
sg1716
I95
sg1717
I23
sa(dp1790
g1712
g1724
sg1713
I70
sg1714
I2
sg1715
I76
sg1716
I99
sg1717
I40
sa(dp1791
g1712
g1724
sg1713
I71
sg1714
I2
sg1715
I84
sg1716
I107
sg1717
I58
sa(dp1792
g1712
g1724
sg1713
I72
sg1714
I2
sg1715
I75
sg1716
I103
sg1717
I50
sa(dp1793
g1712
g1724
sg1713
I73
sg1714
I2
sg1715
I75
sg1716
I97
sg1717
I23
sa(dp1794
g1712
g1724
sg1713
I74
sg1714
I2
sg1715
I81
sg1716
I105
sg1717
I48
sa(dp1795
g1712
g1724
sg1713
I75
sg1714
I2
sg1715
I89
sg1716
I109
sg1717
I62
sa(dp1796
g1712
g1724
sg1713
I76
sg1714
I2
sg1715
I79
sg1716
I101
sg1717
I48
sa(dp1797
g1712
g1724
sg1713
I77
sg1714
I2
sg1715
I79
sg1716
I95
sg1717
I23
sa(dp1798
g1712
g1724
sg1713
I78
sg1714
I2
sg1715
I81
sg1716
I103
sg1717
I40
sa(dp1799
g1712
g1724
sg1713
I79
sg1714
I2
sg1715
I85
sg1716
I111
sg1717
I62
sa(dp1800
g1712
g1724
sg1713
I80
sg1714
I2
sg1715
I91
sg1716
I111
sg1717
I50
sa(dp1801
g1712
g1724
sg1713
I81
sg1714
I2
sg1715
I81
sg1716
I103
sg1717
I31
sa(dp1802
g1712
g1724
sg1713
I82
sg1714
I2
sg1715
I86
sg1716
I107
sg1717
I40
sa(dp1803
g1712
g1724
sg1713
I83
sg1714
I2
sg1715
I92
sg1716
I115
sg1717
I63
sa(dp1804
g1712
g1724
sg1713
I84
sg1714
I2
sg1715
I81
sg1716
I103
sg1717
I50
sa(dp1805
g1712
g1724
sg1713
I85
sg1714
I2
sg1715
I81
sg1716
I97
sg1717
I23
sa(dp1806
g1712
g1724
sg1713
I86
sg1714
I2
sg1715
I82
sg1716
I107
sg1717
I48
sa(dp1807
g1712
g1724
sg1713
I87
sg1714
I2
sg1715
I86
sg1716
I111
sg1717
I47
sa(dp1808
g1712
g1724
sg1713
I88
sg1714
I2
sg1715
I84
sg1716
I113
sg1717
I64
sa(dp1809
g1712
g1724
sg1713
I89
sg1714
I2
sg1715
I81
sg1716
I111
sg1717
I50
sa(dp1810
g1712
g1724
sg1713
I90
sg1714
I2
sg1715
I87
sg1716
I105
sg1717
I31
sa(dp1811
g1712
g1724
sg1713
I91
sg1714
I2
sg1715
I87
sg1716
I105
sg1717
I48
sa(dp1812
g1712
g1724
sg1713
I92
sg1714
I2
sg1715
I82
sg1716
I109
sg1717
I62
sa(dp1813
g1712
g1724
sg1713
I93
sg1714
I2
sg1715
I64
sg1716
I109
sg1717
I48
sa(dp1814
g1712
g1724
sg1713
I94
sg1714
I2
sg1715
I70
sg1716
I103
sg1717
I30
sa(dp1815
g1712
g1724
sg1713
I95
sg1714
I2
sg1715
I81
sg1716
I103
sg1717
I40
sa(dp1816
g1712
g1724
sg1713
I96
sg1714
I2
sg1715
I85
sg1716
I111
sg1717
I62
sa(dp1817
g1712
g1724
sg1713
I97
sg1714
I2
sg1715
I91
sg1716
I111
sg1717
I50
sa(dp1818
g1712
g1724
sg1713
I98
sg1714
I2
sg1715
I91
sg1716
I103
sg1717
I30
sa(dp1819
g1712
g1724
sg1713
I99
sg1714
I2
sg1715
I91
sg1716
I103
sg1717
I40
sa(dp1820
g1712
g1724
sg1713
I100
sg1714
I2
sg1715
I91
sg1716
I111
sg1717
I62
satRp1821
(dp1822
g183
I01
sg184
(lp1823
g1713
ag1716
ag1714
ag1717
ag1715
ag1712
asg186
Nsg187
I0
sg188
g189
(g13
tRp1824
sbsS'max_archive_size'
p1825
NsS'solution_found_flag'
p1826
I00
sS'time_taken'
p1827
F14283.560060977936
sS'benchmark_name'
p1828
S'M_B'
p1829
sa(dp1830
S'tree_str'
p1831
S'b1(b1(ARG0,b1(b1(b1(ARG0,b1(b1(ARG1,b1(ARG0,ARG0)),b1(ARG0,b1(b1(b1(ARG2,ARG1),b1(ARG0,ARG0)),b1(ARG1,ARG2))))),b1(b1(ARG0,b1(ARG2,ARG0)),b1(b1(b1(ARG2,ARG1),ARG2),ARG2))),ARG2)),b1(ARG0,b1(b1(ARG1,b1(ARG2,b1(b1(b1(b1(ARG0,ARG1),ARG0),b1(b1(ARG0,ARG2),ARG2)),b1(b1(ARG1,ARG0),ARG2)))),b1(ARG2,ARG2))))'
p1832
sS'tree_len'
p1833
I67
sS'archive_size'
p1834
I21549
sS'number_of_operators'
p1835
I33
sS'alg_name'
p1836
S'small-LTI'
p1837
sS'archive_tree_deapth'
p1838
I3
sS'logbook'
p1839
g12
(g13
g14
(lp1840
(dp1841
S'status'
p1842
NsS'iteration'
p1843
I0
sS'count_wrongs'
p1844
I10
sS'picked_node'
p1845
NsS'len_master_tree'
p1846
I9
sS'total_wrongs'
p1847
I84
sa(dp1848
g1842
S'better'
p1849
sg1843
I1
sg1844
I8
sg1845
I7
sg1846
I13
sg1847
I83
sa(dp1850
g1842
g1849
sg1843
I2
sg1844
I10
sg1845
I12
sg1846
I21
sg1847
I120
sa(dp1851
g1842
g1849
sg1843
I3
sg1844
I8
sg1845
I15
sg1846
I29
sg1847
I72
sa(dp1852
g1842
S'perfect'
p1853
sg1843
I4
sg1844
I8
sg1845
I19
sg1846
I37
sg1847
I52
sa(dp1854
g1842
g1849
sg1843
I5
sg1844
I6
sg1845
I3
sg1846
I45
sg1847
I133
sa(dp1855
g1842
g1853
sg1843
I6
sg1844
I5
sg1845
I27
sg1846
I37
sg1847
I83
sa(dp1856
g1842
g1853
sg1843
I7
sg1844
I4
sg1845
I21
sg1846
I45
sg1847
I60
sa(dp1857
g1842
g1849
sg1843
I8
sg1844
I3
sg1845
I32
sg1846
I53
sg1847
I59
sa(dp1858
g1842
g1853
sg1843
I9
sg1844
I1
sg1845
I50
sg1846
I61
sg1847
I15
sa(dp1859
g1842
S'worst'
p1860
sg1843
I10
sg1844
I2
sg1845
I29
sg1846
I69
sg1847
I89
sa(dp1861
g1842
g1853
sg1843
I11
sg1844
I2
sg1845
I18
sg1846
I61
sg1847
I64
sa(dp1862
g1842
g1853
sg1843
I12
sg1844
I2
sg1845
I46
sg1846
I69
sg1847
I32
sa(dp1863
g1842
g1853
sg1843
I13
sg1844
I1
sg1845
I54
sg1846
I77
sg1847
I9
sa(dp1864
g1842
g1860
sg1843
I14
sg1844
I2
sg1845
I8
sg1846
I85
sg1847
I94
sa(dp1865
g1842
g1853
sg1843
I15
sg1844
I1
sg1845
I50
sg1846
I79
sg1847
I16
sa(dp1866
g1842
g1853
sg1843
I16
sg1844
I1
sg1845
I60
sg1846
I83
sg1847
I45
sa(dp1867
g1842
g1853
sg1843
I17
sg1844
I0
sg1845
I42
sg1846
I67
sg1847
I0
satRp1868
(dp1869
g183
I01
sg184
(lp1870
g1843
ag1846
ag1844
ag1847
ag1845
ag1842
asg186
Nsg187
I0
sg188
g189
(g13
tRp1871
sbsS'max_archive_size'
p1872
NsS'solution_found_flag'
p1873
I01
sS'time_taken'
p1874
F3441.90345287323
sS'benchmark_name'
p1875
S'M_B'
p1876
sa(dp1877
S'tree_str'
p1878
S'b1(b1(b1(b1(ARG0,ARG0),ARG0),b1(b1(b1(ARG0,b1(b1(b1(b1(ARG1,b1(ARG1,ARG1)),b1(ARG1,ARG1)),b1(ARG0,ARG0)),b1(ARG0,b1(b1(b1(b1(ARG1,ARG2),ARG2),ARG2),b1(b1(b1(b1(ARG2,ARG1),b1(ARG2,ARG1)),b1(ARG0,ARG1)),ARG1))))),ARG1),ARG2)),b1(ARG0,b1(b1(b1(b1(b1(b1(ARG1,b1(b1(b1(ARG1,ARG0),ARG0),ARG1)),b1(ARG1,ARG1)),b1(b1(b1(ARG2,ARG1),ARG2),ARG2)),b1(b1(b1(b1(ARG0,ARG0),ARG0),b1(b1(ARG0,ARG2),b1(ARG0,ARG0))),ARG1)),b1(ARG2,b1(b1(b1(b1(ARG0,ARG1),ARG0),b1(b1(ARG0,ARG2),ARG2)),b1(b1(ARG1,b1(b1(ARG2,b1(ARG1,b1(ARG1,b1(b1(ARG2,ARG2),ARG1)))),b1(ARG0,ARG0))),ARG2)))),b1(ARG2,ARG2))))'
p1879
sS'tree_len'
p1880
I127
sS'archive_size'
p1881
I21549
sS'number_of_operators'
p1882
I63
sS'alg_name'
p1883
S'small-LTI'
p1884
sS'archive_tree_deapth'
p1885
I3
sS'logbook'
p1886
g12
(g13
g14
(lp1887
(dp1888
S'status'
p1889
NsS'iteration'
p1890
I0
sS'count_wrongs'
p1891
I10
sS'picked_node'
p1892
NsS'len_master_tree'
p1893
I9
sS'total_wrongs'
p1894
I84
sa(dp1895
g1889
S'better'
p1896
sg1890
I1
sg1891
I8
sg1892
I6
sg1893
I13
sg1894
I83
sa(dp1897
g1889
g1896
sg1890
I2
sg1891
I10
sg1892
I12
sg1893
I21
sg1894
I120
sa(dp1898
g1889
g1896
sg1890
I3
sg1891
I8
sg1892
I15
sg1893
I29
sg1894
I72
sa(dp1899
g1889
S'perfect'
p1900
sg1890
I4
sg1891
I8
sg1892
I19
sg1893
I37
sg1894
I52
sa(dp1901
g1889
g1896
sg1890
I5
sg1891
I6
sg1892
I3
sg1893
I45
sg1894
I133
sa(dp1902
g1889
g1900
sg1890
I6
sg1891
I5
sg1892
I16
sg1893
I37
sg1894
I83
sa(dp1903
g1889
g1900
sg1890
I7
sg1891
I4
sg1892
I19
sg1893
I45
sg1894
I60
sa(dp1904
g1889
g1896
sg1890
I8
sg1891
I3
sg1892
I30
sg1893
I53
sg1894
I59
sa(dp1905
g1889
g1900
sg1890
I9
sg1891
I1
sg1892
I50
sg1893
I61
sg1894
I15
sa(dp1906
g1889
S'worst'
p1907
sg1890
I10
sg1891
I2
sg1892
I27
sg1893
I69
sg1894
I86
sa(dp1908
g1889
g1900
sg1890
I11
sg1891
I2
sg1892
I32
sg1893
I73
sg1894
I60
sa(dp1909
g1889
g1900
sg1890
I12
sg1891
I1
sg1892
I37
sg1893
I83
sg1894
I22
sa(dp1910
g1889
g1900
sg1890
I13
sg1891
I1
sg1892
I54
sg1893
I87
sg1894
I9
sa(dp1911
g1889
g1907
sg1890
I14
sg1891
I2
sg1892
I2
sg1893
I91
sg1894
I77
sa(dp1912
g1889
g1900
sg1890
I15
sg1891
I2
sg1892
I53
sg1893
I89
sg1894
I62
sa(dp1913
g1889
g1900
sg1890
I16
sg1891
I2
sg1892
I40
sg1893
I93
sg1894
I61
sa(dp1914
g1889
g1900
sg1890
I17
sg1891
I2
sg1892
I62
sg1893
I99
sg1894
I60
sa(dp1915
g1889
g1900
sg1890
I18
sg1891
I2
sg1892
I60
sg1893
I103
sg1894
I33
sa(dp1916
g1889
g1900
sg1890
I19
sg1891
I1
sg1892
I51
sg1893
I111
sg1894
I13
sa(dp1917
g1889
g1907
sg1890
I20
sg1891
I2
sg1892
I66
sg1893
I107
sg1894
I47
sa(dp1918
g1889
g1900
sg1890
I21
sg1891
I2
sg1892
I66
sg1893
I105
sg1894
I81
sa(dp1919
g1889
g1900
sg1890
I22
sg1891
I1
sg1892
I84
sg1893
I97
sg1894
I9
sa(dp1920
g1889
g1907
sg1890
I23
sg1891
I2
sg1892
I84
sg1893
I101
sg1894
I100
sa(dp1921
g1889
g1900
sg1890
I24
sg1891
I2
sg1892
I51
sg1893
I89
sg1894
I68
sa(dp1922
g1889
g1900
sg1890
I25
sg1891
I2
sg1892
I19
sg1893
I93
sg1894
I72
sa(dp1923
g1889
g1900
sg1890
I26
sg1891
I2
sg1892
I62
sg1893
I95
sg1894
I59
sa(dp1924
g1889
g1900
sg1890
I27
sg1891
I2
sg1892
I74
sg1893
I99
sg1894
I33
sa(dp1925
g1889
g1900
sg1890
I28
sg1891
I1
sg1892
I62
sg1893
I107
sg1894
I13
sa(dp1926
g1889
g1907
sg1890
I29
sg1891
I2
sg1892
I62
sg1893
I103
sg1894
I51
sa(dp1927
g1889
g1900
sg1890
I30
sg1891
I2
sg1892
I18
sg1893
I99
sg1894
I68
sa(dp1928
g1889
g1900
sg1890
I31
sg1891
I1
sg1892
I86
sg1893
I91
sg1894
I9
sa(dp1929
g1889
g1907
sg1890
I32
sg1891
I2
sg1892
I86
sg1893
I95
sg1894
I94
sa(dp1930
g1889
g1900
sg1890
I33
sg1891
I2
sg1892
I81
sg1893
I91
sg1894
I70
sa(dp1931
g1889
g1900
sg1890
I34
sg1891
I2
sg1892
I78
sg1893
I93
sg1894
I69
sa(dp1932
g1889
g1900
sg1890
I35
sg1891
I2
sg1892
I76
sg1893
I97
sg1894
I59
sa(dp1933
g1889
g1900
sg1890
I36
sg1891
I2
sg1892
I76
sg1893
I101
sg1894
I33
sa(dp1934
g1889
g1900
sg1890
I37
sg1891
I1
sg1892
I79
sg1893
I109
sg1894
I13
sa(dp1935
g1889
g1907
sg1890
I38
sg1891
I2
sg1892
I79
sg1893
I105
sg1894
I53
sa(dp1936
g1889
g1900
sg1890
I39
sg1891
I2
sg1892
I66
sg1893
I97
sg1894
I68
sa(dp1937
g1889
g1900
sg1890
I40
sg1891
I1
sg1892
I76
sg1893
I89
sg1894
I9
sa(dp1938
g1889
g1907
sg1890
I41
sg1891
I2
sg1892
I76
sg1893
I93
sg1894
I92
sa(dp1939
g1889
g1900
sg1890
I42
sg1891
I2
sg1892
I64
sg1893
I89
sg1894
I68
sa(dp1940
g1889
g1900
sg1890
I43
sg1891
I2
sg1892
I65
sg1893
I93
sg1894
I72
sa(dp1941
g1889
g1900
sg1890
I44
sg1891
I2
sg1892
I66
sg1893
I95
sg1894
I59
sa(dp1942
g1889
g1900
sg1890
I45
sg1891
I2
sg1892
I75
sg1893
I99
sg1894
I33
sa(dp1943
g1889
g1900
sg1890
I46
sg1891
I1
sg1892
I66
sg1893
I107
sg1894
I13
sa(dp1944
g1889
g1907
sg1890
I47
sg1891
I2
sg1892
I68
sg1893
I111
sg1894
I123
sa(dp1945
g1889
g1900
sg1890
I48
sg1891
I2
sg1892
I36
sg1893
I111
sg1894
I90
sa(dp1946
g1889
g1900
sg1890
I49
sg1891
I2
sg1892
I95
sg1893
I115
sg1894
I97
sa(dp1947
g1889
g1900
sg1890
I50
sg1891
I2
sg1892
I34
sg1893
I111
sg1894
I96
sa(dp1948
g1889
g1900
sg1890
I51
sg1891
I2
sg1892
I68
sg1893
I111
sg1894
I73
sa(dp1949
g1889
g1900
sg1890
I52
sg1891
I2
sg1892
I62
sg1893
I115
sg1894
I66
sa(dp1950
g1889
g1900
sg1890
I53
sg1891
I1
sg1892
I14
sg1893
I119
sg1894
I17
sa(dp1951
g1889
g1907
sg1890
I54
sg1891
I2
sg1892
I56
sg1893
I111
sg1894
I55
sa(dp1952
g1889
g1900
sg1890
I55
sg1891
I2
sg1892
I105
sg1893
I115
sg1894
I50
sa(dp1953
g1889
g1900
sg1890
I56
sg1891
I2
sg1892
I87
sg1893
I115
sg1894
I80
sa(dp1954
g1889
g1900
sg1890
I57
sg1891
I1
sg1892
I56
sg1893
I107
sg1894
I9
sa(dp1955
g1889
g1907
sg1890
I58
sg1891
I3
sg1892
I3
sg1893
I111
sg1894
I104
sa(dp1956
g1889
g1900
sg1890
I59
sg1891
I2
sg1892
I93
sg1893
I117
sg1894
I63
sa(dp1957
g1889
g1900
sg1890
I60
sg1891
I2
sg1892
I23
sg1893
I121
sg1894
I92
sa(dp1958
g1889
g1900
sg1890
I61
sg1891
I2
sg1892
I101
sg1893
I127
sg1894
I40
sa(dp1959
g1889
g1900
sg1890
I62
sg1891
I2
sg1892
I6
sg1893
I135
sg1894
I36
sa(dp1960
g1889
g1900
sg1890
I63
sg1891
I2
sg1892
I35
sg1893
I147
sg1894
I77
sa(dp1961
g1889
g1900
sg1890
I64
sg1891
I1
sg1892
I125
sg1893
I139
sg1894
I11
sa(dp1962
g1889
g1907
sg1890
I65
sg1891
I2
sg1892
I99
sg1893
I135
sg1894
I103
sa(dp1963
g1889
g1900
sg1890
I66
sg1891
I2
sg1892
I99
sg1893
I137
sg1894
I43
sa(dp1964
g1889
g1900
sg1890
I67
sg1891
I1
sg1892
I99
sg1893
I133
sg1894
I9
sa(dp1965
g1889
g1907
sg1890
I68
sg1891
I3
sg1892
I120
sg1893
I137
sg1894
I240
sa(dp1966
g1889
g1900
sg1890
I69
sg1891
I2
sg1892
I86
sg1893
I133
sg1894
I161
sa(dp1967
g1889
g1900
sg1890
I70
sg1891
I1
sg1892
I98
sg1893
I133
sg1894
I71
sa(dp1968
g1889
g1900
sg1890
I71
sg1891
I1
sg1892
I105
sg1893
I133
sg1894
I56
sa(dp1969
g1889
g1900
sg1890
I72
sg1891
I0
sg1892
I83
sg1893
I127
sg1894
I0
satRp1970
(dp1971
g183
I01
sg184
(lp1972
g1890
ag1893
ag1891
ag1894
ag1892
ag1889
asg186
Nsg187
I0
sg188
g189
(g13
tRp1973
sbsS'max_archive_size'
p1974
NsS'solution_found_flag'
p1975
I01
sS'time_taken'
p1976
F14134.026844978333
sS'benchmark_name'
p1977
S'M_B'
p1978
sa(dp1979
S'tree_str'
p1980
S'b1(b1(b1(b1(ARG0,b1(ARG0,b1(b1(ARG2,b1(ARG2,ARG1)),b1(ARG2,ARG1)))),b1(ARG0,ARG2)),b1(b1(b1(ARG0,b1(b1(ARG0,b1(ARG2,b1(b1(b1(b1(ARG2,ARG1),ARG2),ARG2),b1(b1(ARG2,ARG1),b1(ARG0,ARG0))))),b1(b1(b1(b1(b1(ARG2,b1(ARG2,ARG2)),b1(ARG2,ARG1)),ARG2),b1(ARG0,ARG2)),b1(b1(b1(ARG0,b1(ARG2,ARG0)),b1(ARG2,ARG0)),ARG2)))),ARG1),ARG2)),b1(ARG0,b1(b1(ARG1,b1(ARG2,b1(b1(b1(b1(ARG0,ARG1),ARG0),b1(b1(ARG0,ARG2),ARG2)),b1(b1(ARG1,ARG0),ARG2)))),b1(ARG2,ARG2))))'
p1981
sS'tree_len'
p1982
I99
sS'archive_size'
p1983
I21549
sS'number_of_operators'
p1984
I49
sS'alg_name'
p1985
S'small-LTI'
p1986
sS'archive_tree_deapth'
p1987
I3
sS'logbook'
p1988
g12
(g13
g14
(lp1989
(dp1990
S'status'
p1991
NsS'iteration'
p1992
I0
sS'count_wrongs'
p1993
I10
sS'picked_node'
p1994
NsS'len_master_tree'
p1995
I9
sS'total_wrongs'
p1996
I84
sa(dp1997
g1991
S'better'
p1998
sg1992
I1
sg1993
I8
sg1994
I7
sg1995
I13
sg1996
I83
sa(dp1999
g1991
g1998
sg1992
I2
sg1993
I9
sg1994
I12
sg1995
I21
sg1996
I110
sa(dp2000
g1991
S'perfect'
p2001
sg1992
I3
sg1993
I9
sg1994
I20
sg1995
I31
sg1996
I80
sa(dp2002
g1991
g1998
sg1992
I4
sg1993
I9
sg1994
I14
sg1995
I39
sg1996
I76
sa(dp2003
g1991
g2001
sg1992
I5
sg1993
I9
sg1994
I38
sg1995
I47
sg1996
I75
sa(dp2004
g1991
g2001
sg1992
I6
sg1993
I8
sg1994
I34
sg1995
I49
sg1996
I52
sa(dp2005
g1991
g1998
sg1992
I7
sg1993
I6
sg1994
I3
sg1995
I57
sg1996
I145
sa(dp2006
g1991
g2001
sg1992
I8
sg1993
I4
sg1994
I12
sg1995
I47
sg1996
I60
sa(dp2007
g1991
g1998
sg1992
I9
sg1993
I3
sg1994
I35
sg1995
I55
sg1996
I71
sa(dp2008
g1991
g2001
sg1992
I10
sg1993
I1
sg1994
I52
sg1995
I63
sg1996
I27
sa(dp2009
g1991
g2001
sg1992
I11
sg1993
I1
sg1994
I44
sg1995
I71
sg1996
I40
sa(dp2010
g1991
g2001
sg1992
I12
sg1993
I1
sg1994
I24
sg1995
I75
sg1996
I15
sa(dp2011
g1991
S'worst'
p2012
sg1992
I13
sg1993
I2
sg1994
I4
sg1995
I83
sg1996
I55
sa(dp2013
g1991
g2001
sg1992
I14
sg1993
I1
sg1994
I33
sg1995
I91
sg1996
I23
sa(dp2014
g1991
g2001
sg1992
I15
sg1993
I0
sg1994
I81
sg1995
I99
sg1996
I0
satRp2015
(dp2016
g183
I01
sg184
(lp2017
g1992
ag1995
ag1993
ag1996
ag1994
ag1991
asg186
Nsg187
I0
sg188
g189
(g13
tRp2018
sbsS'max_archive_size'
p2019
NsS'solution_found_flag'
p2020
I01
sS'time_taken'
p2021
F2203.9676170349121
sS'benchmark_name'
p2022
S'M_B'
p2023
sa(dp2024
S'tree_str'
p2025
S'b1(b1(b1(b1(ARG0,ARG0),ARG0),b1(b1(b1(ARG0,b1(b1(ARG0,b1(ARG2,b1(b1(b1(b1(ARG2,ARG1),ARG2),ARG2),b1(b1(ARG2,ARG1),b1(ARG0,ARG0))))),b1(b1(b1(ARG2,ARG2),b1(ARG0,ARG2)),b1(ARG0,ARG2)))),ARG1),ARG2)),b1(ARG0,b1(b1(b1(b1(ARG1,b1(ARG2,b1(b1(ARG2,ARG0),ARG0))),b1(ARG2,b1(b1(ARG1,ARG0),b1(b1(ARG0,ARG2),ARG1)))),b1(ARG2,b1(b1(b1(b1(ARG0,ARG1),ARG0),b1(b1(ARG0,ARG2),ARG2)),b1(b1(ARG1,ARG0),ARG2)))),b1(ARG2,ARG2))))'
p2026
sS'tree_len'
p2027
I91
sS'archive_size'
p2028
I21549
sS'number_of_operators'
p2029
I45
sS'alg_name'
p2030
S'small-LTI'
p2031
sS'archive_tree_deapth'
p2032
I3
sS'logbook'
p2033
g12
(g13
g14
(lp2034
(dp2035
S'status'
p2036
NsS'iteration'
p2037
I0
sS'count_wrongs'
p2038
I10
sS'picked_node'
p2039
NsS'len_master_tree'
p2040
I9
sS'total_wrongs'
p2041
I84
sa(dp2042
g2036
S'better'
p2043
sg2037
I1
sg2038
I8
sg2039
I7
sg2040
I13
sg2041
I83
sa(dp2044
g2036
g2043
sg2037
I2
sg2038
I10
sg2039
I12
sg2040
I21
sg2041
I118
sa(dp2045
g2036
S'perfect'
p2046
sg2037
I3
sg2038
I9
sg2039
I20
sg2040
I31
sg2041
I80
sa(dp2047
g2036
g2043
sg2037
I4
sg2038
I9
sg2039
I14
sg2040
I39
sg2041
I76
sa(dp2048
g2036
g2046
sg2037
I5
sg2038
I9
sg2039
I38
sg2040
I47
sg2041
I75
sa(dp2049
g2036
g2046
sg2037
I6
sg2038
I8
sg2039
I34
sg2040
I49
sg2041
I52
sa(dp2050
g2036
g2043
sg2037
I7
sg2038
I6
sg2039
I3
sg2040
I57
sg2041
I145
sa(dp2051
g2036
g2046
sg2037
I8
sg2038
I4
sg2039
I12
sg2040
I47
sg2041
I60
sa(dp2052
g2036
g2043
sg2037
I9
sg2038
I3
sg2039
I35
sg2040
I55
sg2041
I71
sa(dp2053
g2036
g2046
sg2037
I10
sg2038
I1
sg2039
I52
sg2040
I63
sg2041
I27
sa(dp2054
g2036
g2046
sg2037
I11
sg2038
I1
sg2039
I44
sg2040
I71
sg2041
I40
sa(dp2055
g2036
g2046
sg2037
I12
sg2038
I1
sg2039
I24
sg2040
I75
sg2041
I15
sa(dp2056
g2036
S'worst'
p2057
sg2037
I13
sg2038
I2
sg2039
I29
sg2040
I83
sg2041
I75
sa(dp2058
g2036
g2046
sg2037
I14
sg2038
I1
sg2039
I77
sg2040
I91
sg2041
I9
sa(dp2059
g2036
g2057
sg2037
I15
sg2038
I3
sg2039
I4
sg2040
I95
sg2041
I136
sa(dp2060
g2036
g2046
sg2037
I16
sg2038
I1
sg2039
I34
sg2040
I87
sg2041
I35
sa(dp2061
g2036
g2046
sg2037
I17
sg2038
I0
sg2039
I63
sg2040
I91
sg2041
I0
satRp2062
(dp2063
g183
I01
sg184
(lp2064
g2037
ag2040
ag2038
ag2041
ag2039
ag2036
asg186
Nsg187
I0
sg188
g189
(g13
tRp2065
sbsS'max_archive_size'
p2066
NsS'solution_found_flag'
p2067
I01
sS'time_taken'
p2068
F3450.8301250934601
sS'benchmark_name'
p2069
S'M_B'
p2070
sa(dp2071
S'tree_str'
p2072
S'b1(b1(b1(b1(ARG0,b1(ARG1,b1(b1(ARG2,b1(ARG0,ARG1)),b1(ARG0,ARG0)))),b1(ARG1,ARG2)),b1(b1(b1(ARG0,b1(b1(ARG1,b1(b1(b1(ARG0,ARG1),ARG1),ARG0)),b1(ARG0,b1(b1(ARG1,ARG2),b1(b1(b1(b1(ARG0,b1(b1(ARG0,ARG2),ARG2)),b1(ARG2,ARG1)),b1(b1(ARG1,ARG0),ARG2)),ARG1))))),ARG1),ARG2)),b1(ARG0,b1(b1(b1(b1(ARG1,b1(ARG2,ARG1)),b1(ARG2,ARG1)),b1(ARG2,b1(b1(b1(b1(ARG0,ARG1),ARG0),b1(b1(b1(b1(ARG0,ARG2),ARG2),ARG2),ARG2)),b1(b1(ARG1,b1(b1(ARG0,b1(ARG1,ARG0)),b1(ARG0,ARG0))),ARG2)))),b1(ARG2,ARG2))))'
p2073
sS'tree_len'
p2074
I107
sS'archive_size'
p2075
I21549
sS'number_of_operators'
p2076
I53
sS'alg_name'
p2077
S'small-LTI'
p2078
sS'archive_tree_deapth'
p2079
I3
sS'logbook'
p2080
g12
(g13
g14
(lp2081
(dp2082
S'status'
p2083
NsS'iteration'
p2084
I0
sS'count_wrongs'
p2085
I10
sS'picked_node'
p2086
NsS'len_master_tree'
p2087
I9
sS'total_wrongs'
p2088
I84
sa(dp2089
g2083
S'better'
p2090
sg2084
I1
sg2085
I8
sg2086
I7
sg2087
I13
sg2088
I83
sa(dp2091
g2083
g2090
sg2084
I2
sg2085
I10
sg2086
I12
sg2087
I21
sg2088
I120
sa(dp2092
g2083
g2090
sg2084
I3
sg2085
I8
sg2086
I15
sg2087
I29
sg2088
I72
sa(dp2093
g2083
S'perfect'
p2094
sg2084
I4
sg2085
I8
sg2086
I19
sg2087
I37
sg2088
I52
sa(dp2095
g2083
g2090
sg2084
I5
sg2085
I6
sg2086
I3
sg2087
I45
sg2088
I133
sa(dp2096
g2083
g2094
sg2084
I6
sg2085
I5
sg2086
I27
sg2087
I37
sg2088
I83
sa(dp2097
g2083
g2094
sg2084
I7
sg2085
I4
sg2086
I21
sg2087
I45
sg2088
I60
sa(dp2098
g2083
g2090
sg2084
I8
sg2085
I3
sg2086
I32
sg2087
I53
sg2088
I59
sa(dp2099
g2083
g2094
sg2084
I9
sg2085
I1
sg2086
I50
sg2087
I61
sg2088
I15
sa(dp2100
g2083
S'worst'
p2101
sg2084
I10
sg2085
I2
sg2086
I29
sg2087
I69
sg2088
I86
sa(dp2102
g2083
g2094
sg2084
I11
sg2085
I2
sg2086
I32
sg2087
I73
sg2088
I60
sa(dp2103
g2083
g2094
sg2084
I12
sg2085
I1
sg2086
I37
sg2087
I83
sg2088
I22
sa(dp2104
g2083
g2094
sg2084
I13
sg2085
I1
sg2086
I54
sg2087
I87
sg2088
I9
sa(dp2105
g2083
g2101
sg2084
I14
sg2085
I2
sg2086
I2
sg2087
I91
sg2088
I77
sa(dp2106
g2083
g2094
sg2084
I15
sg2085
I2
sg2086
I53
sg2087
I89
sg2088
I62
sa(dp2107
g2083
g2094
sg2084
I16
sg2085
I2
sg2086
I40
sg2087
I93
sg2088
I61
sa(dp2108
g2083
g2094
sg2084
I17
sg2085
I2
sg2086
I62
sg2087
I99
sg2088
I60
sa(dp2109
g2083
g2094
sg2084
I18
sg2085
I2
sg2086
I60
sg2087
I103
sg2088
I33
sa(dp2110
g2083
g2094
sg2084
I19
sg2085
I1
sg2086
I51
sg2087
I111
sg2088
I13
sa(dp2111
g2083
g2101
sg2084
I20
sg2085
I2
sg2086
I66
sg2087
I107
sg2088
I47
sa(dp2112
g2083
g2094
sg2084
I21
sg2085
I2
sg2086
I66
sg2087
I105
sg2088
I81
sa(dp2113
g2083
g2094
sg2084
I22
sg2085
I1
sg2086
I84
sg2087
I97
sg2088
I9
sa(dp2114
g2083
g2101
sg2084
I23
sg2085
I2
sg2086
I84
sg2087
I101
sg2088
I100
sa(dp2115
g2083
g2094
sg2084
I24
sg2085
I2
sg2086
I51
sg2087
I89
sg2088
I68
sa(dp2116
g2083
g2094
sg2084
I25
sg2085
I2
sg2086
I21
sg2087
I93
sg2088
I72
sa(dp2117
g2083
g2094
sg2084
I26
sg2085
I2
sg2086
I62
sg2087
I95
sg2088
I59
sa(dp2118
g2083
g2094
sg2084
I27
sg2085
I2
sg2086
I74
sg2087
I99
sg2088
I33
sa(dp2119
g2083
g2094
sg2084
I28
sg2085
I1
sg2086
I48
sg2087
I107
sg2088
I13
sa(dp2120
g2083
g2101
sg2084
I29
sg2085
I2
sg2086
I62
sg2087
I103
sg2088
I51
sa(dp2121
g2083
g2094
sg2084
I30
sg2085
I2
sg2086
I20
sg2087
I99
sg2088
I68
sa(dp2122
g2083
g2094
sg2084
I31
sg2085
I1
sg2086
I44
sg2087
I91
sg2088
I9
sa(dp2123
g2083
g2101
sg2084
I32
sg2085
I2
sg2086
I3
sg2087
I99
sg2088
I45
sa(dp2124
g2083
g2094
sg2084
I33
sg2085
I2
sg2086
I14
sg2087
I103
sg2088
I75
sa(dp2125
g2083
g2094
sg2084
I34
sg2085
I2
sg2086
I58
sg2087
I99
sg2088
I31
sa(dp2126
g2083
g2090
sg2084
I35
sg2085
I2
sg2086
I86
sg2087
I107
sg2088
I134
sa(dp2127
g2083
g2094
sg2084
I36
sg2085
I1
sg2086
I68
sg2087
I111
sg2088
I55
sa(dp2128
g2083
g2094
sg2084
I37
sg2085
I0
sg2086
I41
sg2087
I107
sg2088
I0
satRp2129
(dp2130
g183
I01
sg184
(lp2131
g2084
ag2087
ag2085
ag2088
ag2086
ag2083
asg186
Nsg187
I0
sg188
g189
(g13
tRp2132
sbsS'max_archive_size'
p2133
NsS'solution_found_flag'
p2134
I01
sS'time_taken'
p2135
F5556.1369721889496
sS'benchmark_name'
p2136
S'M_B'
p2137
sa(dp2138
S'tree_str'
p2139
S'b1(b1(b1(b1(ARG0,b1(ARG0,b1(b1(ARG2,b1(ARG2,ARG1)),b1(ARG2,ARG1)))),b1(ARG0,ARG2)),b1(b1(b1(ARG0,b1(b1(ARG0,b1(ARG2,b1(b1(b1(b1(ARG2,ARG1),ARG2),ARG2),b1(b1(ARG2,ARG1),b1(ARG0,ARG0))))),b1(b1(b1(b1(b1(ARG2,b1(ARG2,ARG2)),b1(ARG2,ARG1)),ARG2),b1(ARG0,ARG2)),b1(b1(b1(ARG0,b1(ARG2,ARG0)),b1(ARG2,ARG0)),ARG2)))),ARG1),ARG2)),b1(ARG0,b1(b1(ARG1,b1(ARG2,b1(b1(b1(b1(ARG0,ARG1),ARG0),b1(b1(ARG0,ARG2),ARG2)),b1(b1(ARG1,ARG0),ARG2)))),b1(ARG2,ARG2))))'
p2140
sS'tree_len'
p2141
I99
sS'archive_size'
p2142
I21549
sS'number_of_operators'
p2143
I49
sS'alg_name'
p2144
S'small-LTI'
p2145
sS'archive_tree_deapth'
p2146
I3
sS'logbook'
p2147
g12
(g13
g14
(lp2148
(dp2149
S'status'
p2150
NsS'iteration'
p2151
I0
sS'count_wrongs'
p2152
I10
sS'picked_node'
p2153
NsS'len_master_tree'
p2154
I9
sS'total_wrongs'
p2155
I84
sa(dp2156
g2150
S'better'
p2157
sg2151
I1
sg2152
I8
sg2153
I7
sg2154
I13
sg2155
I83
sa(dp2158
g2150
g2157
sg2151
I2
sg2152
I10
sg2153
I12
sg2154
I21
sg2155
I118
sa(dp2159
g2150
S'perfect'
p2160
sg2151
I3
sg2152
I9
sg2153
I20
sg2154
I31
sg2155
I80
sa(dp2161
g2150
g2157
sg2151
I4
sg2152
I9
sg2153
I14
sg2154
I39
sg2155
I76
sa(dp2162
g2150
g2160
sg2151
I5
sg2152
I9
sg2153
I38
sg2154
I47
sg2155
I75
sa(dp2163
g2150
g2160
sg2151
I6
sg2152
I8
sg2153
I34
sg2154
I49
sg2155
I52
sa(dp2164
g2150
g2157
sg2151
I7
sg2152
I6
sg2153
I3
sg2154
I57
sg2155
I145
sa(dp2165
g2150
g2160
sg2151
I8
sg2152
I4
sg2153
I12
sg2154
I47
sg2155
I60
sa(dp2166
g2150
g2157
sg2151
I9
sg2152
I3
sg2153
I35
sg2154
I55
sg2155
I71
sa(dp2167
g2150
g2160
sg2151
I10
sg2152
I1
sg2153
I52
sg2154
I63
sg2155
I27
sa(dp2168
g2150
g2160
sg2151
I11
sg2152
I1
sg2153
I44
sg2154
I71
sg2155
I40
sa(dp2169
g2150
g2160
sg2151
I12
sg2152
I1
sg2153
I24
sg2154
I75
sg2155
I15
sa(dp2170
g2150
S'worst'
p2171
sg2151
I13
sg2152
I2
sg2153
I4
sg2154
I83
sg2155
I55
sa(dp2172
g2150
g2160
sg2151
I14
sg2152
I1
sg2153
I33
sg2154
I91
sg2155
I23
sa(dp2173
g2150
g2160
sg2151
I15
sg2152
I0
sg2153
I81
sg2154
I99
sg2155
I0
satRp2174
(dp2175
g183
I01
sg184
(lp2176
g2151
ag2154
ag2152
ag2155
ag2153
ag2150
asg186
Nsg187
I0
sg188
g189
(g13
tRp2177
sbsS'max_archive_size'
p2178
NsS'solution_found_flag'
p2179
I01
sS'time_taken'
p2180
F2802.1241588592529
sS'benchmark_name'
p2181
S'M_B'
p2182
sa.